 streaming_protocol

 Timestamp is 5b6b400e (Wed Aug  8 15:10:06 2018)

 Preferred load address is 0000000140000000

 Start         Length     Name                   Class
 0001:00000000 00001630H .text$di                CODE
 0001:00001630 0002caf0H .text$mn                CODE
 0001:0002e120 00000020H .text$mn$00             CODE
 0001:0002e140 00003040H .text$x                 CODE
 0001:00031180 00000315H .text$yd                CODE
 0002:00000000 000005e8H .idata$5                DATA
 0002:000005e8 00000010H .00cfg                  DATA
 0002:000005f8 00000008H .CRT$XCA                DATA
 0002:00000600 00000008H .CRT$XCAA               DATA
 0002:00000608 00000008H .CRT$XCL                DATA
 0002:00000610 00000308H .CRT$XCU                DATA
 0002:00000918 00000008H .CRT$XCZ                DATA
 0002:00000920 00000008H .CRT$XIA                DATA
 0002:00000928 00000008H .CRT$XIAA               DATA
 0002:00000930 00000008H .CRT$XIAC               DATA
 0002:00000938 00000008H .CRT$XIZ                DATA
 0002:00000940 00000008H .CRT$XPA                DATA
 0002:00000948 00000008H .CRT$XPZ                DATA
 0002:00000950 00000008H .CRT$XTA                DATA
 0002:00000958 00000008H .CRT$XTZ                DATA
 0002:00000960 00006c00H .rdata                  DATA
 0002:00007560 00000db4H .rdata$r                DATA
 0002:00008314 000003b4H .rdata$zzzdbg           DATA
 0002:000086c8 00000008H .rtc$IAA                DATA
 0002:000086d0 00000008H .rtc$IZZ                DATA
 0002:000086d8 00000008H .rtc$TAA                DATA
 0002:000086e0 00000010H .rtc$TZZ                DATA
 0002:000086f0 00007e08H .xdata                  DATA
 0002:000104f8 000001acH .xdata$x                DATA
 0002:000106a4 00000000H .edata                  DATA
 0002:000106a4 00000078H .idata$2                DATA
 0002:0001071c 00000014H .idata$3                DATA
 0002:00010730 000005e8H .idata$4                DATA
 0002:00010d18 0000184aH .idata$6                DATA
 0003:00000000 00000050H .data                   DATA
 0003:00000050 00000590H .data$r                 DATA
 0003:000005e0 00000a18H .bss                    DATA
 0004:00000000 00005a48H .pdata                  DATA
 0005:00000000 00000034H .gfids$y                DATA
 0006:00000000 00000060H .rsrc$01                DATA
 0006:00000060 00000180H .rsrc$02                DATA

  Address         Publics by Value              Rva+Base               Lib:Object

 0000:00000000       ___safe_se_handler_table   0000000000000000     <absolute>
 0000:00000000       __guard_longjmp_table      0000000000000000     <absolute>
 0000:00000000       __guard_longjmp_count      0000000000000000     <absolute>
 0000:00000000       __dynamic_value_reloc_table 0000000000000000     <absolute>
 0000:00000000       __guard_fids_count         0000000000000000     <absolute>
 0000:00000000       __guard_iat_table          0000000000000000     <absolute>
 0000:00000000       __guard_iat_count          0000000000000000     <absolute>
 0000:00000000       ___safe_se_handler_count   0000000000000000     <absolute>
 0000:00000000       __guard_fids_table         0000000000000000     <absolute>
 0000:00000100       __guard_flags              0000000000000100     <absolute>
 0000:00000000       __ImageBase                0000000140000000     <linker-defined>
 0001:00001630       ??0AngularSegmentKinematicsDatagram@@QEAA@XZ 0000000140002630 f   angularsegmentkinematicsdatagram.obj
 0001:00001690       ??1AngularSegmentKinematicsDatagram@@UEAA@XZ 0000000140002690 f   angularsegmentkinematicsdatagram.obj
 0001:000016d0       ?printData@AngularSegmentKinematicsDatagram@@UEBAXXZ 00000001400026d0 f   angularsegmentkinematicsdatagram.obj
 0001:000016f0       ?deserializeData@AngularSegmentKinematicsDatagram@@MEAAXAEAVStreamer@@@Z 00000001400026f0 f   angularsegmentkinematicsdatagram.obj
 0001:000018f0       ?alignData@AngularSegmentKinematicsDatagram@@QEBA?AV?$vector@MV?$allocator@M@std@@@std@@XZ 00000001400028f0 f   angularsegmentkinematicsdatagram.obj
 0001:00001b70       ?streamData@AngularSegmentKinematicsDatagram@@QEBAXXZ 0000000140002b70 f   angularsegmentkinematicsdatagram.obj
 0001:00001be0       ??$?0$$V@?$_Compressed_pair@U?$_Wrap_alloc@V?$allocator@D@std@@@std@@V?$_String_val@U?$_Simple_types@D@std@@@2@$00@std@@QEAA@U_Zero_then_variadic_args_t@1@@Z 0000000140002be0 f i angularsegmentkinematicsdatagram.obj
 0001:00001c10       ??$?0$$V@?$_Compressed_pair@U?$_Wrap_alloc@V?$allocator@M@std@@@std@@V?$_Vector_val@U?$_Simple_types@M@std@@@2@$00@std@@QEAA@U_Zero_then_variadic_args_t@1@@Z 0000000140002c10 f i angularsegmentkinematicsdatagram.obj
 0001:00001c40       ??$?0$$V@?$_Compressed_pair@U?$_Wrap_alloc@V?$allocator@UKinematics@AngularSegmentKinematicsDatagram@@@std@@@std@@V?$_Vector_val@U?$_Simple_types@UKinematics@AngularSegmentKinematicsDatagram@@@std@@@2@$00@std@@QEAA@U_Zero_then_variadic_args_t@1@@Z 0000000140002c40 f i angularsegmentkinematicsdatagram.obj
 0001:00001c70       ??$?0AEAU?$_Wrap_alloc@V?$allocator@D@std@@@std@@@?$_Wrap_alloc@V?$allocator@U_Container_proxy@std@@@std@@@std@@QEAA@AEAU?$_Wrap_alloc@V?$allocator@D@std@@@1@@Z 0000000140002c70 f i angularsegmentkinematicsdatagram.obj
 0001:00001ca0       ??$?0AEAU?$_Wrap_alloc@V?$allocator@M@std@@@std@@@?$_Wrap_alloc@V?$allocator@U_Container_proxy@std@@@std@@@std@@QEAA@AEAU?$_Wrap_alloc@V?$allocator@M@std@@@1@@Z 0000000140002ca0 f i angularsegmentkinematicsdatagram.obj
 0001:00001cd0       ??$?0AEAU?$_Wrap_alloc@V?$allocator@UKinematics@AngularSegmentKinematicsDatagram@@@std@@@std@@@?$_Wrap_alloc@V?$allocator@U_Container_proxy@std@@@std@@@std@@QEAA@AEAU?$_Wrap_alloc@V?$allocator@UKinematics@AngularSegmentKinematicsDatagram@@@std@@@1@@Z 0000000140002cd0 f i angularsegmentkinematicsdatagram.obj
 0001:00001d00       ??$?0D@?$allocator@U_Container_proxy@std@@@std@@QEAA@AEBV?$allocator@D@1@@Z 0000000140002d00 f i angularsegmentkinematicsdatagram.obj
 0001:00001d10       ??$?0M@?$allocator@U_Container_proxy@std@@@std@@QEAA@AEBV?$allocator@M@1@@Z 0000000140002d10 f i angularsegmentkinematicsdatagram.obj
 0001:00001d20       ??$?0U?$_Wrap_alloc@V?$allocator@M@std@@@std@@$$V@?$_Compressed_pair@U?$_Wrap_alloc@V?$allocator@M@std@@@std@@V?$_Vector_val@U?$_Simple_types@M@std@@@2@$00@std@@QEAA@U_One_then_variadic_args_t@1@$$QEAU?$_Wrap_alloc@V?$allocator@M@std@@@1@@Z 0000000140002d20 f i angularsegmentkinematicsdatagram.obj
 0001:00001d60       ??$?0U?$_Wrap_alloc@V?$allocator@M@std@@@std@@X@?$_Vector_alloc@U?$_Vec_base_types@MV?$allocator@M@std@@@std@@@std@@QEAA@$$QEAU?$_Wrap_alloc@V?$allocator@M@std@@@1@@Z 0000000140002d60 f i angularsegmentkinematicsdatagram.obj
 0001:00001db0       ??$?0UKinematics@AngularSegmentKinematicsDatagram@@@?$allocator@U_Container_proxy@std@@@std@@QEAA@AEBV?$allocator@UKinematics@AngularSegmentKinematicsDatagram@@@1@@Z 0000000140002db0 f i angularsegmentkinematicsdatagram.obj
 0001:00001dc0       ??$_Copy_memmove@PEAMPEAM@std@@YAPEAMPEAM00@Z 0000000140002dc0 f i angularsegmentkinematicsdatagram.obj
 0001:00001e30       ??$_Copy_memmove@PEAUKinematics@AngularSegmentKinematicsDatagram@@PEAU12@@std@@YAPEAUKinematics@AngularSegmentKinematicsDatagram@@PEAU12@00@Z 0000000140002e30 f i angularsegmentkinematicsdatagram.obj
 0001:00001ea0       ??$_Debug_pointer@$$CBD@std@@YAXPEBDPEB_WI@Z 0000000140002ea0 f i angularsegmentkinematicsdatagram.obj
 0001:00001ee0       ??$_Debug_pointer_if@$$CBD@std@@YAX_NPEBDPEB_WI@Z 0000000140002ee0 f i angularsegmentkinematicsdatagram.obj
 0001:00001f30       ??$_Destroy_range1@V?$allocator@M@std@@PEAM@std@@YAXPEAM0AEAU?$_Wrap_alloc@V?$allocator@M@std@@@0@U?$integral_constant@_N$00@0@@Z 0000000140002f30 f i angularsegmentkinematicsdatagram.obj
 0001:00001f50       ??$_Destroy_range1@V?$allocator@UKinematics@AngularSegmentKinematicsDatagram@@@std@@PEAUKinematics@AngularSegmentKinematicsDatagram@@@std@@YAXPEAUKinematics@AngularSegmentKinematicsDatagram@@0AEAU?$_Wrap_alloc@V?$allocator@UKinematics@AngularSegmentKinematicsDatagram@@@std@@@0@U?$integral_constant@_N$00@0@@Z 0000000140002f50 f i angularsegmentkinematicsdatagram.obj
 0001:00001f70       ??$_Destroy_range@V?$allocator@M@std@@PEAM@std@@YAXPEAM0AEAU?$_Wrap_alloc@V?$allocator@M@std@@@0@@Z 0000000140002f70 f i angularsegmentkinematicsdatagram.obj
 0001:00001fb0       ??$_Destroy_range@V?$allocator@UKinematics@AngularSegmentKinematicsDatagram@@@std@@PEAUKinematics@AngularSegmentKinematicsDatagram@@@std@@YAXPEAUKinematics@AngularSegmentKinematicsDatagram@@0AEAU?$_Wrap_alloc@V?$allocator@UKinematics@AngularSegmentKinematicsDatagram@@@std@@@0@@Z 0000000140002fb0 f i angularsegmentkinematicsdatagram.obj
 0001:00001ff0       ??$_Ptr_move_cat@MM@std@@YA?AU_Really_trivial_ptr_iterator_tag@0@AEBQEAM0@Z 0000000140002ff0 f i angularsegmentkinematicsdatagram.obj
 0001:00002010       ??$_Ptr_move_cat@UKinematics@AngularSegmentKinematicsDatagram@@U12@@std@@YA?AU_Really_trivial_ptr_iterator_tag@0@AEBQEAUKinematics@AngularSegmentKinematicsDatagram@@0@Z 0000000140003010 f i angularsegmentkinematicsdatagram.obj
 0001:00002030       ??$_Rechecked@PEAMPEAM@std@@YAAEAPEAMAEAPEAMPEAM@Z 0000000140003030 f i angularsegmentkinematicsdatagram.obj
 0001:00002050       ??$_Rechecked@PEAUKinematics@AngularSegmentKinematicsDatagram@@PEAU12@@std@@YAAEAPEAUKinematics@AngularSegmentKinematicsDatagram@@AEAPEAU12@PEAU12@@Z 0000000140003050 f i angularsegmentkinematicsdatagram.obj
 0001:00002070       ??$_Umove@PEAM@?$vector@MV?$allocator@M@std@@@std@@IEAAPEAMPEAM00@Z 0000000140003070 f i angularsegmentkinematicsdatagram.obj
 0001:000020b0       ??$_Umove@PEAUKinematics@AngularSegmentKinematicsDatagram@@@?$vector@UKinematics@AngularSegmentKinematicsDatagram@@V?$allocator@UKinematics@AngularSegmentKinematicsDatagram@@@std@@@std@@IEAAPEAUKinematics@AngularSegmentKinematicsDatagram@@PEAU23@00@Z 00000001400030b0 f i angularsegmentkinematicsdatagram.obj
 0001:000020f0       ??$_Unchecked@PEAM@std@@YAPEAMPEAM@Z 00000001400030f0 f i angularsegmentkinematicsdatagram.obj
 0001:00002100       ??$_Unchecked@PEAUKinematics@AngularSegmentKinematicsDatagram@@@std@@YAPEAUKinematics@AngularSegmentKinematicsDatagram@@PEAU12@@Z 0000000140003100 f i angularsegmentkinematicsdatagram.obj
 0001:00002110       ??$_Unfancy@D@std@@YAPEADPEAD@Z 0000000140003110 f i angularsegmentkinematicsdatagram.obj
 0001:00002120       ??$_Unfancy@M@std@@YAPEAMPEAM@Z 0000000140003120 f i angularsegmentkinematicsdatagram.obj
 0001:00002130       ??$_Unfancy@UKinematics@AngularSegmentKinematicsDatagram@@@std@@YAPEAUKinematics@AngularSegmentKinematicsDatagram@@PEAU12@@Z 0000000140003130 f i angularsegmentkinematicsdatagram.obj
 0001:00002140       ??$_Unfancy@U_Container_proxy@std@@@std@@YAPEAU_Container_proxy@0@PEAU10@@Z 0000000140003140 f i angularsegmentkinematicsdatagram.obj
 0001:00002150       ??$_Uninitialized_move@PEAMPEAMV?$allocator@M@std@@@std@@YAPEAMPEAM00AEAU?$_Wrap_alloc@V?$allocator@M@std@@@0@@Z 0000000140003150 f i angularsegmentkinematicsdatagram.obj
 0001:000021d0       ??$_Uninitialized_move@PEAUKinematics@AngularSegmentKinematicsDatagram@@PEAU12@V?$allocator@UKinematics@AngularSegmentKinematicsDatagram@@@std@@@std@@YAPEAUKinematics@AngularSegmentKinematicsDatagram@@PEAU12@00AEAU?$_Wrap_alloc@V?$allocator@UKinematics@AngularSegmentKinematicsDatagram@@@std@@@0@@Z 00000001400031d0 f i angularsegmentkinematicsdatagram.obj
 0001:00002250       ??$_Uninitialized_move_al_unchecked1@MMV?$allocator@M@std@@@std@@YAPEAMPEAM00AEAU?$_Wrap_alloc@V?$allocator@M@std@@@0@U_Really_trivial_ptr_iterator_tag@0@U?$integral_constant@_N$00@0@@Z 0000000140003250 f i angularsegmentkinematicsdatagram.obj
 0001:00002290       ??$_Uninitialized_move_al_unchecked1@UKinematics@AngularSegmentKinematicsDatagram@@U12@V?$allocator@UKinematics@AngularSegmentKinematicsDatagram@@@std@@@std@@YAPEAUKinematics@AngularSegmentKinematicsDatagram@@PEAU12@00AEAU?$_Wrap_alloc@V?$allocator@UKinematics@AngularSegmentKinematicsDatagram@@@std@@@0@U_Really_trivial_ptr_iterator_tag@0@U?$integral_constant@_N$00@0@@Z 0000000140003290 f i angularsegmentkinematicsdatagram.obj
 0001:000022d0       ??$_Uninitialized_move_al_unchecked@PEAMPEAMV?$allocator@M@std@@@std@@YAPEAMPEAM00AEAU?$_Wrap_alloc@V?$allocator@M@std@@@0@@Z 00000001400032d0 f i angularsegmentkinematicsdatagram.obj
 0001:00002330       ??$_Uninitialized_move_al_unchecked@PEAUKinematics@AngularSegmentKinematicsDatagram@@PEAU12@V?$allocator@UKinematics@AngularSegmentKinematicsDatagram@@@std@@@std@@YAPEAUKinematics@AngularSegmentKinematicsDatagram@@PEAU12@00AEAU?$_Wrap_alloc@V?$allocator@UKinematics@AngularSegmentKinematicsDatagram@@@std@@@0@@Z 0000000140003330 f i angularsegmentkinematicsdatagram.obj
 0001:00002390       ??$addressof@$$CBM@std@@YAPEBMAEBM@Z 0000000140003390 f i angularsegmentkinematicsdatagram.obj
 0001:000023a0       ??$addressof@$$CBUKinematics@AngularSegmentKinematicsDatagram@@@std@@YAPEBUKinematics@AngularSegmentKinematicsDatagram@@AEBU12@@Z 00000001400033a0 f i angularsegmentkinematicsdatagram.obj
 0001:000023b0       ??$addressof@PEAD@std@@YAPEAPEADAEAPEAD@Z 00000001400033b0 f i angularsegmentkinematicsdatagram.obj
 0001:000023c0       ??$addressof@U_Container_proxy@std@@@std@@YAPEAU_Container_proxy@0@AEAU10@@Z 00000001400033c0 f i angularsegmentkinematicsdatagram.obj
 0001:000023d0       ??$construct@MAEAM@?$_Wrap_alloc@V?$allocator@M@std@@@std@@QEAAXPEAMAEAM@Z 00000001400033d0 f i angularsegmentkinematicsdatagram.obj
 0001:00002410       ??$construct@MAEAM@?$allocator@M@std@@QEAAXPEAMAEAM@Z 0000000140003410 f i angularsegmentkinematicsdatagram.obj
 0001:00002470       ??$construct@MAEAM@?$allocator_traits@V?$allocator@M@std@@@std@@SAXAEAV?$allocator@M@1@PEAMAEAM@Z 0000000140003470 f i angularsegmentkinematicsdatagram.obj
 0001:000024b0       ??$construct@MAEBM@?$_Wrap_alloc@V?$allocator@M@std@@@std@@QEAAXPEAMAEBM@Z 00000001400034b0 f i angularsegmentkinematicsdatagram.obj
 0001:000024f0       ??$construct@MAEBM@?$allocator@M@std@@QEAAXPEAMAEBM@Z 00000001400034f0 f i angularsegmentkinematicsdatagram.obj
 0001:00002550       ??$construct@MAEBM@?$allocator_traits@V?$allocator@M@std@@@std@@SAXAEAV?$allocator@M@1@PEAMAEBM@Z 0000000140003550 f i angularsegmentkinematicsdatagram.obj
 0001:00002590       ??$construct@PEADAEAPEAD@?$_Wrap_alloc@V?$allocator@D@std@@@std@@QEAAXPEAPEADAEAPEAD@Z 0000000140003590 f i angularsegmentkinematicsdatagram.obj
 0001:000025d0       ??$construct@PEADAEAPEAD@?$allocator@D@std@@QEAAXPEAPEADAEAPEAD@Z 00000001400035d0 f i angularsegmentkinematicsdatagram.obj
 0001:00002630       ??$construct@PEADAEAPEAD@?$allocator_traits@V?$allocator@D@std@@@std@@SAXAEAV?$allocator@D@1@PEAPEADAEAPEAD@Z 0000000140003630 f i angularsegmentkinematicsdatagram.obj
 0001:00002670       ??$construct@UKinematics@AngularSegmentKinematicsDatagram@@AEAU12@@?$_Wrap_alloc@V?$allocator@UKinematics@AngularSegmentKinematicsDatagram@@@std@@@std@@QEAAXPEAUKinematics@AngularSegmentKinematicsDatagram@@AEAU23@@Z 0000000140003670 f i angularsegmentkinematicsdatagram.obj
 0001:000026b0       ??$construct@UKinematics@AngularSegmentKinematicsDatagram@@AEAU12@@?$allocator@UKinematics@AngularSegmentKinematicsDatagram@@@std@@QEAAXPEAUKinematics@AngularSegmentKinematicsDatagram@@AEAU23@@Z 00000001400036b0 f i angularsegmentkinematicsdatagram.obj
 0001:00002720       ??$construct@UKinematics@AngularSegmentKinematicsDatagram@@AEAU12@@?$allocator_traits@V?$allocator@UKinematics@AngularSegmentKinematicsDatagram@@@std@@@std@@SAXAEAV?$allocator@UKinematics@AngularSegmentKinematicsDatagram@@@1@PEAUKinematics@AngularSegmentKinematicsDatagram@@AEAU34@@Z 0000000140003720 f i angularsegmentkinematicsdatagram.obj
 0001:00002760       ??$construct@UKinematics@AngularSegmentKinematicsDatagram@@AEBU12@@?$_Wrap_alloc@V?$allocator@UKinematics@AngularSegmentKinematicsDatagram@@@std@@@std@@QEAAXPEAUKinematics@AngularSegmentKinematicsDatagram@@AEBU23@@Z 0000000140003760 f i angularsegmentkinematicsdatagram.obj
 0001:000027a0       ??$construct@UKinematics@AngularSegmentKinematicsDatagram@@AEBU12@@?$allocator@UKinematics@AngularSegmentKinematicsDatagram@@@std@@QEAAXPEAUKinematics@AngularSegmentKinematicsDatagram@@AEBU23@@Z 00000001400037a0 f i angularsegmentkinematicsdatagram.obj
 0001:00002810       ??$construct@UKinematics@AngularSegmentKinematicsDatagram@@AEBU12@@?$allocator_traits@V?$allocator@UKinematics@AngularSegmentKinematicsDatagram@@@std@@@std@@SAXAEAV?$allocator@UKinematics@AngularSegmentKinematicsDatagram@@@1@PEAUKinematics@AngularSegmentKinematicsDatagram@@AEBU34@@Z 0000000140003810 f i angularsegmentkinematicsdatagram.obj
 0001:00002850       ??$construct@U_Container_proxy@std@@U12@@?$_Wrap_alloc@V?$allocator@U_Container_proxy@std@@@std@@@std@@QEAAXPEAU_Container_proxy@1@$$QEAU21@@Z 0000000140003850 f i angularsegmentkinematicsdatagram.obj
 0001:00002890       ??$construct@U_Container_proxy@std@@U12@@?$allocator@U_Container_proxy@std@@@std@@QEAAXPEAU_Container_proxy@1@$$QEAU21@@Z 0000000140003890 f i angularsegmentkinematicsdatagram.obj
 0001:00002900       ??$construct@U_Container_proxy@std@@U12@@?$allocator_traits@V?$allocator@U_Container_proxy@std@@@std@@@std@@SAXAEAV?$allocator@U_Container_proxy@std@@@1@PEAU_Container_proxy@1@$$QEAU31@@Z 0000000140003900 f i angularsegmentkinematicsdatagram.obj
 0001:00002940       ??$destroy@PEAD@?$_Wrap_alloc@V?$allocator@D@std@@@std@@QEAAXPEAPEAD@Z 0000000140003940 f i angularsegmentkinematicsdatagram.obj
 0001:00002970       ??$destroy@PEAD@?$allocator@D@std@@QEAAXPEAPEAD@Z 0000000140003970 f i angularsegmentkinematicsdatagram.obj
 0001:00002980       ??$destroy@PEAD@?$allocator_traits@V?$allocator@D@std@@@std@@SAXAEAV?$allocator@D@1@PEAPEAD@Z 0000000140003980 f i angularsegmentkinematicsdatagram.obj
 0001:000029b0       ??$destroy@U_Container_proxy@std@@@?$_Wrap_alloc@V?$allocator@U_Container_proxy@std@@@std@@@std@@QEAAXPEAU_Container_proxy@1@@Z 00000001400039b0 f i angularsegmentkinematicsdatagram.obj
 0001:000029e0       ??$destroy@U_Container_proxy@std@@@?$allocator@U_Container_proxy@std@@@std@@QEAAXPEAU_Container_proxy@1@@Z 00000001400039e0 f i angularsegmentkinematicsdatagram.obj
 0001:000029f0       ??$destroy@U_Container_proxy@std@@@?$allocator_traits@V?$allocator@U_Container_proxy@std@@@std@@@std@@SAXAEAV?$allocator@U_Container_proxy@std@@@1@PEAU_Container_proxy@1@@Z 00000001400039f0 f i angularsegmentkinematicsdatagram.obj
 0001:00002a20       ??$forward@AEAM@std@@YAAEAMAEAM@Z 0000000140003a20 f i angularsegmentkinematicsdatagram.obj
 0001:00002a30       ??$forward@AEAPEAD@std@@YAAEAPEADAEAPEAD@Z 0000000140003a30 f i angularsegmentkinematicsdatagram.obj
 0001:00002a40       ??$forward@AEAU?$_Wrap_alloc@V?$allocator@D@std@@@std@@@std@@YAAEAU?$_Wrap_alloc@V?$allocator@D@std@@@0@AEAU10@@Z 0000000140003a40 f i angularsegmentkinematicsdatagram.obj
 0001:00002a50       ??$forward@AEAU?$_Wrap_alloc@V?$allocator@M@std@@@std@@@std@@YAAEAU?$_Wrap_alloc@V?$allocator@M@std@@@0@AEAU10@@Z 0000000140003a50 f i angularsegmentkinematicsdatagram.obj
 0001:00002a60       ??$forward@AEAU?$_Wrap_alloc@V?$allocator@UKinematics@AngularSegmentKinematicsDatagram@@@std@@@std@@@std@@YAAEAU?$_Wrap_alloc@V?$allocator@UKinematics@AngularSegmentKinematicsDatagram@@@std@@@0@AEAU10@@Z 0000000140003a60 f i angularsegmentkinematicsdatagram.obj
 0001:00002a70       ??$forward@AEAUKinematics@AngularSegmentKinematicsDatagram@@@std@@YAAEAUKinematics@AngularSegmentKinematicsDatagram@@AEAU12@@Z 0000000140003a70 f i angularsegmentkinematicsdatagram.obj
 0001:00002a80       ??$forward@AEBM@std@@YAAEBMAEBM@Z 0000000140003a80 f i angularsegmentkinematicsdatagram.obj
 0001:00002a90       ??$forward@AEBUKinematics@AngularSegmentKinematicsDatagram@@@std@@YAAEBUKinematics@AngularSegmentKinematicsDatagram@@AEBU12@@Z 0000000140003a90 f i angularsegmentkinematicsdatagram.obj
 0001:00002aa0       ??$forward@U?$_Wrap_alloc@V?$allocator@M@std@@@std@@@std@@YA$$QEAU?$_Wrap_alloc@V?$allocator@M@std@@@0@AEAU10@@Z 0000000140003aa0 f i angularsegmentkinematicsdatagram.obj
 0001:00002ab0       ??$forward@U_Container_proxy@std@@@std@@YA$$QEAU_Container_proxy@0@AEAU10@@Z 0000000140003ab0 f i angularsegmentkinematicsdatagram.obj
 0001:00002ac0       ??$forward@V?$vector@MV?$allocator@M@std@@@std@@@std@@YA$$QEAV?$vector@MV?$allocator@M@std@@@0@AEAV10@@Z 0000000140003ac0 f i angularsegmentkinematicsdatagram.obj
 0001:00002ad0       ??$move@AEAU?$_Wrap_alloc@V?$allocator@M@std@@@std@@@std@@YA$$QEAU?$_Wrap_alloc@V?$allocator@M@std@@@0@AEAU10@@Z 0000000140003ad0 f i angularsegmentkinematicsdatagram.obj
 0001:00002ae0       ??0?$_Iterator012@Urandom_access_iterator_tag@std@@UKinematics@AngularSegmentKinematicsDatagram@@_JPEBU34@AEBU34@U_Iterator_base12@2@@std@@QEAA@XZ 0000000140003ae0 f i angularsegmentkinematicsdatagram.obj
 0001:00002b00       ??0?$_String_alloc@U?$_String_base_types@DV?$allocator@D@std@@@std@@@std@@QEAA@XZ 0000000140003b00 f i angularsegmentkinematicsdatagram.obj
 0001:00002b40       ??0?$_String_val@U?$_Simple_types@D@std@@@std@@QEAA@XZ 0000000140003b40 f i angularsegmentkinematicsdatagram.obj
 0001:00002ba0       ??0?$_Vector_alloc@U?$_Vec_base_types@MV?$allocator@M@std@@@std@@@std@@QEAA@XZ 0000000140003ba0 f i angularsegmentkinematicsdatagram.obj
 0001:00002be0       ??0?$_Vector_alloc@U?$_Vec_base_types@UKinematics@AngularSegmentKinematicsDatagram@@V?$allocator@UKinematics@AngularSegmentKinematicsDatagram@@@std@@@std@@@std@@QEAA@XZ 0000000140003be0 f i angularsegmentkinematicsdatagram.obj
 0001:00002c20       ??0?$_Vector_const_iterator@V?$_Vector_val@U?$_Simple_types@UKinematics@AngularSegmentKinematicsDatagram@@@std@@@std@@@std@@QEAA@PEAUKinematics@AngularSegmentKinematicsDatagram@@PEBU_Container_base12@1@@Z 0000000140003c20 f i angularsegmentkinematicsdatagram.obj
 0001:00002c70       ??0?$_Vector_val@U?$_Simple_types@M@std@@@std@@QEAA@XZ 0000000140003c70 f i angularsegmentkinematicsdatagram.obj
 0001:00002cc0       ??0?$_Vector_val@U?$_Simple_types@UKinematics@AngularSegmentKinematicsDatagram@@@std@@@std@@QEAA@XZ 0000000140003cc0 f i angularsegmentkinematicsdatagram.obj
 0001:00002d10       ??0?$_Wrap_alloc@V?$allocator@D@std@@@std@@QEAA@XZ 0000000140003d10 f i angularsegmentkinematicsdatagram.obj
 0001:00002d30       ??0?$_Wrap_alloc@V?$allocator@M@std@@@std@@QEAA@$$QEAU01@@Z 0000000140003d30 f i angularsegmentkinematicsdatagram.obj
 0001:00002d60       ??0?$_Wrap_alloc@V?$allocator@M@std@@@std@@QEAA@XZ 0000000140003d60 f i angularsegmentkinematicsdatagram.obj
 0001:00002d80       ??0?$_Wrap_alloc@V?$allocator@UKinematics@AngularSegmentKinematicsDatagram@@@std@@@std@@QEAA@XZ 0000000140003d80 f i angularsegmentkinematicsdatagram.obj
 0001:00002da0       ??0?$allocator@D@std@@QEAA@XZ 0000000140003da0 f i angularsegmentkinematicsdatagram.obj
 0001:00002db0       ??0?$allocator@M@std@@QEAA@AEBV01@@Z 0000000140003db0 f i angularsegmentkinematicsdatagram.obj
 0001:00002dc0       ??0?$allocator@M@std@@QEAA@XZ 0000000140003dc0 f i angularsegmentkinematicsdatagram.obj
 0001:00002dd0       ??0?$allocator@UKinematics@AngularSegmentKinematicsDatagram@@@std@@QEAA@XZ 0000000140003dd0 f i angularsegmentkinematicsdatagram.obj
 0001:00002de0       ??0?$basic_string@DU?$char_traits@D@std@@V?$allocator@D@2@@std@@QEAA@PEBD@Z 0000000140003de0 f i angularsegmentkinematicsdatagram.obj
 0001:00002e30       ??0?$basic_string@DU?$char_traits@D@std@@V?$allocator@D@2@@std@@QEAA@XZ 0000000140003e30 f i angularsegmentkinematicsdatagram.obj
 0001:00002e70       ??0?$vector@MV?$allocator@M@std@@@std@@QEAA@$$QEAV01@@Z 0000000140003e70 f i angularsegmentkinematicsdatagram.obj
 0001:00002ee0       ??0?$vector@MV?$allocator@M@std@@@std@@QEAA@XZ 0000000140003ee0 f i angularsegmentkinematicsdatagram.obj
 0001:00002f10       ??0?$vector@UKinematics@AngularSegmentKinematicsDatagram@@V?$allocator@UKinematics@AngularSegmentKinematicsDatagram@@@std@@@std@@QEAA@XZ 0000000140003f10 f i angularsegmentkinematicsdatagram.obj
 0001:00002f40       ??0_Bxty@?$_String_val@U?$_Simple_types@D@std@@@std@@QEAA@XZ 0000000140003f40 f i angularsegmentkinematicsdatagram.obj
 0001:00002f50       ??0_Container_base12@std@@QEAA@XZ 0000000140003f50 f i angularsegmentkinematicsdatagram.obj
 0001:00002f70       ??0_Container_proxy@std@@QEAA@XZ 0000000140003f70 f i angularsegmentkinematicsdatagram.obj
 0001:00002fa0       ??0_Iterator_base12@std@@QEAA@XZ 0000000140003fa0 f i angularsegmentkinematicsdatagram.obj
 0001:00002fd0       ??0exception@std@@QEAA@AEBV01@@Z 0000000140003fd0 f i angularsegmentkinematicsdatagram.obj
 0001:00003030       ??0exception@std@@QEAA@QEBD@Z 0000000140004030 f i angularsegmentkinematicsdatagram.obj
 0001:000030a0       ??0runtime_error@std@@QEAA@AEBV01@@Z 00000001400040a0 f i angularsegmentkinematicsdatagram.obj
 0001:000030e0       ??0runtime_error@std@@QEAA@PEBD@Z 00000001400040e0 f i angularsegmentkinematicsdatagram.obj
 0001:00003120       ??0stream_info@lsl@@QEAA@AEBV?$basic_string@DU?$char_traits@D@std@@V?$allocator@D@2@@std@@0HNW4channel_format_t@1@0@Z 0000000140004120 f i angularsegmentkinematicsdatagram.obj
 0001:000031b0       ??0stream_outlet@lsl@@QEAA@AEBVstream_info@1@HH@Z 00000001400041b0 f i angularsegmentkinematicsdatagram.obj
 0001:00003210       ??1?$_Compressed_pair@U?$_Wrap_alloc@V?$allocator@D@std@@@std@@V?$_String_val@U?$_Simple_types@D@std@@@2@$00@std@@QEAA@XZ 0000000140004210 f i angularsegmentkinematicsdatagram.obj
 0001:00003230       ??1?$_Compressed_pair@U?$_Wrap_alloc@V?$allocator@M@std@@@std@@V?$_Vector_val@U?$_Simple_types@M@std@@@2@$00@std@@QEAA@XZ 0000000140004230 f i angularsegmentkinematicsdatagram.obj
 0001:00003250       ??1?$_Compressed_pair@U?$_Wrap_alloc@V?$allocator@UKinematics@AngularSegmentKinematicsDatagram@@@std@@@std@@V?$_Vector_val@U?$_Simple_types@UKinematics@AngularSegmentKinematicsDatagram@@@std@@@2@$00@std@@QEAA@XZ 0000000140004250 f i angularsegmentkinematicsdatagram.obj
 0001:00003270       ??1?$_Iterator012@Urandom_access_iterator_tag@std@@UKinematics@AngularSegmentKinematicsDatagram@@_JPEBU34@AEBU34@U_Iterator_base12@2@@std@@QEAA@XZ 0000000140004270 f i angularsegmentkinematicsdatagram.obj
 0001:00003290       ??1?$_String_alloc@U?$_String_base_types@DV?$allocator@D@std@@@std@@@std@@QEAA@XZ 0000000140004290 f i angularsegmentkinematicsdatagram.obj
 0001:000032c0       ??1?$_String_val@U?$_Simple_types@D@std@@@std@@QEAA@XZ 00000001400042c0 f i angularsegmentkinematicsdatagram.obj
 0001:000032f0       ??1?$_Vector_alloc@U?$_Vec_base_types@MV?$allocator@M@std@@@std@@@std@@QEAA@XZ 00000001400042f0 f i angularsegmentkinematicsdatagram.obj
 0001:00003320       ??1?$_Vector_alloc@U?$_Vec_base_types@UKinematics@AngularSegmentKinematicsDatagram@@V?$allocator@UKinematics@AngularSegmentKinematicsDatagram@@@std@@@std@@@std@@QEAA@XZ 0000000140004320 f i angularsegmentkinematicsdatagram.obj
 0001:00003350       ??1?$_Vector_const_iterator@V?$_Vector_val@U?$_Simple_types@UKinematics@AngularSegmentKinematicsDatagram@@@std@@@std@@@std@@QEAA@XZ 0000000140004350 f i angularsegmentkinematicsdatagram.obj
 0001:00003370       ??1?$_Vector_val@U?$_Simple_types@M@std@@@std@@QEAA@XZ 0000000140004370 f i angularsegmentkinematicsdatagram.obj
 0001:00003390       ??1?$_Vector_val@U?$_Simple_types@UKinematics@AngularSegmentKinematicsDatagram@@@std@@@std@@QEAA@XZ 0000000140004390 f i angularsegmentkinematicsdatagram.obj
 0001:000033b0       ??1?$basic_string@DU?$char_traits@D@std@@V?$allocator@D@2@@std@@QEAA@XZ 00000001400043b0 f i angularsegmentkinematicsdatagram.obj
 0001:000033f0       ??1?$vector@MV?$allocator@M@std@@@std@@QEAA@XZ 00000001400043f0 f i angularsegmentkinematicsdatagram.obj
 0001:00003420       ??1?$vector@UKinematics@AngularSegmentKinematicsDatagram@@V?$allocator@UKinematics@AngularSegmentKinematicsDatagram@@@std@@@std@@QEAA@XZ 0000000140004420 f i angularsegmentkinematicsdatagram.obj
 0001:00003450       ??1_Bxty@?$_String_val@U?$_Simple_types@D@std@@@std@@QEAA@XZ 0000000140004450 f i angularsegmentkinematicsdatagram.obj
 0001:00003460       ??1_Container_base12@std@@QEAA@XZ 0000000140004460 f i angularsegmentkinematicsdatagram.obj
 0001:00003490       ??1_Iterator_base12@std@@QEAA@XZ 0000000140004490 f i angularsegmentkinematicsdatagram.obj
 0001:000034d0       ??1exception@std@@UEAA@XZ  00000001400044d0 f i angularsegmentkinematicsdatagram.obj
 0001:00003500       ??1runtime_error@std@@UEAA@XZ 0000000140004500 f i angularsegmentkinematicsdatagram.obj
 0001:00003520       ??1stream_info@lsl@@QEAA@XZ 0000000140004520 f i angularsegmentkinematicsdatagram.obj
 0001:00003540       ??1stream_outlet@lsl@@QEAA@XZ 0000000140004540 f i angularsegmentkinematicsdatagram.obj
 0001:00003560       ??2@YAPEAX_KPEAX@Z         0000000140004560 f i angularsegmentkinematicsdatagram.obj
 0001:00003570       ??8?$_Vector_const_iterator@V?$_Vector_val@U?$_Simple_types@UKinematics@AngularSegmentKinematicsDatagram@@@std@@@std@@@std@@QEBA_NAEBV01@@Z 0000000140004570 f i angularsegmentkinematicsdatagram.obj
 0001:000035c0       ??9?$_Vector_const_iterator@V?$_Vector_val@U?$_Simple_types@UKinematics@AngularSegmentKinematicsDatagram@@@std@@@std@@@std@@QEBA_NAEBV01@@Z 00000001400045c0 f i angularsegmentkinematicsdatagram.obj
 0001:00003600       ??A?$vector@MV?$allocator@M@std@@@std@@QEBAAEBM_K@Z 0000000140004600 f i angularsegmentkinematicsdatagram.obj
 0001:000036d0       ??D?$_Vector_const_iterator@V?$_Vector_val@U?$_Simple_types@UKinematics@AngularSegmentKinematicsDatagram@@@std@@@std@@@std@@QEBAAEBUKinematics@AngularSegmentKinematicsDatagram@@XZ 00000001400046d0 f i angularsegmentkinematicsdatagram.obj
 0001:000037d0       ??E?$_Vector_const_iterator@V?$_Vector_val@U?$_Simple_types@UKinematics@AngularSegmentKinematicsDatagram@@@std@@@std@@@std@@QEAAAEAV01@XZ 00000001400047d0 f i angularsegmentkinematicsdatagram.obj
 0001:000038d0       ??_EAngularSegmentKinematicsDatagram@@UEAAPEAXI@Z 00000001400048d0 f i angularsegmentkinematicsdatagram.obj
 0001:000038d0       ??_GAngularSegmentKinematicsDatagram@@UEAAPEAXI@Z 00000001400048d0 f i angularsegmentkinematicsdatagram.obj
 0001:00003910       ??_Gexception@std@@UEAAPEAXI@Z 0000000140004910 f i angularsegmentkinematicsdatagram.obj
 0001:00003910       ??_Eexception@std@@UEAAPEAXI@Z 0000000140004910 f i angularsegmentkinematicsdatagram.obj
 0001:00003950       ??_Eruntime_error@std@@UEAAPEAXI@Z 0000000140004950 f i angularsegmentkinematicsdatagram.obj
 0001:00003950       ??_Gruntime_error@std@@UEAAPEAXI@Z 0000000140004950 f i angularsegmentkinematicsdatagram.obj
 0001:00003990       ?_Adopt@_Iterator_base12@std@@QEAAXPEBU_Container_base12@2@@Z 0000000140004990 f i angularsegmentkinematicsdatagram.obj
 0001:00003a50       ?_Alloc_proxy@?$_String_alloc@U?$_String_base_types@DV?$allocator@D@std@@@std@@@std@@QEAAXXZ 0000000140004a50 f i angularsegmentkinematicsdatagram.obj
 0001:00003b00       ?_Alloc_proxy@?$_Vector_alloc@U?$_Vec_base_types@MV?$allocator@M@std@@@std@@@std@@QEAAXXZ 0000000140004b00 f i angularsegmentkinematicsdatagram.obj
 0001:00003bb0       ?_Alloc_proxy@?$_Vector_alloc@U?$_Vec_base_types@UKinematics@AngularSegmentKinematicsDatagram@@V?$allocator@UKinematics@AngularSegmentKinematicsDatagram@@@std@@@std@@@std@@QEAAXXZ 0000000140004bb0 f i angularsegmentkinematicsdatagram.obj
 0001:00003c60       ?_Allocate@std@@YAPEAX_K0_N@Z 0000000140004c60 f i angularsegmentkinematicsdatagram.obj
 0001:00003e70       ?_Assign_rv@?$vector@MV?$allocator@M@std@@@std@@QEAAX$$QEAV12@U?$integral_constant@_N$00@2@@Z 0000000140004e70 f i angularsegmentkinematicsdatagram.obj
 0001:00003f40       ?_Bx@?$_String_alloc@U?$_String_base_types@DV?$allocator@D@std@@@std@@@std@@QEAAAEAT_Bxty@?$_String_val@U?$_Simple_types@D@std@@@2@XZ 0000000140004f40 f i angularsegmentkinematicsdatagram.obj
 0001:00003f60       ?_Check_offset@?$basic_string@DU?$char_traits@D@std@@V?$allocator@D@2@@std@@QEBAX_K@Z 0000000140004f60 f i angularsegmentkinematicsdatagram.obj
 0001:00003fa0       ?_Clamp_suffix_size@?$basic_string@DU?$char_traits@D@std@@V?$allocator@D@2@@std@@QEBA_K_K0@Z 0000000140004fa0 f i angularsegmentkinematicsdatagram.obj
 0001:00003ff0       ?_Clrcont@_Iterator_base12@std@@QEAAXXZ 0000000140004ff0 f i angularsegmentkinematicsdatagram.obj
 0001:00004010       ?_Compat@?$_Vector_const_iterator@V?$_Vector_val@U?$_Simple_types@UKinematics@AngularSegmentKinematicsDatagram@@@std@@@std@@@std@@QEBAXAEBV12@@Z 0000000140005010 f i angularsegmentkinematicsdatagram.obj
 0001:000040e0       ?_Copy@?$basic_string@DU?$char_traits@D@std@@V?$allocator@D@2@@std@@QEAAX_K0@Z 00000001400050e0 f i angularsegmentkinematicsdatagram.obj
 0001:00004310       ?_Deallocate@std@@YAXPEAX_K1@Z 0000000140005310 f i angularsegmentkinematicsdatagram.obj
 0001:000046d0       ?_Destroy@?$vector@MV?$allocator@M@std@@@std@@IEAAXPEAM0@Z 00000001400056d0 f i angularsegmentkinematicsdatagram.obj
 0001:00004710       ?_Destroy@?$vector@UKinematics@AngularSegmentKinematicsDatagram@@V?$allocator@UKinematics@AngularSegmentKinematicsDatagram@@@std@@@std@@IEAAXPEAUKinematics@AngularSegmentKinematicsDatagram@@0@Z 0000000140005710 f i angularsegmentkinematicsdatagram.obj
 0001:00004750       ?_Eos@?$basic_string@DU?$char_traits@D@std@@V?$allocator@D@2@@std@@QEAAX_K@Z 0000000140005750 f i angularsegmentkinematicsdatagram.obj
 0001:000047b0       ?_Free_proxy@?$_String_alloc@U?$_String_base_types@DV?$allocator@D@std@@@std@@@std@@QEAAXXZ 00000001400057b0 f i angularsegmentkinematicsdatagram.obj
 0001:00004840       ?_Free_proxy@?$_Vector_alloc@U?$_Vec_base_types@MV?$allocator@M@std@@@std@@@std@@QEAAXXZ 0000000140005840 f i angularsegmentkinematicsdatagram.obj
 0001:000048d0       ?_Free_proxy@?$_Vector_alloc@U?$_Vec_base_types@UKinematics@AngularSegmentKinematicsDatagram@@V?$allocator@UKinematics@AngularSegmentKinematicsDatagram@@@std@@@std@@@std@@QEAAXXZ 00000001400058d0 f i angularsegmentkinematicsdatagram.obj
 0001:00004960       ?_Get_data@?$_String_alloc@U?$_String_base_types@DV?$allocator@D@std@@@std@@@std@@QEAAAEAV?$_String_val@U?$_Simple_types@D@std@@@2@XZ 0000000140005960 f i angularsegmentkinematicsdatagram.obj
 0001:00004980       ?_Get_data@?$_String_alloc@U?$_String_base_types@DV?$allocator@D@std@@@std@@@std@@QEBAAEBV?$_String_val@U?$_Simple_types@D@std@@@2@XZ 0000000140005980 f i angularsegmentkinematicsdatagram.obj
 0001:000049a0       ?_Get_data@?$_Vector_alloc@U?$_Vec_base_types@MV?$allocator@M@std@@@std@@@std@@QEAAAEAV?$_Vector_val@U?$_Simple_types@M@std@@@2@XZ 00000001400059a0 f i angularsegmentkinematicsdatagram.obj
 0001:000049c0       ?_Get_data@?$_Vector_alloc@U?$_Vec_base_types@MV?$allocator@M@std@@@std@@@std@@QEBAAEBV?$_Vector_val@U?$_Simple_types@M@std@@@2@XZ 00000001400059c0 f i angularsegmentkinematicsdatagram.obj
 0001:000049e0       ?_Get_data@?$_Vector_alloc@U?$_Vec_base_types@UKinematics@AngularSegmentKinematicsDatagram@@V?$allocator@UKinematics@AngularSegmentKinematicsDatagram@@@std@@@std@@@std@@QEAAAEAV?$_Vector_val@U?$_Simple_types@UKinematics@AngularSegmentKinematicsDatagram@@@std@@@2@XZ 00000001400059e0 f i angularsegmentkinematicsdatagram.obj
 0001:00004a00       ?_Get_data@?$_Vector_alloc@U?$_Vec_base_types@UKinematics@AngularSegmentKinematicsDatagram@@V?$allocator@UKinematics@AngularSegmentKinematicsDatagram@@@std@@@std@@@std@@QEBAAEBV?$_Vector_val@U?$_Simple_types@UKinematics@AngularSegmentKinematicsDatagram@@@std@@@2@XZ 0000000140005a00 f i angularsegmentkinematicsdatagram.obj
 0001:00004a20       ?_Get_first@?$_Compressed_pair@U?$_Wrap_alloc@V?$allocator@D@std@@@std@@V?$_String_val@U?$_Simple_types@D@std@@@2@$00@std@@QEAAAEAU?$_Wrap_alloc@V?$allocator@D@std@@@2@XZ 0000000140005a20 f i angularsegmentkinematicsdatagram.obj
 0001:00004a30       ?_Get_first@?$_Compressed_pair@U?$_Wrap_alloc@V?$allocator@D@std@@@std@@V?$_String_val@U?$_Simple_types@D@std@@@2@$00@std@@QEBAAEBU?$_Wrap_alloc@V?$allocator@D@std@@@2@XZ 0000000140005a30 f i angularsegmentkinematicsdatagram.obj
 0001:00004a40       ?_Get_first@?$_Compressed_pair@U?$_Wrap_alloc@V?$allocator@M@std@@@std@@V?$_Vector_val@U?$_Simple_types@M@std@@@2@$00@std@@QEAAAEAU?$_Wrap_alloc@V?$allocator@M@std@@@2@XZ 0000000140005a40 f i angularsegmentkinematicsdatagram.obj
 0001:00004a50       ?_Get_first@?$_Compressed_pair@U?$_Wrap_alloc@V?$allocator@M@std@@@std@@V?$_Vector_val@U?$_Simple_types@M@std@@@2@$00@std@@QEBAAEBU?$_Wrap_alloc@V?$allocator@M@std@@@2@XZ 0000000140005a50 f i angularsegmentkinematicsdatagram.obj
 0001:00004a60       ?_Get_first@?$_Compressed_pair@U?$_Wrap_alloc@V?$allocator@UKinematics@AngularSegmentKinematicsDatagram@@@std@@@std@@V?$_Vector_val@U?$_Simple_types@UKinematics@AngularSegmentKinematicsDatagram@@@std@@@2@$00@std@@QEAAAEAU?$_Wrap_alloc@V?$allocator@UKinematics@AngularSegmentKinematicsDatagram@@@std@@@2@XZ 0000000140005a60 f i angularsegmentkinematicsdatagram.obj
 0001:00004a70       ?_Get_first@?$_Compressed_pair@U?$_Wrap_alloc@V?$allocator@UKinematics@AngularSegmentKinematicsDatagram@@@std@@@std@@V?$_Vector_val@U?$_Simple_types@UKinematics@AngularSegmentKinematicsDatagram@@@std@@@2@$00@std@@QEBAAEBU?$_Wrap_alloc@V?$allocator@UKinematics@AngularSegmentKinematicsDatagram@@@std@@@2@XZ 0000000140005a70 f i angularsegmentkinematicsdatagram.obj
 0001:00004a80       ?_Get_second@?$_Compressed_pair@U?$_Wrap_alloc@V?$allocator@D@std@@@std@@V?$_String_val@U?$_Simple_types@D@std@@@2@$00@std@@QEAAAEAV?$_String_val@U?$_Simple_types@D@std@@@2@XZ 0000000140005a80 f i angularsegmentkinematicsdatagram.obj
 0001:00004a90       ?_Get_second@?$_Compressed_pair@U?$_Wrap_alloc@V?$allocator@D@std@@@std@@V?$_String_val@U?$_Simple_types@D@std@@@2@$00@std@@QEBAAEBV?$_String_val@U?$_Simple_types@D@std@@@2@XZ 0000000140005a90 f i angularsegmentkinematicsdatagram.obj
 0001:00004aa0       ?_Get_second@?$_Compressed_pair@U?$_Wrap_alloc@V?$allocator@M@std@@@std@@V?$_Vector_val@U?$_Simple_types@M@std@@@2@$00@std@@QEAAAEAV?$_Vector_val@U?$_Simple_types@M@std@@@2@XZ 0000000140005aa0 f i angularsegmentkinematicsdatagram.obj
 0001:00004ab0       ?_Get_second@?$_Compressed_pair@U?$_Wrap_alloc@V?$allocator@M@std@@@std@@V?$_Vector_val@U?$_Simple_types@M@std@@@2@$00@std@@QEBAAEBV?$_Vector_val@U?$_Simple_types@M@std@@@2@XZ 0000000140005ab0 f i angularsegmentkinematicsdatagram.obj
 0001:00004ac0       ?_Get_second@?$_Compressed_pair@U?$_Wrap_alloc@V?$allocator@UKinematics@AngularSegmentKinematicsDatagram@@@std@@@std@@V?$_Vector_val@U?$_Simple_types@UKinematics@AngularSegmentKinematicsDatagram@@@std@@@2@$00@std@@QEAAAEAV?$_Vector_val@U?$_Simple_types@UKinematics@AngularSegmentKinematicsDatagram@@@std@@@2@XZ 0000000140005ac0 f i angularsegmentkinematicsdatagram.obj
 0001:00004ad0       ?_Get_second@?$_Compressed_pair@U?$_Wrap_alloc@V?$allocator@UKinematics@AngularSegmentKinematicsDatagram@@@std@@@std@@V?$_Vector_val@U?$_Simple_types@UKinematics@AngularSegmentKinematicsDatagram@@@std@@@2@$00@std@@QEBAAEBV?$_Vector_val@U?$_Simple_types@UKinematics@AngularSegmentKinematicsDatagram@@@std@@@2@XZ 0000000140005ad0 f i angularsegmentkinematicsdatagram.obj
 0001:00004ae0       ?_Getal@?$_String_alloc@U?$_String_base_types@DV?$allocator@D@std@@@std@@@std@@QEAAAEAU?$_Wrap_alloc@V?$allocator@D@std@@@2@XZ 0000000140005ae0 f i angularsegmentkinematicsdatagram.obj
 0001:00004b00       ?_Getal@?$_String_alloc@U?$_String_base_types@DV?$allocator@D@std@@@std@@@std@@QEBAAEBU?$_Wrap_alloc@V?$allocator@D@std@@@2@XZ 0000000140005b00 f i angularsegmentkinematicsdatagram.obj
 0001:00004b20       ?_Getal@?$_Vector_alloc@U?$_Vec_base_types@MV?$allocator@M@std@@@std@@@std@@QEAAAEAU?$_Wrap_alloc@V?$allocator@M@std@@@2@XZ 0000000140005b20 f i angularsegmentkinematicsdatagram.obj
 0001:00004b40       ?_Getal@?$_Vector_alloc@U?$_Vec_base_types@MV?$allocator@M@std@@@std@@@std@@QEBAAEBU?$_Wrap_alloc@V?$allocator@M@std@@@2@XZ 0000000140005b40 f i angularsegmentkinematicsdatagram.obj
 0001:00004b60       ?_Getal@?$_Vector_alloc@U?$_Vec_base_types@UKinematics@AngularSegmentKinematicsDatagram@@V?$allocator@UKinematics@AngularSegmentKinematicsDatagram@@@std@@@std@@@std@@QEAAAEAU?$_Wrap_alloc@V?$allocator@UKinematics@AngularSegmentKinematicsDatagram@@@std@@@2@XZ 0000000140005b60 f i angularsegmentkinematicsdatagram.obj
 0001:00004b80       ?_Getal@?$_Vector_alloc@U?$_Vec_base_types@UKinematics@AngularSegmentKinematicsDatagram@@V?$allocator@UKinematics@AngularSegmentKinematicsDatagram@@@std@@@std@@@std@@QEBAAEBU?$_Wrap_alloc@V?$allocator@UKinematics@AngularSegmentKinematicsDatagram@@@std@@@2@XZ 0000000140005b80 f i angularsegmentkinematicsdatagram.obj
 0001:00004ba0       ?_Getcont@_Iterator_base12@std@@QEBAPEBU_Container_base12@2@XZ 0000000140005ba0 f i angularsegmentkinematicsdatagram.obj
 0001:00004be0       ?_Getpfirst@?$_Vector_alloc@U?$_Vec_base_types@MV?$allocator@M@std@@@std@@@std@@QEBAPEAPEAU_Iterator_base12@2@XZ 0000000140005be0 f i angularsegmentkinematicsdatagram.obj
 0001:00004c00       ?_Getpfirst@?$_Vector_alloc@U?$_Vec_base_types@UKinematics@AngularSegmentKinematicsDatagram@@V?$allocator@UKinematics@AngularSegmentKinematicsDatagram@@@std@@@std@@@std@@QEBAPEAPEAU_Iterator_base12@2@XZ 0000000140005c00 f i angularsegmentkinematicsdatagram.obj
 0001:00004c20       ?_Getpfirst@_Container_base12@std@@QEBAPEAPEAU_Iterator_base12@2@XZ 0000000140005c20 f i angularsegmentkinematicsdatagram.obj
 0001:00004c60       ?_Getpnext@_Iterator_base12@std@@QEAAPEAPEAU12@XZ 0000000140005c60 f i angularsegmentkinematicsdatagram.obj
 0001:00004c70       ?_Grow@?$basic_string@DU?$char_traits@D@std@@V?$allocator@D@2@@std@@QEAA_N_K_N@Z 0000000140005c70 f i angularsegmentkinematicsdatagram.obj
 0001:00004d60       ?_Grow_to@?$vector@MV?$allocator@M@std@@@std@@IEBA_K_K@Z 0000000140005d60 f i angularsegmentkinematicsdatagram.obj
 0001:00004e10       ?_Grow_to@?$vector@UKinematics@AngularSegmentKinematicsDatagram@@V?$allocator@UKinematics@AngularSegmentKinematicsDatagram@@@std@@@std@@IEBA_K_K@Z 0000000140005e10 f i angularsegmentkinematicsdatagram.obj
 0001:00004ec0       ?_Inside@?$basic_string@DU?$char_traits@D@std@@V?$allocator@D@2@@std@@QEAA_NPEBD@Z 0000000140005ec0 f i angularsegmentkinematicsdatagram.obj
 0001:00004f20       ?_Inside@?$vector@MV?$allocator@M@std@@@std@@IEBA_NPEBM@Z 0000000140005f20 f i angularsegmentkinematicsdatagram.obj
 0001:00004f80       ?_Inside@?$vector@UKinematics@AngularSegmentKinematicsDatagram@@V?$allocator@UKinematics@AngularSegmentKinematicsDatagram@@@std@@@std@@IEBA_NPEBUKinematics@AngularSegmentKinematicsDatagram@@@Z 0000000140005f80 f i angularsegmentkinematicsdatagram.obj
 0001:00004fe0       ?_Myend@?$_Vector_alloc@U?$_Vec_base_types@MV?$allocator@M@std@@@std@@@std@@QEAAAEAPEAMXZ 0000000140005fe0 f i angularsegmentkinematicsdatagram.obj
 0001:00005000       ?_Myend@?$_Vector_alloc@U?$_Vec_base_types@MV?$allocator@M@std@@@std@@@std@@QEBAAEBQEAMXZ 0000000140006000 f i angularsegmentkinematicsdatagram.obj
 0001:00005020       ?_Myend@?$_Vector_alloc@U?$_Vec_base_types@UKinematics@AngularSegmentKinematicsDatagram@@V?$allocator@UKinematics@AngularSegmentKinematicsDatagram@@@std@@@std@@@std@@QEAAAEAPEAUKinematics@AngularSegmentKinematicsDatagram@@XZ 0000000140006020 f i angularsegmentkinematicsdatagram.obj
 0001:00005040       ?_Myend@?$_Vector_alloc@U?$_Vec_base_types@UKinematics@AngularSegmentKinematicsDatagram@@V?$allocator@UKinematics@AngularSegmentKinematicsDatagram@@@std@@@std@@@std@@QEBAAEBQEAUKinematics@AngularSegmentKinematicsDatagram@@XZ 0000000140006040 f i angularsegmentkinematicsdatagram.obj
 0001:00005060       ?_Myfirst@?$_Vector_alloc@U?$_Vec_base_types@MV?$allocator@M@std@@@std@@@std@@QEAAAEAPEAMXZ 0000000140006060 f i angularsegmentkinematicsdatagram.obj
 0001:00005080       ?_Myfirst@?$_Vector_alloc@U?$_Vec_base_types@MV?$allocator@M@std@@@std@@@std@@QEBAAEBQEAMXZ 0000000140006080 f i angularsegmentkinematicsdatagram.obj
 0001:000050a0       ?_Myfirst@?$_Vector_alloc@U?$_Vec_base_types@UKinematics@AngularSegmentKinematicsDatagram@@V?$allocator@UKinematics@AngularSegmentKinematicsDatagram@@@std@@@std@@@std@@QEAAAEAPEAUKinematics@AngularSegmentKinematicsDatagram@@XZ 00000001400060a0 f i angularsegmentkinematicsdatagram.obj
 0001:000050c0       ?_Myfirst@?$_Vector_alloc@U?$_Vec_base_types@UKinematics@AngularSegmentKinematicsDatagram@@V?$allocator@UKinematics@AngularSegmentKinematicsDatagram@@@std@@@std@@@std@@QEBAAEBQEAUKinematics@AngularSegmentKinematicsDatagram@@XZ 00000001400060c0 f i angularsegmentkinematicsdatagram.obj
 0001:000050e0       ?_Mylast@?$_Vector_alloc@U?$_Vec_base_types@MV?$allocator@M@std@@@std@@@std@@QEAAAEAPEAMXZ 00000001400060e0 f i angularsegmentkinematicsdatagram.obj
 0001:00005100       ?_Mylast@?$_Vector_alloc@U?$_Vec_base_types@MV?$allocator@M@std@@@std@@@std@@QEBAAEBQEAMXZ 0000000140006100 f i angularsegmentkinematicsdatagram.obj
 0001:00005120       ?_Mylast@?$_Vector_alloc@U?$_Vec_base_types@UKinematics@AngularSegmentKinematicsDatagram@@V?$allocator@UKinematics@AngularSegmentKinematicsDatagram@@@std@@@std@@@std@@QEAAAEAPEAUKinematics@AngularSegmentKinematicsDatagram@@XZ 0000000140006120 f i angularsegmentkinematicsdatagram.obj
 0001:00005140       ?_Mylast@?$_Vector_alloc@U?$_Vec_base_types@UKinematics@AngularSegmentKinematicsDatagram@@V?$allocator@UKinematics@AngularSegmentKinematicsDatagram@@@std@@@std@@@std@@QEBAAEBQEAUKinematics@AngularSegmentKinematicsDatagram@@XZ 0000000140006140 f i angularsegmentkinematicsdatagram.obj
 0001:00005160       ?_Myproxy@?$_String_alloc@U?$_String_base_types@DV?$allocator@D@std@@@std@@@std@@QEAAAEAPEAU_Container_proxy@2@XZ 0000000140006160 f i angularsegmentkinematicsdatagram.obj
 0001:00005180       ?_Myproxy@?$_Vector_alloc@U?$_Vec_base_types@MV?$allocator@M@std@@@std@@@std@@QEAAAEAPEAU_Container_proxy@2@XZ 0000000140006180 f i angularsegmentkinematicsdatagram.obj
 0001:000051a0       ?_Myproxy@?$_Vector_alloc@U?$_Vec_base_types@UKinematics@AngularSegmentKinematicsDatagram@@V?$allocator@UKinematics@AngularSegmentKinematicsDatagram@@@std@@@std@@@std@@QEAAAEAPEAU_Container_proxy@2@XZ 00000001400061a0 f i angularsegmentkinematicsdatagram.obj
 0001:000051c0       ?_Myptr@?$_String_alloc@U?$_String_base_types@DV?$allocator@D@std@@@std@@@std@@QEAAPEADXZ 00000001400061c0 f i angularsegmentkinematicsdatagram.obj
 0001:000051e0       ?_Myptr@?$_String_alloc@U?$_String_base_types@DV?$allocator@D@std@@@std@@@std@@QEBAPEBDXZ 00000001400061e0 f i angularsegmentkinematicsdatagram.obj
 0001:00005200       ?_Myptr@?$_String_val@U?$_Simple_types@D@std@@@std@@QEAAPEADXZ 0000000140006200 f i angularsegmentkinematicsdatagram.obj
 0001:00005250       ?_Myptr@?$_String_val@U?$_Simple_types@D@std@@@std@@QEBAPEBDXZ 0000000140006250 f i angularsegmentkinematicsdatagram.obj
 0001:000052a0       ?_Myres@?$_String_alloc@U?$_String_base_types@DV?$allocator@D@std@@@std@@@std@@QEAAAEA_KXZ 00000001400062a0 f i angularsegmentkinematicsdatagram.obj
 0001:000052c0       ?_Mysize@?$_String_alloc@U?$_String_base_types@DV?$allocator@D@std@@@std@@@std@@QEAAAEA_KXZ 00000001400062c0 f i angularsegmentkinematicsdatagram.obj
 0001:000052e0       ?_Mysize@?$_String_alloc@U?$_String_base_types@DV?$allocator@D@std@@@std@@@std@@QEBAAEB_KXZ 00000001400062e0 f i angularsegmentkinematicsdatagram.obj
 0001:00005300       ?_Orphan_all@?$_String_alloc@U?$_String_base_types@DV?$allocator@D@std@@@std@@@std@@QEAAXXZ 0000000140006300 f i angularsegmentkinematicsdatagram.obj
 0001:00005320       ?_Orphan_all@?$_Vector_alloc@U?$_Vec_base_types@MV?$allocator@M@std@@@std@@@std@@QEAAXXZ 0000000140006320 f i angularsegmentkinematicsdatagram.obj
 0001:00005340       ?_Orphan_all@?$_Vector_alloc@U?$_Vec_base_types@UKinematics@AngularSegmentKinematicsDatagram@@V?$allocator@UKinematics@AngularSegmentKinematicsDatagram@@@std@@@std@@@std@@QEAAXXZ 0000000140006340 f i angularsegmentkinematicsdatagram.obj
 0001:00005360       ?_Orphan_all@_Container_base12@std@@QEAAXXZ 0000000140006360 f i angularsegmentkinematicsdatagram.obj
 0001:000053f0       ?_Orphan_me@_Iterator_base12@std@@QEAAXXZ 00000001400063f0 f i angularsegmentkinematicsdatagram.obj
 0001:00005490       ?_Orphan_range@?$vector@MV?$allocator@M@std@@@std@@IEBAXPEAM0@Z 0000000140006490 f i angularsegmentkinematicsdatagram.obj
 0001:00005550       ?_Orphan_range@?$vector@UKinematics@AngularSegmentKinematicsDatagram@@V?$allocator@UKinematics@AngularSegmentKinematicsDatagram@@@std@@@std@@IEBAXPEAUKinematics@AngularSegmentKinematicsDatagram@@0@Z 0000000140006550 f i angularsegmentkinematicsdatagram.obj
 0001:00005610       ?_Reallocate@?$vector@MV?$allocator@M@std@@@std@@IEAAX_K@Z 0000000140006610 f i angularsegmentkinematicsdatagram.obj
 0001:000057d0       ?_Reallocate@?$vector@UKinematics@AngularSegmentKinematicsDatagram@@V?$allocator@UKinematics@AngularSegmentKinematicsDatagram@@@std@@@std@@IEAAX_K@Z 00000001400067d0 f i angularsegmentkinematicsdatagram.obj
 0001:000059a0       ?_Reserve@?$vector@MV?$allocator@M@std@@@std@@IEAAX_K@Z 00000001400069a0 f i angularsegmentkinematicsdatagram.obj
 0001:00005a30       ?_Reserve@?$vector@UKinematics@AngularSegmentKinematicsDatagram@@V?$allocator@UKinematics@AngularSegmentKinematicsDatagram@@@std@@@std@@IEAAX_K@Z 0000000140006a30 f i angularsegmentkinematicsdatagram.obj
 0001:00005ac0       ?_Swap_all@?$_Vector_alloc@U?$_Vec_base_types@MV?$allocator@M@std@@@std@@@std@@QEAAXAEAV12@@Z 0000000140006ac0 f i angularsegmentkinematicsdatagram.obj
 0001:00005b00       ?_Swap_all@_Container_base12@std@@QEAAXAEAU12@@Z 0000000140006b00 f i angularsegmentkinematicsdatagram.obj
 0001:00005b90       ?_Tidy@?$basic_string@DU?$char_traits@D@std@@V?$allocator@D@2@@std@@QEAAX_N_K@Z 0000000140006b90 f i angularsegmentkinematicsdatagram.obj
 0001:00005ca0       ?_Tidy@?$vector@MV?$allocator@M@std@@@std@@IEAAXXZ 0000000140006ca0 f i angularsegmentkinematicsdatagram.obj
 0001:00005da0       ?_Tidy@?$vector@UKinematics@AngularSegmentKinematicsDatagram@@V?$allocator@UKinematics@AngularSegmentKinematicsDatagram@@@std@@@std@@IEAAXXZ 0000000140006da0 f i angularsegmentkinematicsdatagram.obj
 0001:00005ea0       ?_Unused_capacity@?$vector@MV?$allocator@M@std@@@std@@QEBA_KXZ 0000000140006ea0 f i angularsegmentkinematicsdatagram.obj
 0001:00005ee0       ?_Unused_capacity@?$vector@UKinematics@AngularSegmentKinematicsDatagram@@V?$allocator@UKinematics@AngularSegmentKinematicsDatagram@@@std@@@std@@QEBA_KXZ 0000000140006ee0 f i angularsegmentkinematicsdatagram.obj
 0001:00005f30       ?_Xlen@?$basic_string@DU?$char_traits@D@std@@V?$allocator@D@2@@std@@QEBAXXZ 0000000140006f30 f i angularsegmentkinematicsdatagram.obj
 0001:00005f50       ?_Xlen@?$vector@MV?$allocator@M@std@@@std@@IEBAXXZ 0000000140006f50 f i angularsegmentkinematicsdatagram.obj
 0001:00005f70       ?_Xlen@?$vector@UKinematics@AngularSegmentKinematicsDatagram@@V?$allocator@UKinematics@AngularSegmentKinematicsDatagram@@@std@@@std@@IEBAXXZ 0000000140006f70 f i angularsegmentkinematicsdatagram.obj
 0001:00005f90       ?_Xran@?$basic_string@DU?$char_traits@D@std@@V?$allocator@D@2@@std@@QEBAXXZ 0000000140006f90 f i angularsegmentkinematicsdatagram.obj
 0001:00005fb0       ?__empty_global_delete@@YAXPEAX@Z 0000000140006fb0 f i angularsegmentkinematicsdatagram.obj
 0001:00005fc0       ?__empty_global_delete@@YAXPEAX_K@Z 0000000140006fc0 f i angularsegmentkinematicsdatagram.obj
 0001:00005fc0       ?__global_delete@@YAXPEAX_K@Z 0000000140006fc0 f i angularsegmentkinematicsdatagram.obj
 0001:00005fd0       ?address@?$_Wrap_alloc@V?$allocator@U_Container_proxy@std@@@std@@@std@@QEBAPEAU_Container_proxy@2@AEAU32@@Z 0000000140006fd0 f i angularsegmentkinematicsdatagram.obj
 0001:00005ff0       ?allocate@?$_Wrap_alloc@V?$allocator@D@std@@@std@@QEAAPEAD_K@Z 0000000140006ff0 f i angularsegmentkinematicsdatagram.obj
 0001:00006020       ?allocate@?$_Wrap_alloc@V?$allocator@M@std@@@std@@QEAAPEAM_K@Z 0000000140007020 f i angularsegmentkinematicsdatagram.obj
 0001:00006050       ?allocate@?$_Wrap_alloc@V?$allocator@UKinematics@AngularSegmentKinematicsDatagram@@@std@@@std@@QEAAPEAUKinematics@AngularSegmentKinematicsDatagram@@_K@Z 0000000140007050 f i angularsegmentkinematicsdatagram.obj
 0001:00006080       ?allocate@?$_Wrap_alloc@V?$allocator@U_Container_proxy@std@@@std@@@std@@QEAAPEAU_Container_proxy@2@_K@Z 0000000140007080 f i angularsegmentkinematicsdatagram.obj
 0001:000060b0       ?allocate@?$allocator@D@std@@QEAAPEAD_K@Z 00000001400070b0 f i angularsegmentkinematicsdatagram.obj
 0001:000060e0       ?allocate@?$allocator@M@std@@QEAAPEAM_K@Z 00000001400070e0 f i angularsegmentkinematicsdatagram.obj
 0001:00006110       ?allocate@?$allocator@UKinematics@AngularSegmentKinematicsDatagram@@@std@@QEAAPEAUKinematics@AngularSegmentKinematicsDatagram@@_K@Z 0000000140007110 f i angularsegmentkinematicsdatagram.obj
 0001:00006140       ?allocate@?$allocator@U_Container_proxy@std@@@std@@QEAAPEAU_Container_proxy@2@_K@Z 0000000140007140 f i angularsegmentkinematicsdatagram.obj
 0001:00006170       ?assign@?$basic_string@DU?$char_traits@D@std@@V?$allocator@D@2@@std@@QEAAAEAV12@AEBV12@_K1@Z 0000000140007170 f i angularsegmentkinematicsdatagram.obj
 0001:00006260       ?assign@?$basic_string@DU?$char_traits@D@std@@V?$allocator@D@2@@std@@QEAAAEAV12@PEBD@Z 0000000140007260 f i angularsegmentkinematicsdatagram.obj
 0001:000062b0       ?assign@?$basic_string@DU?$char_traits@D@std@@V?$allocator@D@2@@std@@QEAAAEAV12@PEBD_K@Z 00000001400072b0 f i angularsegmentkinematicsdatagram.obj
 0001:00006390       ?assign@?$char_traits@D@std@@SAXAEADAEBD@Z 0000000140007390 f i angularsegmentkinematicsdatagram.obj
 0001:000063b0       ?begin@?$vector@UKinematics@AngularSegmentKinematicsDatagram@@V?$allocator@UKinematics@AngularSegmentKinematicsDatagram@@@std@@@std@@QEBA?AV?$_Vector_const_iterator@V?$_Vector_val@U?$_Simple_types@UKinematics@AngularSegmentKinematicsDatagram@@@std@@@std@@@2@XZ 00000001400073b0 f i angularsegmentkinematicsdatagram.obj
 0001:00006410       ?c_str@?$basic_string@DU?$char_traits@D@std@@V?$allocator@D@2@@std@@QEBAPEBDXZ 0000000140007410 f i angularsegmentkinematicsdatagram.obj
 0001:00006440       ?capacity@?$vector@MV?$allocator@M@std@@@std@@QEBA_KXZ 0000000140007440 f i angularsegmentkinematicsdatagram.obj
 0001:00006480       ?capacity@?$vector@UKinematics@AngularSegmentKinematicsDatagram@@V?$allocator@UKinematics@AngularSegmentKinematicsDatagram@@@std@@@std@@QEBA_KXZ 0000000140007480 f i angularsegmentkinematicsdatagram.obj
 0001:000064d0       ?channel_count@stream_info@lsl@@QEBAHXZ 00000001400074d0 f i angularsegmentkinematicsdatagram.obj
 0001:000064f0       ?check_numchan@stream_outlet@lsl@@AEBAX_K@Z 00000001400074f0 f i angularsegmentkinematicsdatagram.obj
 0001:00006540       ?copy@?$char_traits@D@std@@SAPEADPEADPEBD_K@Z 0000000140007540 f i angularsegmentkinematicsdatagram.obj
 0001:00006590       ?deallocate@?$_Wrap_alloc@V?$allocator@D@std@@@std@@QEAAXPEAD_K@Z 0000000140007590 f i angularsegmentkinematicsdatagram.obj
 0001:000065c0       ?deallocate@?$_Wrap_alloc@V?$allocator@M@std@@@std@@QEAAXPEAM_K@Z 00000001400075c0 f i angularsegmentkinematicsdatagram.obj
 0001:000065f0       ?deallocate@?$_Wrap_alloc@V?$allocator@UKinematics@AngularSegmentKinematicsDatagram@@@std@@@std@@QEAAXPEAUKinematics@AngularSegmentKinematicsDatagram@@_K@Z 00000001400075f0 f i angularsegmentkinematicsdatagram.obj
 0001:00006620       ?deallocate@?$_Wrap_alloc@V?$allocator@U_Container_proxy@std@@@std@@@std@@QEAAXPEAU_Container_proxy@2@_K@Z 0000000140007620 f i angularsegmentkinematicsdatagram.obj
 0001:00006650       ?deallocate@?$allocator@D@std@@QEAAXPEAD_K@Z 0000000140007650 f i angularsegmentkinematicsdatagram.obj
 0001:00006680       ?deallocate@?$allocator@M@std@@QEAAXPEAM_K@Z 0000000140007680 f i angularsegmentkinematicsdatagram.obj
 0001:000066b0       ?deallocate@?$allocator@UKinematics@AngularSegmentKinematicsDatagram@@@std@@QEAAXPEAUKinematics@AngularSegmentKinematicsDatagram@@_K@Z 00000001400076b0 f i angularsegmentkinematicsdatagram.obj
 0001:000066e0       ?deallocate@?$allocator@U_Container_proxy@std@@@std@@QEAAXPEAU_Container_proxy@2@_K@Z 00000001400076e0 f i angularsegmentkinematicsdatagram.obj
 0001:00006710       ?end@?$vector@UKinematics@AngularSegmentKinematicsDatagram@@V?$allocator@UKinematics@AngularSegmentKinematicsDatagram@@@std@@@std@@QEBA?AV?$_Vector_const_iterator@V?$_Vector_val@U?$_Simple_types@UKinematics@AngularSegmentKinematicsDatagram@@@std@@@std@@@2@XZ 0000000140007710 f i angularsegmentkinematicsdatagram.obj
 0001:00006770       ?erase@?$basic_string@DU?$char_traits@D@std@@V?$allocator@D@2@@std@@QEAAAEAV12@_K0@Z 0000000140007770 f i angularsegmentkinematicsdatagram.obj
 0001:00006840       ?erase@?$basic_string@DU?$char_traits@D@std@@V?$allocator@D@2@@std@@QEAAAEAV12@_K@Z 0000000140007840 f i angularsegmentkinematicsdatagram.obj
 0001:00006880       ?handle@stream_info@lsl@@QEBAPEAUlsl_streaminfo_struct_@2@XZ 0000000140007880 f i angularsegmentkinematicsdatagram.obj
 0001:00006890       ?length@?$char_traits@D@std@@SA_KPEBD@Z 0000000140007890 f i angularsegmentkinematicsdatagram.obj
 0001:000068d0       ?max_size@?$_Wrap_alloc@V?$allocator@D@std@@@std@@QEBA_KU_Nil@2@@Z 00000001400078d0 f i angularsegmentkinematicsdatagram.obj
 0001:000068f0       ?max_size@?$_Wrap_alloc@V?$allocator@M@std@@@std@@QEBA_KU_Nil@2@@Z 00000001400078f0 f i angularsegmentkinematicsdatagram.obj
 0001:00006910       ?max_size@?$_Wrap_alloc@V?$allocator@UKinematics@AngularSegmentKinematicsDatagram@@@std@@@std@@QEBA_KU_Nil@2@@Z 0000000140007910 f i angularsegmentkinematicsdatagram.obj
 0001:00006930       ?max_size@?$allocator@D@std@@QEBA_KXZ 0000000140007930 f i angularsegmentkinematicsdatagram.obj
 0001:00006940       ?max_size@?$allocator@M@std@@QEBA_KXZ 0000000140007940 f i angularsegmentkinematicsdatagram.obj
 0001:00006950       ?max_size@?$allocator@UKinematics@AngularSegmentKinematicsDatagram@@@std@@QEBA_KXZ 0000000140007950 f i angularsegmentkinematicsdatagram.obj
 0001:00006960       ?max_size@?$allocator_traits@V?$allocator@D@std@@@std@@SA_KAEBV?$allocator@D@2@@Z 0000000140007960 f i angularsegmentkinematicsdatagram.obj
 0001:00006980       ?max_size@?$allocator_traits@V?$allocator@M@std@@@std@@SA_KAEBV?$allocator@M@2@@Z 0000000140007980 f i angularsegmentkinematicsdatagram.obj
 0001:000069a0       ?max_size@?$allocator_traits@V?$allocator@UKinematics@AngularSegmentKinematicsDatagram@@@std@@@std@@SA_KAEBV?$allocator@UKinematics@AngularSegmentKinematicsDatagram@@@2@@Z 00000001400079a0 f i angularsegmentkinematicsdatagram.obj
 0001:000069c0       ?max_size@?$basic_string@DU?$char_traits@D@std@@V?$allocator@D@2@@std@@QEBA_KXZ 00000001400079c0 f i angularsegmentkinematicsdatagram.obj
 0001:00006a10       ?max_size@?$vector@MV?$allocator@M@std@@@std@@QEBA_KXZ 0000000140007a10 f i angularsegmentkinematicsdatagram.obj
 0001:00006a40       ?max_size@?$vector@UKinematics@AngularSegmentKinematicsDatagram@@V?$allocator@UKinematics@AngularSegmentKinematicsDatagram@@@std@@@std@@QEBA_KXZ 0000000140007a40 f i angularsegmentkinematicsdatagram.obj
 0001:00006a70       ?move@?$char_traits@D@std@@SAPEADPEADPEBD_K@Z 0000000140007a70 f i angularsegmentkinematicsdatagram.obj
 0001:00006ac0       ?pointer_to@?$pointer_traits@PEAU_Container_proxy@std@@@std@@SAPEAU_Container_proxy@2@AEAU32@@Z 0000000140007ac0 f i angularsegmentkinematicsdatagram.obj
 0001:00006ae0       ?push_back@?$vector@MV?$allocator@M@std@@@std@@QEAAXAEBM@Z 0000000140007ae0 f i angularsegmentkinematicsdatagram.obj
 0001:00006d40       ?push_back@?$vector@UKinematics@AngularSegmentKinematicsDatagram@@V?$allocator@UKinematics@AngularSegmentKinematicsDatagram@@@std@@@std@@QEAAXAEBUKinematics@AngularSegmentKinematicsDatagram@@@Z 0000000140007d40 f i angularsegmentkinematicsdatagram.obj
 0001:00006fa0       ?push_sample@stream_outlet@lsl@@QEAAXAEBV?$vector@MV?$allocator@M@std@@@std@@N_N@Z 0000000140007fa0 f i angularsegmentkinematicsdatagram.obj
 0001:00007010       ?size@?$vector@MV?$allocator@M@std@@@std@@QEBA_KXZ 0000000140008010 f i angularsegmentkinematicsdatagram.obj
 0001:00007050       ?size@?$vector@UKinematics@AngularSegmentKinematicsDatagram@@V?$allocator@UKinematics@AngularSegmentKinematicsDatagram@@@std@@@std@@QEBA_KXZ 0000000140008050 f i angularsegmentkinematicsdatagram.obj
 0001:000070a0       ?what@exception@std@@UEBAPEBDXZ 00000001400080a0 f i angularsegmentkinematicsdatagram.obj
 0001:000070e0       ??0CenterOfMassDatagram@@QEAA@XZ 00000001400080e0 f   centerofmassdatagram.obj
 0001:00007130       ??1CenterOfMassDatagram@@UEAA@XZ 0000000140008130 f   centerofmassdatagram.obj
 0001:00007160       ?printData@CenterOfMassDatagram@@UEBAXXZ 0000000140008160 f   centerofmassdatagram.obj
 0001:00007180       ?deserializeData@CenterOfMassDatagram@@MEAAXAEAVStreamer@@@Z 0000000140008180 f   centerofmassdatagram.obj
 0001:000071e0       ?streamData@CenterOfMassDatagram@@QEBAXXZ 00000001400081e0 f   centerofmassdatagram.obj
 0001:00007230       ??_ECenterOfMassDatagram@@UEAAPEAXI@Z 0000000140008230 f i centerofmassdatagram.obj
 0001:00007230       ??_GCenterOfMassDatagram@@UEAAPEAXI@Z 0000000140008230 f i centerofmassdatagram.obj
 0001:00007270       ?push_sample@stream_outlet@lsl@@QEAAXPEBMN_N@Z 0000000140008270 f i centerofmassdatagram.obj
 0001:000072b0       ??0Datagram@@QEAA@XZ       00000001400082b0 f   datagram.obj
 0001:00007370       ??1Datagram@@QEAA@XZ       0000000140008370 f   datagram.obj
 0001:000073c0       ?deserialize@Datagram@@QEAA_NAEBUXsByteArray@@@Z 00000001400083c0 f   datagram.obj
 0001:00007530       ?setDataCount@Datagram@@QEAAXE@Z 0000000140008530 f   datagram.obj
 0001:00007550       ?setType@Datagram@@QEAAXW4StreamingProtocol@@@Z 0000000140008550 f   datagram.obj
 0001:00007690       ?messageType@Datagram@@QEBAHXZ 0000000140008690 f   datagram.obj
 0001:00007750       ?sampleCounter@Datagram@@QEBAHXZ 0000000140008750 f   datagram.obj
 0001:00007770       ?frameTime@Datagram@@QEBAHXZ 0000000140008770 f   datagram.obj
 0001:00007790       ?avatarId@Datagram@@QEBAEXZ 0000000140008790 f   datagram.obj
 0001:000077b0       ?dataCount@Datagram@@QEBAEXZ 00000001400087b0 f   datagram.obj
 0001:000077d0       ?datagramCounter@Datagram@@QEBAEXZ 00000001400087d0 f   datagram.obj
 0001:000077f0       ?messageType@Datagram@@SAHAEBUXsByteArray@@@Z 00000001400087f0 f   datagram.obj
 0001:00007920       ?decode@Datagram@@QEBA?AV?$basic_string@DU?$char_traits@D@std@@V?$allocator@D@2@@std@@W4StreamingProtocol@@@Z 0000000140008920 f   datagram.obj
 0001:00007a90       ?convertFromYupToZup@Datagram@@QEBAXPEAM@Z 0000000140008a90 f   datagram.obj
 0001:00007b40       ?printHeader@Datagram@@QEBAXXZ 0000000140008b40 f   datagram.obj
 0001:00007b50       ?getDataSize@Datagram@@AEBAHXZ 0000000140008b50 f   datagram.obj
 0001:00007b70       ?initMap@Datagram@@AEAAXAEAV?$map@HV?$basic_string@DU?$char_traits@D@std@@V?$allocator@D@2@@std@@U?$less@H@2@V?$allocator@U?$pair@$$CBHV?$basic_string@DU?$char_traits@D@std@@V?$allocator@D@2@@std@@@std@@@2@@std@@@Z 0000000140008b70 f   datagram.obj
 0001:00007d80       ??$?0$$QEAH$$Z$$V@?$pair@$$CBHV?$basic_string@DU?$char_traits@D@std@@V?$allocator@D@2@@std@@@std@@QEAA@Upiecewise_construct_t@1@V?$tuple@$$QEAH@1@V?$tuple@$$V@1@@Z 0000000140008d80 f i datagram.obj
 0001:00007dd0       ??$?0$$V@?$_Compressed_pair@U?$_Wrap_alloc@V?$allocator@U?$_Tree_node@U?$pair@$$CBHV?$basic_string@DU?$char_traits@D@std@@V?$allocator@D@2@@std@@@std@@PEAX@std@@@std@@@std@@V?$_Tree_val@U?$_Tree_simple_types@U?$pair@$$CBHV?$basic_string@DU?$char_traits@D@std@@V?$allocator@D@2@@std@@@std@@@std@@@2@$00@std@@QEAA@U_Zero_then_variadic_args_t@1@@Z 0000000140008dd0 f i datagram.obj
 0001:00007e00       ??$?0AEAU?$_Wrap_alloc@V?$allocator@U?$_Tree_node@U?$pair@$$CBHV?$basic_string@DU?$char_traits@D@std@@V?$allocator@D@2@@std@@@std@@PEAX@std@@@std@@@std@@@?$_Wrap_alloc@V?$allocator@U_Container_proxy@std@@@std@@@std@@QEAA@AEAU?$_Wrap_alloc@V?$allocator@U?$_Tree_node@U?$pair@$$CBHV?$basic_string@DU?$char_traits@D@std@@V?$allocator@D@2@@std@@@std@@PEAX@std@@@std@@@1@@Z 0000000140008e00 f i datagram.obj
 0001:00007e30       ??$?0AEAV?$_Tree_iterator@V?$_Tree_val@U?$_Tree_simple_types@U?$pair@$$CBHV?$basic_string@DU?$char_traits@D@std@@V?$allocator@D@2@@std@@@std@@@std@@@std@@@std@@_NX$0A@@?$pair@V?$_Tree_iterator@V?$_Tree_val@U?$_Tree_simple_types@U?$pair@$$CBHV?$basic_string@DU?$char_traits@D@std@@V?$allocator@D@2@@std@@@std@@@std@@@std@@@std@@_N@std@@QEAA@AEAV?$_Tree_iterator@V?$_Tree_val@U?$_Tree_simple_types@U?$pair@$$CBHV?$basic_string@DU?$char_traits@D@std@@V?$allocator@D@2@@std@@@std@@@std@@@std@@@1@$$QEA_N@Z 0000000140008e30 f i datagram.obj
 0001:00007e80       ??$?0AEBU?$less@H@std@@U_Zero_then_variadic_args_t@1@@?$_Compressed_pair@U?$less@H@std@@V?$_Compressed_pair@U?$_Wrap_alloc@V?$allocator@U?$_Tree_node@U?$pair@$$CBHV?$basic_string@DU?$char_traits@D@std@@V?$allocator@D@2@@std@@@std@@PEAX@std@@@std@@@std@@V?$_Tree_val@U?$_Tree_simple_types@U?$pair@$$CBHV?$basic_string@DU?$char_traits@D@std@@V?$allocator@D@2@@std@@@std@@@std@@@2@$00@2@$00@std@@QEAA@U_One_then_variadic_args_t@1@AEBU?$less@H@1@$$QEAU_Zero_then_variadic_args_t@1@@Z 0000000140008e80 f i datagram.obj
 0001:00007ed0       ??$?0AEBV?$allocator@D@std@@$$V@?$_Compressed_pair@U?$_Wrap_alloc@V?$allocator@D@std@@@std@@V?$_String_val@U?$_Simple_types@D@std@@@2@$00@std@@QEAA@U_One_then_variadic_args_t@1@AEBV?$allocator@D@1@@Z 0000000140008ed0 f i datagram.obj
 0001:00007f10       ??$?0AEBV?$allocator@D@std@@@?$_Wrap_alloc@V?$allocator@D@std@@@std@@QEAA@AEBV?$allocator@D@1@@Z 0000000140008f10 f i datagram.obj
 0001:00007f40       ??$?0AEBV?$allocator@D@std@@X@?$_String_alloc@U?$_String_base_types@DV?$allocator@D@std@@@std@@@std@@QEAA@AEBV?$allocator@D@1@@Z 0000000140008f40 f i datagram.obj
 0001:00007f90       ??$?0H$$V$0A@@?$tuple@$$QEAH@std@@QEAA@$$QEAH@Z 0000000140008f90 f i datagram.obj
 0001:00007ff0       ??$?0H@?$_Tuple_val@$$QEAH@std@@QEAA@$$QEAH@Z 0000000140008ff0 f i datagram.obj
 0001:00008020       ??$?0U?$_Tree_node@U?$pair@$$CBHV?$basic_string@DU?$char_traits@D@std@@V?$allocator@D@2@@std@@@std@@PEAX@std@@@?$allocator@U_Container_proxy@std@@@std@@QEAA@AEBV?$allocator@U?$_Tree_node@U?$pair@$$CBHV?$basic_string@DU?$char_traits@D@std@@V?$allocator@D@2@@std@@@std@@PEAX@std@@@1@@Z 0000000140009020 f i datagram.obj
 0001:00008030       ??$?0U?$_Wrap_alloc@V?$allocator@D@std@@@std@@$$V@?$_Compressed_pair@U?$_Wrap_alloc@V?$allocator@D@std@@@std@@V?$_String_val@U?$_Simple_types@D@std@@@2@$00@std@@QEAA@U_One_then_variadic_args_t@1@$$QEAU?$_Wrap_alloc@V?$allocator@D@std@@@1@@Z 0000000140009030 f i datagram.obj
 0001:00008070       ??$?0U?$_Wrap_alloc@V?$allocator@D@std@@@std@@X@?$_String_alloc@U?$_String_base_types@DV?$allocator@D@std@@@std@@@std@@QEAA@$$QEAU?$_Wrap_alloc@V?$allocator@D@std@@@1@@Z 0000000140009070 f i datagram.obj
 0001:000080c0       ??$?0U_Exact_args_t@std@@$0A@@?$tuple@$$V@std@@QEAA@U_Exact_args_t@1@@Z 00000001400090c0 f i datagram.obj
 0001:000080d0       ??$?0V?$_Tree_iterator@V?$_Tree_val@U?$_Tree_simple_types@U?$pair@$$CBHV?$basic_string@DU?$char_traits@D@std@@V?$allocator@D@2@@std@@@std@@@std@@@std@@@std@@_NX$0A@@?$pair@V?$_Tree_iterator@V?$_Tree_val@U?$_Tree_simple_types@U?$pair@$$CBHV?$basic_string@DU?$char_traits@D@std@@V?$allocator@D@2@@std@@@std@@@std@@@std@@@std@@_N@std@@QEAA@$$QEAV?$_Tree_iterator@V?$_Tree_val@U?$_Tree_simple_types@U?$pair@$$CBHV?$basic_string@DU?$char_traits@D@std@@V?$allocator@D@2@@std@@@std@@@std@@@std@@@1@$$QEA_N@Z 00000001400090d0 f i datagram.obj
 0001:00008120       ??$?0V?$allocator@D@std@@@?$_Wrap_alloc@V?$allocator@D@std@@@std@@QEAA@$$QEAV?$allocator@D@1@@Z 0000000140009120 f i datagram.obj
 0001:00008150       ??$?0V?$tuple@$$QEAH@std@@V?$tuple@$$V@1@$0A@$$Z$S@?$pair@$$CBHV?$basic_string@DU?$char_traits@D@std@@V?$allocator@D@2@@std@@@std@@QEAA@AEAV?$tuple@$$QEAH@1@AEAV?$tuple@$$V@1@U?$integer_sequence@_K$0A@@1@U?$integer_sequence@_K$S@1@@Z 0000000140009150 f i datagram.obj
 0001:000081a0       ??$?5DU?$char_traits@D@std@@V?$allocator@D@1@@std@@YAAEAV?$basic_istream@DU?$char_traits@D@std@@@0@$$QEAV10@AEAV?$basic_string@DU?$char_traits@D@std@@V?$allocator@D@2@@0@@Z 00000001400091a0 f i datagram.obj
 0001:000084f0       ??$?5DU?$char_traits@D@std@@V?$allocator@D@1@@std@@YAAEAV?$basic_istream@DU?$char_traits@D@std@@@0@AEAV10@AEAV?$basic_string@DU?$char_traits@D@std@@V?$allocator@D@2@@0@@Z 00000001400094f0 f i datagram.obj
 0001:00008520       ??$?6U?$char_traits@D@std@@@std@@YAAEAV?$basic_ostream@DU?$char_traits@D@std@@@0@AEAV10@D@Z 0000000140009520 f i datagram.obj
 0001:000088b0       ??$?6U?$char_traits@D@std@@@std@@YAAEAV?$basic_ostream@DU?$char_traits@D@std@@@0@AEAV10@E@Z 00000001400098b0 f i datagram.obj
 0001:000088e0       ??$?8DD@std@@YA_NAEBV?$allocator@D@0@0@Z 00000001400098e0 f i datagram.obj
 0001:000088f0       ??$?8V?$allocator@D@std@@V01@@std@@YA_NAEBU?$_Wrap_alloc@V?$allocator@D@std@@@0@0@Z 00000001400098f0 f i datagram.obj
 0001:00008920       ??$?9V?$allocator@D@std@@V01@@std@@YA_NAEBU?$_Wrap_alloc@V?$allocator@D@std@@@0@0@Z 0000000140009920 f i datagram.obj
 0001:00008960       ??$?HDU?$char_traits@D@std@@V?$allocator@D@1@@std@@YA?AV?$basic_string@DU?$char_traits@D@std@@V?$allocator@D@2@@0@PEBD$$QEAV10@@Z 0000000140009960 f i datagram.obj
 0001:000089c0       ??$_Buynode@AEBUpiecewise_construct_t@std@@V?$tuple@$$QEAH@2@V?$tuple@$$V@2@@?$_Tree_comp_alloc@V?$_Tmap_traits@HV?$basic_string@DU?$char_traits@D@std@@V?$allocator@D@2@@std@@U?$less@H@2@V?$allocator@U?$pair@$$CBHV?$basic_string@DU?$char_traits@D@std@@V?$allocator@D@2@@std@@@std@@@2@$0A@@std@@@std@@QEAAPEAU?$_Tree_node@U?$pair@$$CBHV?$basic_string@DU?$char_traits@D@std@@V?$allocator@D@2@@std@@@std@@PEAX@1@AEBUpiecewise_construct_t@1@$$QEAV?$tuple@$$QEAH@1@$$QEAV?$tuple@$$V@1@@Z 00000001400099c0 f i datagram.obj
 0001:00008ab0       ??$_Buynode_if_nil@AEAU?$pair@$$CBHV?$basic_string@DU?$char_traits@D@std@@V?$allocator@D@2@@std@@@std@@@?$_Tree@V?$_Tmap_traits@HV?$basic_string@DU?$char_traits@D@std@@V?$allocator@D@2@@std@@U?$less@H@2@V?$allocator@U?$pair@$$CBHV?$basic_string@DU?$char_traits@D@std@@V?$allocator@D@2@@std@@@std@@@2@$0A@@std@@@std@@IEAAPEAU?$_Tree_node@U?$pair@$$CBHV?$basic_string@DU?$char_traits@D@std@@V?$allocator@D@2@@std@@@std@@PEAX@1@PEAU21@AEAU?$pair@$$CBHV?$basic_string@DU?$char_traits@D@std@@V?$allocator@D@2@@std@@@1@@Z 0000000140009ab0 f i datagram.obj
 0001:00008ad0       ??$_Debug_lt_pred@AEAU?$less@H@std@@AEAHAEBH@std@@YA_NAEAU?$less@H@0@AEAHAEBHPEB_WI@Z 0000000140009ad0 f i datagram.obj
 0001:00008b60       ??$_Debug_lt_pred@AEAU?$less@H@std@@AEBHAEBH@std@@YA_NAEAU?$less@H@0@AEBH1PEB_WI@Z 0000000140009b60 f i datagram.obj
 0001:00008bf0       ??$_Debug_lt_pred@AEBU?$less@H@std@@AEBHAEBH@std@@YA_NAEBU?$less@H@0@AEBH1PEB_WI@Z 0000000140009bf0 f i datagram.obj
 0001:00008c80       ??$_Insert_at@AEAU?$pair@$$CBHV?$basic_string@DU?$char_traits@D@std@@V?$allocator@D@2@@std@@@std@@PEAU?$_Tree_node@U?$pair@$$CBHV?$basic_string@DU?$char_traits@D@std@@V?$allocator@D@2@@std@@@std@@PEAX@2@@?$_Tree@V?$_Tmap_traits@HV?$basic_string@DU?$char_traits@D@std@@V?$allocator@D@2@@std@@U?$less@H@2@V?$allocator@U?$pair@$$CBHV?$basic_string@DU?$char_traits@D@std@@V?$allocator@D@2@@std@@@std@@@2@$0A@@std@@@std@@IEAA?AV?$_Tree_iterator@V?$_Tree_val@U?$_Tree_simple_types@U?$pair@$$CBHV?$basic_string@DU?$char_traits@D@std@@V?$allocator@D@2@@std@@@std@@@std@@@std@@@1@_NPEAU?$_Tree_node@U?$pair@$$CBHV?$basic_string@DU?$char_traits@D@std@@V?$allocator@D@2@@std@@@std@@PEAX@1@AEAU?$pair@$$CBHV?$basic_string@DU?$char_traits@D@std@@V?$allocator@D@2@@std@@@1@1@Z 0000000140009c80 f i datagram.obj
 0001:00009100       ??$_Insert_hint@AEAU?$pair@$$CBHV?$basic_string@DU?$char_traits@D@std@@V?$allocator@D@2@@std@@@std@@PEAU?$_Tree_node@U?$pair@$$CBHV?$basic_string@DU?$char_traits@D@std@@V?$allocator@D@2@@std@@@std@@PEAX@2@@?$_Tree@V?$_Tmap_traits@HV?$basic_string@DU?$char_traits@D@std@@V?$allocator@D@2@@std@@U?$less@H@2@V?$allocator@U?$pair@$$CBHV?$basic_string@DU?$char_traits@D@std@@V?$allocator@D@2@@std@@@std@@@2@$0A@@std@@@std@@IEAA?AV?$_Tree_iterator@V?$_Tree_val@U?$_Tree_simple_types@U?$pair@$$CBHV?$basic_string@DU?$char_traits@D@std@@V?$allocator@D@2@@std@@@std@@@std@@@std@@@1@V?$_Tree_const_iterator@V?$_Tree_val@U?$_Tree_simple_types@U?$pair@$$CBHV?$basic_string@DU?$char_traits@D@std@@V?$allocator@D@2@@std@@@std@@@std@@@std@@@1@AEAU?$pair@$$CBHV?$basic_string@DU?$char_traits@D@std@@V?$allocator@D@2@@std@@@1@PEAU?$_Tree_node@U?$pair@$$CBHV?$basic_string@DU?$char_traits@D@std@@V?$allocator@D@2@@std@@@std@@PEAX@1@@Z 000000014000a100 f i datagram.obj
 0001:0000a520       ??$_Insert_nohint@AEAU?$pair@$$CBHV?$basic_string@DU?$char_traits@D@std@@V?$allocator@D@2@@std@@@std@@PEAU?$_Tree_node@U?$pair@$$CBHV?$basic_string@DU?$char_traits@D@std@@V?$allocator@D@2@@std@@@std@@PEAX@2@@?$_Tree@V?$_Tmap_traits@HV?$basic_string@DU?$char_traits@D@std@@V?$allocator@D@2@@std@@U?$less@H@2@V?$allocator@U?$pair@$$CBHV?$basic_string@DU?$char_traits@D@std@@V?$allocator@D@2@@std@@@std@@@2@$0A@@std@@@std@@IEAA?AU?$pair@V?$_Tree_iterator@V?$_Tree_val@U?$_Tree_simple_types@U?$pair@$$CBHV?$basic_string@DU?$char_traits@D@std@@V?$allocator@D@2@@std@@@std@@@std@@@std@@@std@@_N@1@_NAEAU?$pair@$$CBHV?$basic_string@DU?$char_traits@D@std@@V?$allocator@D@2@@std@@@1@PEAU?$_Tree_node@U?$pair@$$CBHV?$basic_string@DU?$char_traits@D@std@@V?$allocator@D@2@@std@@@std@@PEAX@1@@Z 000000014000b520 f i datagram.obj
 0001:0000aad0       ??$_Kfn@$$CBHV?$basic_string@DU?$char_traits@D@std@@V?$allocator@D@2@@std@@@?$_Tmap_traits@HV?$basic_string@DU?$char_traits@D@std@@V?$allocator@D@2@@std@@U?$less@H@2@V?$allocator@U?$pair@$$CBHV?$basic_string@DU?$char_traits@D@std@@V?$allocator@D@2@@std@@@std@@@2@$0A@@std@@SAAEBHAEBU?$pair@$$CBHV?$basic_string@DU?$char_traits@D@std@@V?$allocator@D@2@@std@@@1@@Z 000000014000bad0 f i datagram.obj
 0001:0000aae0       ??$_Lbound@H@?$_Tree@V?$_Tmap_traits@HV?$basic_string@DU?$char_traits@D@std@@V?$allocator@D@2@@std@@U?$less@H@2@V?$allocator@U?$pair@$$CBHV?$basic_string@DU?$char_traits@D@std@@V?$allocator@D@2@@std@@@std@@@2@$0A@@std@@@std@@IEBAPEAU?$_Tree_node@U?$pair@$$CBHV?$basic_string@DU?$char_traits@D@std@@V?$allocator@D@2@@std@@@std@@PEAX@1@AEBH@Z 000000014000bae0 f i datagram.obj
 0001:0000ab90       ??$_Pocma@U?$_Wrap_alloc@V?$allocator@D@std@@@std@@@std@@YAXAEAU?$_Wrap_alloc@V?$allocator@D@std@@@0@0@Z 000000014000bb90 f i datagram.obj
 0001:0000abc0       ??$_Pocma@U?$_Wrap_alloc@V?$allocator@D@std@@@std@@@std@@YAXAEAU?$_Wrap_alloc@V?$allocator@D@std@@@0@0U?$integral_constant@_N$00@0@@Z 000000014000bbc0 f i datagram.obj
 0001:0000ac00       ??$_Try_emplace@H$$V@?$map@HV?$basic_string@DU?$char_traits@D@std@@V?$allocator@D@2@@std@@U?$less@H@2@V?$allocator@U?$pair@$$CBHV?$basic_string@DU?$char_traits@D@std@@V?$allocator@D@2@@std@@@std@@@2@@std@@QEAA?AU?$pair@V?$_Tree_iterator@V?$_Tree_val@U?$_Tree_simple_types@U?$pair@$$CBHV?$basic_string@DU?$char_traits@D@std@@V?$allocator@D@2@@std@@@std@@@std@@@std@@@std@@_N@1@$$QEAH@Z 000000014000bc00 f i datagram.obj
 0001:0000ae70       ??$_Unfancy@$$CBD@std@@YAPEBDPEBD@Z 000000014000be70 f i datagram.obj
 0001:0000ae80       ??$addressof@$$CBU?$pair@$$CBHV?$basic_string@DU?$char_traits@D@std@@V?$allocator@D@2@@std@@@std@@@std@@YAPEBU?$pair@$$CBHV?$basic_string@DU?$char_traits@D@std@@V?$allocator@D@2@@std@@@0@AEBU10@@Z 000000014000be80 f i datagram.obj
 0001:0000ae90       ??$addressof@D@std@@YAPEADAEAD@Z 000000014000be90 f i datagram.obj
 0001:0000aea0       ??$addressof@PEAU?$_Tree_node@U?$pair@$$CBHV?$basic_string@DU?$char_traits@D@std@@V?$allocator@D@2@@std@@@std@@PEAX@std@@@std@@YAPEAPEAU?$_Tree_node@U?$pair@$$CBHV?$basic_string@DU?$char_traits@D@std@@V?$allocator@D@2@@std@@@std@@PEAX@0@AEAPEAU10@@Z 000000014000bea0 f i datagram.obj
 0001:0000aeb0       ??$addressof@U?$pair@$$CBHV?$basic_string@DU?$char_traits@D@std@@V?$allocator@D@2@@std@@@std@@@std@@YAPEAU?$pair@$$CBHV?$basic_string@DU?$char_traits@D@std@@V?$allocator@D@2@@std@@@0@AEAU10@@Z 000000014000beb0 f i datagram.obj
 0001:0000aec0       ??$assign@V?$_String_iterator@V?$_String_val@U?$_Simple_types@D@std@@@std@@@std@@@?$basic_string@DU?$char_traits@D@std@@V?$allocator@D@2@@std@@QEAAAEAV01@V?$_String_iterator@V?$_String_val@U?$_Simple_types@D@std@@@std@@@1@0@Z 000000014000bec0 f i datagram.obj
 0001:0000b070       ??$construct@PEAU?$_Tree_node@U?$pair@$$CBHV?$basic_string@DU?$char_traits@D@std@@V?$allocator@D@2@@std@@@std@@PEAX@std@@AEAPEAU12@@?$_Wrap_alloc@V?$allocator@U?$_Tree_node@U?$pair@$$CBHV?$basic_string@DU?$char_traits@D@std@@V?$allocator@D@2@@std@@@std@@PEAX@std@@@std@@@std@@QEAAXPEAPEAU?$_Tree_node@U?$pair@$$CBHV?$basic_string@DU?$char_traits@D@std@@V?$allocator@D@2@@std@@@std@@PEAX@1@AEAPEAU21@@Z 000000014000c070 f i datagram.obj
 0001:0000b0b0       ??$construct@PEAU?$_Tree_node@U?$pair@$$CBHV?$basic_string@DU?$char_traits@D@std@@V?$allocator@D@2@@std@@@std@@PEAX@std@@AEAPEAU12@@?$allocator@U?$_Tree_node@U?$pair@$$CBHV?$basic_string@DU?$char_traits@D@std@@V?$allocator@D@2@@std@@@std@@PEAX@std@@@std@@QEAAXPEAPEAU?$_Tree_node@U?$pair@$$CBHV?$basic_string@DU?$char_traits@D@std@@V?$allocator@D@2@@std@@@std@@PEAX@1@AEAPEAU21@@Z 000000014000c0b0 f i datagram.obj
 0001:0000b110       ??$construct@PEAU?$_Tree_node@U?$pair@$$CBHV?$basic_string@DU?$char_traits@D@std@@V?$allocator@D@2@@std@@@std@@PEAX@std@@AEAPEAU12@@?$allocator_traits@V?$allocator@U?$_Tree_node@U?$pair@$$CBHV?$basic_string@DU?$char_traits@D@std@@V?$allocator@D@2@@std@@@std@@PEAX@std@@@std@@@std@@SAXAEAV?$allocator@U?$_Tree_node@U?$pair@$$CBHV?$basic_string@DU?$char_traits@D@std@@V?$allocator@D@2@@std@@@std@@PEAX@std@@@1@PEAPEAU?$_Tree_node@U?$pair@$$CBHV?$basic_string@DU?$char_traits@D@std@@V?$allocator@D@2@@std@@@std@@PEAX@1@AEAPEAU31@@Z 000000014000c110 f i datagram.obj
 0001:0000b150       ??$construct@U?$pair@$$CBHV?$basic_string@DU?$char_traits@D@std@@V?$allocator@D@2@@std@@@std@@AEBUpiecewise_construct_t@2@V?$tuple@$$QEAH@2@V?$tuple@$$V@2@@?$_Wrap_alloc@V?$allocator@U?$_Tree_node@U?$pair@$$CBHV?$basic_string@DU?$char_traits@D@std@@V?$allocator@D@2@@std@@@std@@PEAX@std@@@std@@@std@@QEAAXPEAU?$pair@$$CBHV?$basic_string@DU?$char_traits@D@std@@V?$allocator@D@2@@std@@@1@AEBUpiecewise_construct_t@1@$$QEAV?$tuple@$$QEAH@1@$$QEAV?$tuple@$$V@1@@Z 000000014000c150 f i datagram.obj
 0001:0000b1c0       ??$construct@U?$pair@$$CBHV?$basic_string@DU?$char_traits@D@std@@V?$allocator@D@2@@std@@@std@@AEBUpiecewise_construct_t@2@V?$tuple@$$QEAH@2@V?$tuple@$$V@2@@?$allocator@U?$_Tree_node@U?$pair@$$CBHV?$basic_string@DU?$char_traits@D@std@@V?$allocator@D@2@@std@@@std@@PEAX@std@@@std@@QEAAXPEAU?$pair@$$CBHV?$basic_string@DU?$char_traits@D@std@@V?$allocator@D@2@@std@@@1@AEBUpiecewise_construct_t@1@$$QEAV?$tuple@$$QEAH@1@$$QEAV?$tuple@$$V@1@@Z 000000014000c1c0 f i datagram.obj
 0001:0000b2a0       ??$construct@U?$pair@$$CBHV?$basic_string@DU?$char_traits@D@std@@V?$allocator@D@2@@std@@@std@@AEBUpiecewise_construct_t@2@V?$tuple@$$QEAH@2@V?$tuple@$$V@2@@?$allocator_traits@V?$allocator@U?$_Tree_node@U?$pair@$$CBHV?$basic_string@DU?$char_traits@D@std@@V?$allocator@D@2@@std@@@std@@PEAX@std@@@std@@@std@@SAXAEAV?$allocator@U?$_Tree_node@U?$pair@$$CBHV?$basic_string@DU?$char_traits@D@std@@V?$allocator@D@2@@std@@@std@@PEAX@std@@@1@PEAU?$pair@$$CBHV?$basic_string@DU?$char_traits@D@std@@V?$allocator@D@2@@std@@@1@AEBUpiecewise_construct_t@1@$$QEAV?$tuple@$$QEAH@1@$$QEAV?$tuple@$$V@1@@Z 000000014000c2a0 f i datagram.obj
 0001:0000b310       ??$destroy@PEAU?$_Tree_node@U?$pair@$$CBHV?$basic_string@DU?$char_traits@D@std@@V?$allocator@D@2@@std@@@std@@PEAX@std@@@?$_Wrap_alloc@V?$allocator@U?$_Tree_node@U?$pair@$$CBHV?$basic_string@DU?$char_traits@D@std@@V?$allocator@D@2@@std@@@std@@PEAX@std@@@std@@@std@@QEAAXPEAPEAU?$_Tree_node@U?$pair@$$CBHV?$basic_string@DU?$char_traits@D@std@@V?$allocator@D@2@@std@@@std@@PEAX@1@@Z 000000014000c310 f i datagram.obj
 0001:0000b340       ??$destroy@PEAU?$_Tree_node@U?$pair@$$CBHV?$basic_string@DU?$char_traits@D@std@@V?$allocator@D@2@@std@@@std@@PEAX@std@@@?$allocator@U?$_Tree_node@U?$pair@$$CBHV?$basic_string@DU?$char_traits@D@std@@V?$allocator@D@2@@std@@@std@@PEAX@std@@@std@@QEAAXPEAPEAU?$_Tree_node@U?$pair@$$CBHV?$basic_string@DU?$char_traits@D@std@@V?$allocator@D@2@@std@@@std@@PEAX@1@@Z 000000014000c340 f i datagram.obj
 0001:0000b350       ??$destroy@PEAU?$_Tree_node@U?$pair@$$CBHV?$basic_string@DU?$char_traits@D@std@@V?$allocator@D@2@@std@@@std@@PEAX@std@@@?$allocator_traits@V?$allocator@U?$_Tree_node@U?$pair@$$CBHV?$basic_string@DU?$char_traits@D@std@@V?$allocator@D@2@@std@@@std@@PEAX@std@@@std@@@std@@SAXAEAV?$allocator@U?$_Tree_node@U?$pair@$$CBHV?$basic_string@DU?$char_traits@D@std@@V?$allocator@D@2@@std@@@std@@PEAX@std@@@1@PEAPEAU?$_Tree_node@U?$pair@$$CBHV?$basic_string@DU?$char_traits@D@std@@V?$allocator@D@2@@std@@@std@@PEAX@1@@Z 000000014000c350 f i datagram.obj
 0001:0000b380       ??$destroy@U?$pair@$$CBHV?$basic_string@DU?$char_traits@D@std@@V?$allocator@D@2@@std@@@std@@@?$_Wrap_alloc@V?$allocator@U?$_Tree_node@U?$pair@$$CBHV?$basic_string@DU?$char_traits@D@std@@V?$allocator@D@2@@std@@@std@@PEAX@std@@@std@@@std@@QEAAXPEAU?$pair@$$CBHV?$basic_string@DU?$char_traits@D@std@@V?$allocator@D@2@@std@@@1@@Z 000000014000c380 f i datagram.obj
 0001:0000b3b0       ??$destroy@U?$pair@$$CBHV?$basic_string@DU?$char_traits@D@std@@V?$allocator@D@2@@std@@@std@@@?$allocator@U?$_Tree_node@U?$pair@$$CBHV?$basic_string@DU?$char_traits@D@std@@V?$allocator@D@2@@std@@@std@@PEAX@std@@@std@@QEAAXPEAU?$pair@$$CBHV?$basic_string@DU?$char_traits@D@std@@V?$allocator@D@2@@std@@@1@@Z 000000014000c3b0 f i datagram.obj
 0001:0000b3d0       ??$destroy@U?$pair@$$CBHV?$basic_string@DU?$char_traits@D@std@@V?$allocator@D@2@@std@@@std@@@?$allocator_traits@V?$allocator@U?$_Tree_node@U?$pair@$$CBHV?$basic_string@DU?$char_traits@D@std@@V?$allocator@D@2@@std@@@std@@PEAX@std@@@std@@@std@@SAXAEAV?$allocator@U?$_Tree_node@U?$pair@$$CBHV?$basic_string@DU?$char_traits@D@std@@V?$allocator@D@2@@std@@@std@@PEAX@std@@@1@PEAU?$pair@$$CBHV?$basic_string@DU?$char_traits@D@std@@V?$allocator@D@2@@std@@@1@@Z 000000014000c3d0 f i datagram.obj
 0001:0000b400       ??$emplace_hint@AEBUpiecewise_construct_t@std@@V?$tuple@$$QEAH@2@V?$tuple@$$V@2@@?$_Tree@V?$_Tmap_traits@HV?$basic_string@DU?$char_traits@D@std@@V?$allocator@D@2@@std@@U?$less@H@2@V?$allocator@U?$pair@$$CBHV?$basic_string@DU?$char_traits@D@std@@V?$allocator@D@2@@std@@@std@@@2@$0A@@std@@@std@@QEAA?AV?$_Tree_iterator@V?$_Tree_val@U?$_Tree_simple_types@U?$pair@$$CBHV?$basic_string@DU?$char_traits@D@std@@V?$allocator@D@2@@std@@@std@@@std@@@std@@@1@V?$_Tree_const_iterator@V?$_Tree_val@U?$_Tree_simple_types@U?$pair@$$CBHV?$basic_string@DU?$char_traits@D@std@@V?$allocator@D@2@@std@@@std@@@std@@@std@@@1@AEBUpiecewise_construct_t@1@$$QEAV?$tuple@$$QEAH@1@$$QEAV?$tuple@$$V@1@@Z 000000014000c400 f i datagram.obj
 0001:0000b510       ??$forward@$$QEAH@std@@YA$$QEAHAEAH@Z 000000014000c510 f i datagram.obj
 0001:0000b520       ??$forward@AEAPEAU?$_Tree_node@U?$pair@$$CBHV?$basic_string@DU?$char_traits@D@std@@V?$allocator@D@2@@std@@@std@@PEAX@std@@@std@@YAAEAPEAU?$_Tree_node@U?$pair@$$CBHV?$basic_string@DU?$char_traits@D@std@@V?$allocator@D@2@@std@@@std@@PEAX@0@AEAPEAU10@@Z 000000014000c520 f i datagram.obj
 0001:0000b530       ??$forward@AEAU?$_Wrap_alloc@V?$allocator@U?$_Tree_node@U?$pair@$$CBHV?$basic_string@DU?$char_traits@D@std@@V?$allocator@D@2@@std@@@std@@PEAX@std@@@std@@@std@@@std@@YAAEAU?$_Wrap_alloc@V?$allocator@U?$_Tree_node@U?$pair@$$CBHV?$basic_string@DU?$char_traits@D@std@@V?$allocator@D@2@@std@@@std@@PEAX@std@@@std@@@0@AEAU10@@Z 000000014000c530 f i datagram.obj
 0001:0000b540       ??$forward@AEAU?$pair@$$CBHV?$basic_string@DU?$char_traits@D@std@@V?$allocator@D@2@@std@@@std@@@std@@YAAEAU?$pair@$$CBHV?$basic_string@DU?$char_traits@D@std@@V?$allocator@D@2@@std@@@0@AEAU10@@Z 000000014000c540 f i datagram.obj
 0001:0000b550       ??$forward@AEAV?$_Tree_iterator@V?$_Tree_val@U?$_Tree_simple_types@U?$pair@$$CBHV?$basic_string@DU?$char_traits@D@std@@V?$allocator@D@2@@std@@@std@@@std@@@std@@@std@@@std@@YAAEAV?$_Tree_iterator@V?$_Tree_val@U?$_Tree_simple_types@U?$pair@$$CBHV?$basic_string@DU?$char_traits@D@std@@V?$allocator@D@2@@std@@@std@@@std@@@std@@@0@AEAV10@@Z 000000014000c550 f i datagram.obj
 0001:0000b560       ??$forward@AEBU?$less@H@std@@@std@@YAAEBU?$less@H@0@AEBU10@@Z 000000014000c560 f i datagram.obj
 0001:0000b570       ??$forward@AEBUpiecewise_construct_t@std@@@std@@YAAEBUpiecewise_construct_t@0@AEBU10@@Z 000000014000c570 f i datagram.obj
 0001:0000b580       ??$forward@AEBV?$allocator@D@std@@@std@@YAAEBV?$allocator@D@0@AEBV10@@Z 000000014000c580 f i datagram.obj
 0001:0000b590       ??$forward@H@std@@YA$$QEAHAEAH@Z 000000014000c590 f i datagram.obj
 0001:0000b5a0       ??$forward@U?$_Wrap_alloc@V?$allocator@D@std@@@std@@@std@@YA$$QEAU?$_Wrap_alloc@V?$allocator@D@std@@@0@AEAU10@@Z 000000014000c5a0 f i datagram.obj
 0001:0000b5b0       ??$forward@U_Zero_then_variadic_args_t@std@@@std@@YA$$QEAU_Zero_then_variadic_args_t@0@AEAU10@@Z 000000014000c5b0 f i datagram.obj
 0001:0000b5c0       ??$forward@V?$_Tree_iterator@V?$_Tree_val@U?$_Tree_simple_types@U?$pair@$$CBHV?$basic_string@DU?$char_traits@D@std@@V?$allocator@D@2@@std@@@std@@@std@@@std@@@std@@@std@@YA$$QEAV?$_Tree_iterator@V?$_Tree_val@U?$_Tree_simple_types@U?$pair@$$CBHV?$basic_string@DU?$char_traits@D@std@@V?$allocator@D@2@@std@@@std@@@std@@@std@@@0@AEAV10@@Z 000000014000c5c0 f i datagram.obj
 0001:0000b5d0       ??$forward@V?$allocator@D@std@@@std@@YA$$QEAV?$allocator@D@0@AEAV10@@Z 000000014000c5d0 f i datagram.obj
 0001:0000b5e0       ??$forward@V?$basic_string@DU?$char_traits@D@std@@V?$allocator@D@2@@std@@@std@@YA$$QEAV?$basic_string@DU?$char_traits@D@std@@V?$allocator@D@2@@0@AEAV10@@Z 000000014000c5e0 f i datagram.obj
 0001:0000b5f0       ??$forward@V?$tuple@$$QEAH@std@@@std@@YA$$QEAV?$tuple@$$QEAH@0@AEAV10@@Z 000000014000c5f0 f i datagram.obj
 0001:0000b600       ??$forward@V?$tuple@$$V@std@@@std@@YA$$QEAV?$tuple@$$V@0@AEAV10@@Z 000000014000c600 f i datagram.obj
 0001:0000b610       ??$forward@_N@std@@YA$$QEA_NAEA_N@Z 000000014000c610 f i datagram.obj
 0001:0000b620       ??$forward_as_tuple@$$V@std@@YA?AV?$tuple@$$V@0@XZ 000000014000c620 f i datagram.obj
 0001:0000b640       ??$forward_as_tuple@H@std@@YA?AV?$tuple@$$QEAH@0@$$QEAH@Z 000000014000c640 f i datagram.obj
 0001:0000b680       ??$get@$0A@$$QEAH@std@@YA$$QEAH$$QEAV?$tuple@$$QEAH@0@@Z 000000014000c680 f i datagram.obj
 0001:0000b6a0       ??$move@AEAD@std@@YA$$QEADAEAD@Z 000000014000c6a0 f i datagram.obj
 0001:0000b6b0       ??$move@AEAH@std@@YA$$QEAHAEAH@Z 000000014000c6b0 f i datagram.obj
 0001:0000b6c0       ??$move@AEAU?$_Wrap_alloc@V?$allocator@D@std@@@std@@@std@@YA$$QEAU?$_Wrap_alloc@V?$allocator@D@std@@@0@AEAU10@@Z 000000014000c6c0 f i datagram.obj
 0001:0000b6d0       ??$move@AEAV?$basic_istream@DU?$char_traits@D@std@@@std@@@std@@YA$$QEAV?$basic_istream@DU?$char_traits@D@std@@@0@AEAV10@@Z 000000014000c6d0 f i datagram.obj
 0001:0000b6e0       ??$move@AEAV?$basic_string@DU?$char_traits@D@std@@V?$allocator@D@2@@std@@@std@@YA$$QEAV?$basic_string@DU?$char_traits@D@std@@V?$allocator@D@2@@0@AEAV10@@Z 000000014000c6e0 f i datagram.obj
 0001:0000b6f0       ??$move@AEAV?$tuple@$$QEAH@std@@@std@@YA$$QEAV?$tuple@$$QEAH@0@AEAV10@@Z 000000014000c6f0 f i datagram.obj
 0001:0000b700       ??$swap@DX@std@@YAXAEAD0@Z 000000014000c700 f i datagram.obj
 0001:0000b750       ??$try_emplace@$$V@?$map@HV?$basic_string@DU?$char_traits@D@std@@V?$allocator@D@2@@std@@U?$less@H@2@V?$allocator@U?$pair@$$CBHV?$basic_string@DU?$char_traits@D@std@@V?$allocator@D@2@@std@@@std@@@2@@std@@QEAA?AU?$pair@V?$_Tree_iterator@V?$_Tree_val@U?$_Tree_simple_types@U?$pair@$$CBHV?$basic_string@DU?$char_traits@D@std@@V?$allocator@D@2@@std@@@std@@@std@@@std@@@std@@_N@1@$$QEAH@Z 000000014000c750 f i datagram.obj
 0001:0000b7a0       ??$use_facet@V?$ctype@D@std@@@std@@YAAEBV?$ctype@D@0@AEBVlocale@0@@Z 000000014000c7a0 f i datagram.obj
 0001:0000b8b0       ??0?$_Iterator012@Ubidirectional_iterator_tag@std@@U?$pair@$$CBHV?$basic_string@DU?$char_traits@D@std@@V?$allocator@D@2@@std@@@2@_JPEBU32@AEBU32@U_Iterator_base12@2@@std@@QEAA@$$QEAU01@@Z 000000014000c8b0 f i datagram.obj
 0001:0000b8e0       ??0?$_Iterator012@Ubidirectional_iterator_tag@std@@U?$pair@$$CBHV?$basic_string@DU?$char_traits@D@std@@V?$allocator@D@2@@std@@@2@_JPEBU32@AEBU32@U_Iterator_base12@2@@std@@QEAA@AEBU01@@Z 000000014000c8e0 f i datagram.obj
 0001:0000b910       ??0?$_Iterator012@Ubidirectional_iterator_tag@std@@U?$pair@$$CBHV?$basic_string@DU?$char_traits@D@std@@V?$allocator@D@2@@std@@@2@_JPEBU32@AEBU32@U_Iterator_base12@2@@std@@QEAA@XZ 000000014000c910 f i datagram.obj
 0001:0000b930       ??0?$_Iterator012@Urandom_access_iterator_tag@std@@D_JPEBDAEBDU_Iterator_base12@2@@std@@QEAA@$$QEAU01@@Z 000000014000c930 f i datagram.obj
 0001:0000b960       ??0?$_Iterator012@Urandom_access_iterator_tag@std@@D_JPEBDAEBDU_Iterator_base12@2@@std@@QEAA@AEBU01@@Z 000000014000c960 f i datagram.obj
 0001:0000b990       ??0?$_Iterator012@Urandom_access_iterator_tag@std@@D_JPEBDAEBDU_Iterator_base12@2@@std@@QEAA@XZ 000000014000c990 f i datagram.obj
 0001:0000b9b0       ??0?$_String_const_iterator@V?$_String_val@U?$_Simple_types@D@std@@@std@@@std@@QEAA@$$QEAV01@@Z 000000014000c9b0 f i datagram.obj
 0001:0000b9f0       ??0?$_String_const_iterator@V?$_String_val@U?$_Simple_types@D@std@@@std@@@std@@QEAA@AEBV01@@Z 000000014000c9f0 f i datagram.obj
 0001:0000ba30       ??0?$_String_const_iterator@V?$_String_val@U?$_Simple_types@D@std@@@std@@@std@@QEAA@PEBDPEBU_Container_base12@1@@Z 000000014000ca30 f i datagram.obj
 0001:0000ba80       ??0?$_String_iterator@V?$_String_val@U?$_Simple_types@D@std@@@std@@@std@@QEAA@AEBV01@@Z 000000014000ca80 f i datagram.obj
 0001:0000bab0       ??0?$_String_iterator@V?$_String_val@U?$_Simple_types@D@std@@@std@@@std@@QEAA@PEADPEBU_Container_base12@1@@Z 000000014000cab0 f i datagram.obj
 0001:0000baf0       ??0?$_Tree@V?$_Tmap_traits@HV?$basic_string@DU?$char_traits@D@std@@V?$allocator@D@2@@std@@U?$less@H@2@V?$allocator@U?$pair@$$CBHV?$basic_string@DU?$char_traits@D@std@@V?$allocator@D@2@@std@@@std@@@2@$0A@@std@@@std@@QEAA@AEBU?$less@H@1@@Z 000000014000caf0 f i datagram.obj
 0001:0000bb20       ??0?$_Tree_comp_alloc@V?$_Tmap_traits@HV?$basic_string@DU?$char_traits@D@std@@V?$allocator@D@2@@std@@U?$less@H@2@V?$allocator@U?$pair@$$CBHV?$basic_string@DU?$char_traits@D@std@@V?$allocator@D@2@@std@@@std@@@2@$0A@@std@@@std@@QEAA@AEBU?$less@H@1@@Z 000000014000cb20 f i datagram.obj
 0001:0000bb70       ??0?$_Tree_const_iterator@V?$_Tree_val@U?$_Tree_simple_types@U?$pair@$$CBHV?$basic_string@DU?$char_traits@D@std@@V?$allocator@D@2@@std@@@std@@@std@@@std@@@std@@QEAA@$$QEAV01@@Z 000000014000cb70 f i datagram.obj
 0001:0000bba0       ??0?$_Tree_const_iterator@V?$_Tree_val@U?$_Tree_simple_types@U?$pair@$$CBHV?$basic_string@DU?$char_traits@D@std@@V?$allocator@D@2@@std@@@std@@@std@@@std@@@std@@QEAA@AEBV01@@Z 000000014000cba0 f i datagram.obj
 0001:0000bbd0       ??0?$_Tree_const_iterator@V?$_Tree_val@U?$_Tree_simple_types@U?$pair@$$CBHV?$basic_string@DU?$char_traits@D@std@@V?$allocator@D@2@@std@@@std@@@std@@@std@@@std@@QEAA@PEAU?$_Tree_node@U?$pair@$$CBHV?$basic_string@DU?$char_traits@D@std@@V?$allocator@D@2@@std@@@std@@PEAX@1@PEBV?$_Tree_val@U?$_Tree_simple_types@U?$pair@$$CBHV?$basic_string@DU?$char_traits@D@std@@V?$allocator@D@2@@std@@@std@@@std@@@1@@Z 000000014000cbd0 f i datagram.obj
 0001:0000bc10       ??0?$_Tree_const_iterator@V?$_Tree_val@U?$_Tree_simple_types@U?$pair@$$CBHV?$basic_string@DU?$char_traits@D@std@@V?$allocator@D@2@@std@@@std@@@std@@@std@@@std@@QEAA@XZ 000000014000cc10 f i datagram.obj
 0001:0000bc30       ??0?$_Tree_iterator@V?$_Tree_val@U?$_Tree_simple_types@U?$pair@$$CBHV?$basic_string@DU?$char_traits@D@std@@V?$allocator@D@2@@std@@@std@@@std@@@std@@@std@@QEAA@$$QEAV01@@Z 000000014000cc30 f i datagram.obj
 0001:0000bc60       ??0?$_Tree_iterator@V?$_Tree_val@U?$_Tree_simple_types@U?$pair@$$CBHV?$basic_string@DU?$char_traits@D@std@@V?$allocator@D@2@@std@@@std@@@std@@@std@@@std@@QEAA@AEBV01@@Z 000000014000cc60 f i datagram.obj
 0001:0000bc90       ??0?$_Tree_iterator@V?$_Tree_val@U?$_Tree_simple_types@U?$pair@$$CBHV?$basic_string@DU?$char_traits@D@std@@V?$allocator@D@2@@std@@@std@@@std@@@std@@@std@@QEAA@PEAU?$_Tree_node@U?$pair@$$CBHV?$basic_string@DU?$char_traits@D@std@@V?$allocator@D@2@@std@@@std@@PEAX@1@PEBV?$_Tree_val@U?$_Tree_simple_types@U?$pair@$$CBHV?$basic_string@DU?$char_traits@D@std@@V?$allocator@D@2@@std@@@std@@@std@@@1@@Z 000000014000cc90 f i datagram.obj
 0001:0000bcd0       ??0?$_Tree_unchecked_const_iterator@V?$_Tree_val@U?$_Tree_simple_types@U?$pair@$$CBHV?$basic_string@DU?$char_traits@D@std@@V?$allocator@D@2@@std@@@std@@@std@@@std@@U_Iterator_base12@2@@std@@QEAA@$$QEAV01@@Z 000000014000ccd0 f i datagram.obj
 0001:0000bd10       ??0?$_Tree_unchecked_const_iterator@V?$_Tree_val@U?$_Tree_simple_types@U?$pair@$$CBHV?$basic_string@DU?$char_traits@D@std@@V?$allocator@D@2@@std@@@std@@@std@@@std@@U_Iterator_base12@2@@std@@QEAA@AEBV01@@Z 000000014000cd10 f i datagram.obj
 0001:0000bd50       ??0?$_Tree_unchecked_const_iterator@V?$_Tree_val@U?$_Tree_simple_types@U?$pair@$$CBHV?$basic_string@DU?$char_traits@D@std@@V?$allocator@D@2@@std@@@std@@@std@@@std@@U_Iterator_base12@2@@std@@QEAA@PEAU?$_Tree_node@U?$pair@$$CBHV?$basic_string@DU?$char_traits@D@std@@V?$allocator@D@2@@std@@@std@@PEAX@1@PEBV?$_Tree_val@U?$_Tree_simple_types@U?$pair@$$CBHV?$basic_string@DU?$char_traits@D@std@@V?$allocator@D@2@@std@@@std@@@std@@@1@@Z 000000014000cd50 f i datagram.obj
 0001:0000bda0       ??0?$_Tree_unchecked_const_iterator@V?$_Tree_val@U?$_Tree_simple_types@U?$pair@$$CBHV?$basic_string@DU?$char_traits@D@std@@V?$allocator@D@2@@std@@@std@@@std@@@std@@U_Iterator_base12@2@@std@@QEAA@XZ 000000014000cda0 f i datagram.obj
 0001:0000bdd0       ??0?$_Tree_val@U?$_Tree_simple_types@U?$pair@$$CBHV?$basic_string@DU?$char_traits@D@std@@V?$allocator@D@2@@std@@@std@@@std@@@std@@QEAA@XZ 000000014000cdd0 f i datagram.obj
 0001:0000be10       ??0?$_Wrap_alloc@V?$allocator@D@std@@@std@@QEAA@$$QEAU01@@Z 000000014000ce10 f i datagram.obj
 0001:0000be40       ??0?$_Wrap_alloc@V?$allocator@U?$_Tree_node@U?$pair@$$CBHV?$basic_string@DU?$char_traits@D@std@@V?$allocator@D@2@@std@@@std@@PEAX@std@@@std@@@std@@QEAA@XZ 000000014000ce40 f i datagram.obj
 0001:0000be60       ??0?$allocator@D@std@@QEAA@AEBV01@@Z 000000014000ce60 f i datagram.obj
 0001:0000be70       ??0?$allocator@U?$_Tree_node@U?$pair@$$CBHV?$basic_string@DU?$char_traits@D@std@@V?$allocator@D@2@@std@@@std@@PEAX@std@@@std@@QEAA@XZ 000000014000ce70 f i datagram.obj
 0001:0000be80       ??0?$basic_string@DU?$char_traits@D@std@@V?$allocator@D@2@@std@@QEAA@$$QEAV01@@Z 000000014000ce80 f i datagram.obj
 0001:0000bef0       ??0?$basic_string@DU?$char_traits@D@std@@V?$allocator@D@2@@std@@QEAA@AEBV01@@Z 000000014000cef0 f i datagram.obj
 0001:0000bf70       ??0?$basic_string@DU?$char_traits@D@std@@V?$allocator@D@2@@std@@QEAA@AEBV01@_K1AEBV?$allocator@D@1@@Z 000000014000cf70 f i datagram.obj
 0001:0000bfe0       ??0?$basic_string@DU?$char_traits@D@std@@V?$allocator@D@2@@std@@QEAA@PEBD_K@Z 000000014000cfe0 f i datagram.obj
 0001:0000c040       ??0?$basic_stringbuf@DU?$char_traits@D@std@@V?$allocator@D@2@@std@@QEAA@H@Z 000000014000d040 f i datagram.obj
 0001:0000c0b0       ??0?$basic_stringstream@DU?$char_traits@D@std@@V?$allocator@D@2@@std@@QEAA@H@Z 000000014000d0b0 f i datagram.obj
 0001:0000c1a0       ??0?$fpos@U_Mbstatet@@@std@@QEAA@_J@Z 000000014000d1a0 f i datagram.obj
 0001:0000c1f0       ??0?$map@HV?$basic_string@DU?$char_traits@D@std@@V?$allocator@D@2@@std@@U?$less@H@2@V?$allocator@U?$pair@$$CBHV?$basic_string@DU?$char_traits@D@std@@V?$allocator@D@2@@std@@@std@@@2@@std@@QEAA@XZ 000000014000d1f0 f i datagram.obj
 0001:0000c220       ??0?$tuple@$$QEAH@std@@QEAA@$$QEAV01@@Z 000000014000d220 f i datagram.obj
 0001:0000c260       ??0?$tuple@$$V@std@@QEAA@AEBV01@@Z 000000014000d260 f i datagram.obj
 0001:0000c270       ??0?$tuple@$$V@std@@QEAA@XZ 000000014000d270 f i datagram.obj
 0001:0000c280       ??0_Iterator_base12@std@@QEAA@AEBU01@@Z 000000014000d280 f i datagram.obj
 0001:0000c2c0       ??0_Sentry_base@?$basic_istream@DU?$char_traits@D@std@@@std@@QEAA@AEAV12@@Z 000000014000d2c0 f i datagram.obj
 0001:0000c360       ??0_Sentry_base@?$basic_ostream@DU?$char_traits@D@std@@@std@@QEAA@AEAV12@@Z 000000014000d360 f i datagram.obj
 0001:0000c400       ??0bad_cast@std@@QEAA@AEBV01@@Z 000000014000d400 f i datagram.obj
 0001:0000c440       ??0bad_cast@std@@QEAA@XZ   000000014000d440 f i datagram.obj
 0001:0000c480       ??0exception@std@@QEAA@QEBDH@Z 000000014000d480 f i datagram.obj
 0001:0000c4d0       ??0sentry@?$basic_istream@DU?$char_traits@D@std@@@std@@QEAA@AEAV12@_N@Z 000000014000d4d0 f i datagram.obj
 0001:0000c530       ??0sentry@?$basic_ostream@DU?$char_traits@D@std@@@std@@QEAA@AEAV12@@Z 000000014000d530 f i datagram.obj
 0001:0000c630       ??1?$_Compressed_pair@U?$_Wrap_alloc@V?$allocator@U?$_Tree_node@U?$pair@$$CBHV?$basic_string@DU?$char_traits@D@std@@V?$allocator@D@2@@std@@@std@@PEAX@std@@@std@@@std@@V?$_Tree_val@U?$_Tree_simple_types@U?$pair@$$CBHV?$basic_string@DU?$char_traits@D@std@@V?$allocator@D@2@@std@@@std@@@std@@@2@$00@std@@QEAA@XZ 000000014000d630 f i datagram.obj
 0001:0000c650       ??1?$_Compressed_pair@U?$less@H@std@@V?$_Compressed_pair@U?$_Wrap_alloc@V?$allocator@U?$_Tree_node@U?$pair@$$CBHV?$basic_string@DU?$char_traits@D@std@@V?$allocator@D@2@@std@@@std@@PEAX@std@@@std@@@std@@V?$_Tree_val@U?$_Tree_simple_types@U?$pair@$$CBHV?$basic_string@DU?$char_traits@D@std@@V?$allocator@D@2@@std@@@std@@@std@@@2@$00@2@$00@std@@QEAA@XZ 000000014000d650 f i datagram.obj
 0001:0000c670       ??1?$_Iterator012@Ubidirectional_iterator_tag@std@@U?$pair@$$CBHV?$basic_string@DU?$char_traits@D@std@@V?$allocator@D@2@@std@@@2@_JPEBU32@AEBU32@U_Iterator_base12@2@@std@@QEAA@XZ 000000014000d670 f i datagram.obj
 0001:0000c690       ??1?$_Iterator012@Urandom_access_iterator_tag@std@@D_JPEBDAEBDU_Iterator_base12@2@@std@@QEAA@XZ 000000014000d690 f i datagram.obj
 0001:0000c6b0       ??1?$_String_const_iterator@V?$_String_val@U?$_Simple_types@D@std@@@std@@@std@@QEAA@XZ 000000014000d6b0 f i datagram.obj
 0001:0000c6d0       ??1?$_String_iterator@V?$_String_val@U?$_Simple_types@D@std@@@std@@@std@@QEAA@XZ 000000014000d6d0 f i datagram.obj
 0001:0000c6f0       ??1?$_Tree@V?$_Tmap_traits@HV?$basic_string@DU?$char_traits@D@std@@V?$allocator@D@2@@std@@U?$less@H@2@V?$allocator@U?$pair@$$CBHV?$basic_string@DU?$char_traits@D@std@@V?$allocator@D@2@@std@@@std@@@2@$0A@@std@@@std@@QEAA@XZ 000000014000d6f0 f i datagram.obj
 0001:0000c720       ??1?$_Tree_comp_alloc@V?$_Tmap_traits@HV?$basic_string@DU?$char_traits@D@std@@V?$allocator@D@2@@std@@U?$less@H@2@V?$allocator@U?$pair@$$CBHV?$basic_string@DU?$char_traits@D@std@@V?$allocator@D@2@@std@@@std@@@2@$0A@@std@@@std@@QEAA@XZ 000000014000d720 f i datagram.obj
 0001:0000c770       ??1?$_Tree_const_iterator@V?$_Tree_val@U?$_Tree_simple_types@U?$pair@$$CBHV?$basic_string@DU?$char_traits@D@std@@V?$allocator@D@2@@std@@@std@@@std@@@std@@@std@@QEAA@XZ 000000014000d770 f i datagram.obj
 0001:0000c790       ??1?$_Tree_iterator@V?$_Tree_val@U?$_Tree_simple_types@U?$pair@$$CBHV?$basic_string@DU?$char_traits@D@std@@V?$allocator@D@2@@std@@@std@@@std@@@std@@@std@@QEAA@XZ 000000014000d790 f i datagram.obj
 0001:0000c7b0       ??1?$_Tree_unchecked_const_iterator@V?$_Tree_val@U?$_Tree_simple_types@U?$pair@$$CBHV?$basic_string@DU?$char_traits@D@std@@V?$allocator@D@2@@std@@@std@@@std@@@std@@U_Iterator_base12@2@@std@@QEAA@XZ 000000014000d7b0 f i datagram.obj
 0001:0000c7d0       ??1?$_Tree_val@U?$_Tree_simple_types@U?$pair@$$CBHV?$basic_string@DU?$char_traits@D@std@@V?$allocator@D@2@@std@@@std@@@std@@@std@@QEAA@XZ 000000014000d7d0 f i datagram.obj
 0001:0000c7f0       ??1?$basic_stringbuf@DU?$char_traits@D@std@@V?$allocator@D@2@@std@@UEAA@XZ 000000014000d7f0 f i datagram.obj
 0001:0000c830       ??1?$basic_stringstream@DU?$char_traits@D@std@@V?$allocator@D@2@@std@@UEAA@XZ 000000014000d830 f i datagram.obj
 0001:0000c8c0       ??1?$map@HV?$basic_string@DU?$char_traits@D@std@@V?$allocator@D@2@@std@@U?$less@H@2@V?$allocator@U?$pair@$$CBHV?$basic_string@DU?$char_traits@D@std@@V?$allocator@D@2@@std@@@std@@@2@@std@@QEAA@XZ 000000014000d8c0 f i datagram.obj
 0001:0000c8e0       ??1?$pair@$$CBHV?$basic_string@DU?$char_traits@D@std@@V?$allocator@D@2@@std@@@std@@QEAA@XZ 000000014000d8e0 f i datagram.obj
 0001:0000c900       ??1?$pair@V?$_Tree_iterator@V?$_Tree_val@U?$_Tree_simple_types@U?$pair@$$CBHV?$basic_string@DU?$char_traits@D@std@@V?$allocator@D@2@@std@@@std@@@std@@@std@@@std@@_N@std@@QEAA@XZ 000000014000d900 f i datagram.obj
 0001:0000c920       ??1_Sentry_base@?$basic_istream@DU?$char_traits@D@std@@@std@@QEAA@XZ 000000014000d920 f i datagram.obj
 0001:0000c9b0       ??1_Sentry_base@?$basic_ostream@DU?$char_traits@D@std@@@std@@QEAA@XZ 000000014000d9b0 f i datagram.obj
 0001:0000ca40       ??1bad_cast@std@@UEAA@XZ   000000014000da40 f i datagram.obj
 0001:0000ca60       ??1locale@std@@QEAA@XZ     000000014000da60 f i datagram.obj
 0001:0000cae0       ??1sentry@?$basic_istream@DU?$char_traits@D@std@@@std@@QEAA@XZ 000000014000dae0 f i datagram.obj
 0001:0000cb00       ??1sentry@?$basic_ostream@DU?$char_traits@D@std@@@std@@QEAA@XZ 000000014000db00 f i datagram.obj
 0001:0000cb40       ??3@YAXPEAX0@Z             000000014000db40 f i datagram.obj
 0001:0000cb50       ??4?$_Iterator012@Ubidirectional_iterator_tag@std@@U?$pair@$$CBHV?$basic_string@DU?$char_traits@D@std@@V?$allocator@D@2@@std@@@2@_JPEBU32@AEBU32@U_Iterator_base12@2@@std@@QEAAAEAU01@AEBU01@@Z 000000014000db50 f i datagram.obj
 0001:0000cb80       ??4?$_Tree_const_iterator@V?$_Tree_val@U?$_Tree_simple_types@U?$pair@$$CBHV?$basic_string@DU?$char_traits@D@std@@V?$allocator@D@2@@std@@@std@@@std@@@std@@@std@@QEAAAEAV01@AEBV01@@Z 000000014000db80 f i datagram.obj
 0001:0000cbb0       ??4?$_Tree_unchecked_const_iterator@V?$_Tree_val@U?$_Tree_simple_types@U?$pair@$$CBHV?$basic_string@DU?$char_traits@D@std@@V?$allocator@D@2@@std@@@std@@@std@@@std@@U_Iterator_base12@2@@std@@QEAAAEAV01@AEBV01@@Z 000000014000dbb0 f i datagram.obj
 0001:0000cbf0       ??4?$_Wrap_alloc@V?$allocator@D@std@@@std@@QEAAAEAU01@$$QEAU01@@Z 000000014000dbf0 f i datagram.obj
 0001:0000cc20       ??4?$basic_string@DU?$char_traits@D@std@@V?$allocator@D@2@@std@@QEAAAEAV01@$$QEAV01@@Z 000000014000dc20 f i datagram.obj
 0001:0000cd90       ??4?$basic_string@DU?$char_traits@D@std@@V?$allocator@D@2@@std@@QEAAAEAV01@PEBD@Z 000000014000dd90 f i datagram.obj
 0001:0000cdc0       ??4_Iterator_base12@std@@QEAAAEAU01@AEBU01@@Z 000000014000ddc0 f i datagram.obj
 0001:0000ce40       ??8?$_String_const_iterator@V?$_String_val@U?$_Simple_types@D@std@@@std@@@std@@QEBA_NAEBV01@@Z 000000014000de40 f i datagram.obj
 0001:0000ce90       ??8?$_Tree_const_iterator@V?$_Tree_val@U?$_Tree_simple_types@U?$pair@$$CBHV?$basic_string@DU?$char_traits@D@std@@V?$allocator@D@2@@std@@@std@@@std@@@std@@@std@@QEBA_NAEBV01@@Z 000000014000de90 f i datagram.obj
 0001:0000cf90       ??9?$_Tree_const_iterator@V?$_Tree_val@U?$_Tree_simple_types@U?$pair@$$CBHV?$basic_string@DU?$char_traits@D@std@@V?$allocator@D@2@@std@@@std@@@std@@@std@@@std@@QEBA_NAEBV01@@Z 000000014000df90 f i datagram.obj
 0001:0000cfd0       ??A?$XsArrayImpl@E$1?g_xsByteArrayDescriptor@@3UXsArrayDescriptor@@BUXsByteArray@@@@QEBAAEAE_K@Z 000000014000dfd0 f i datagram.obj
 0001:0000d000       ??A?$map@HV?$basic_string@DU?$char_traits@D@std@@V?$allocator@D@2@@std@@U?$less@H@2@V?$allocator@U?$pair@$$CBHV?$basic_string@DU?$char_traits@D@std@@V?$allocator@D@2@@std@@@std@@@2@@std@@QEAAAEAV?$basic_string@DU?$char_traits@D@std@@V?$allocator@D@2@@1@$$QEAH@Z 000000014000e000 f i datagram.obj
 0001:0000d070       ??B?$fpos@U_Mbstatet@@@std@@QEBA_JXZ 000000014000e070 f i datagram.obj
 0001:0000d090       ??Bsentry@?$basic_istream@DU?$char_traits@D@std@@@std@@QEBA_NXZ 000000014000e090 f i datagram.obj
 0001:0000d0a0       ??Bsentry@?$basic_ostream@DU?$char_traits@D@std@@@std@@QEBA_NXZ 000000014000e0a0 f i datagram.obj
 0001:0000d0b0       ??C?$_Tree_const_iterator@V?$_Tree_val@U?$_Tree_simple_types@U?$pair@$$CBHV?$basic_string@DU?$char_traits@D@std@@V?$allocator@D@2@@std@@@std@@@std@@@std@@@std@@QEBAPEBU?$pair@$$CBHV?$basic_string@DU?$char_traits@D@std@@V?$allocator@D@2@@std@@@1@XZ 000000014000e0b0 f i datagram.obj
 0001:0000d0d0       ??C?$_Tree_iterator@V?$_Tree_val@U?$_Tree_simple_types@U?$pair@$$CBHV?$basic_string@DU?$char_traits@D@std@@V?$allocator@D@2@@std@@@std@@@std@@@std@@@std@@QEBAPEAU?$pair@$$CBHV?$basic_string@DU?$char_traits@D@std@@V?$allocator@D@2@@std@@@1@XZ 000000014000e0d0 f i datagram.obj
 0001:0000d0f0       ??D?$_String_const_iterator@V?$_String_val@U?$_Simple_types@D@std@@@std@@@std@@QEBAAEBDXZ 000000014000e0f0 f i datagram.obj
 0001:0000d240       ??D?$_String_iterator@V?$_String_val@U?$_Simple_types@D@std@@@std@@@std@@QEBAAEADXZ 000000014000e240 f i datagram.obj
 0001:0000d260       ??D?$_Tree_const_iterator@V?$_Tree_val@U?$_Tree_simple_types@U?$pair@$$CBHV?$basic_string@DU?$char_traits@D@std@@V?$allocator@D@2@@std@@@std@@@std@@@std@@@std@@QEBAAEBU?$pair@$$CBHV?$basic_string@DU?$char_traits@D@std@@V?$allocator@D@2@@std@@@1@XZ 000000014000e260 f i datagram.obj
 0001:0000d350       ??D?$_Tree_iterator@V?$_Tree_val@U?$_Tree_simple_types@U?$pair@$$CBHV?$basic_string@DU?$char_traits@D@std@@V?$allocator@D@2@@std@@@std@@@std@@@std@@@std@@QEBAAEAU?$pair@$$CBHV?$basic_string@DU?$char_traits@D@std@@V?$allocator@D@2@@std@@@1@XZ 000000014000e350 f i datagram.obj
 0001:0000d370       ??E?$_Tree_const_iterator@V?$_Tree_val@U?$_Tree_simple_types@U?$pair@$$CBHV?$basic_string@DU?$char_traits@D@std@@V?$allocator@D@2@@std@@@std@@@std@@@std@@@std@@QEAA?AV01@H@Z 000000014000e370 f i datagram.obj
 0001:0000d3e0       ??E?$_Tree_const_iterator@V?$_Tree_val@U?$_Tree_simple_types@U?$pair@$$CBHV?$basic_string@DU?$char_traits@D@std@@V?$allocator@D@2@@std@@@std@@@std@@@std@@@std@@QEAAAEAV01@XZ 000000014000e3e0 f i datagram.obj
 0001:0000d4d0       ??E?$_Tree_unchecked_const_iterator@V?$_Tree_val@U?$_Tree_simple_types@U?$pair@$$CBHV?$basic_string@DU?$char_traits@D@std@@V?$allocator@D@2@@std@@@std@@@std@@@std@@U_Iterator_base12@2@@std@@QEAAAEAV01@XZ 000000014000e4d0 f i datagram.obj
 0001:0000d5a0       ??F?$_Tree_const_iterator@V?$_Tree_val@U?$_Tree_simple_types@U?$pair@$$CBHV?$basic_string@DU?$char_traits@D@std@@V?$allocator@D@2@@std@@@std@@@std@@@std@@@std@@QEAAAEAV01@XZ 000000014000e5a0 f i datagram.obj
 0001:0000d720       ??F?$_Tree_iterator@V?$_Tree_val@U?$_Tree_simple_types@U?$pair@$$CBHV?$basic_string@DU?$char_traits@D@std@@V?$allocator@D@2@@std@@@std@@@std@@@std@@@std@@QEAAAEAV01@XZ 000000014000e720 f i datagram.obj
 0001:0000d740       ??F?$_Tree_unchecked_const_iterator@V?$_Tree_val@U?$_Tree_simple_types@U?$pair@$$CBHV?$basic_string@DU?$char_traits@D@std@@V?$allocator@D@2@@std@@@std@@@std@@@std@@U_Iterator_base12@2@@std@@QEAAAEAV01@XZ 000000014000e740 f i datagram.obj
 0001:0000d840       ??G?$_String_const_iterator@V?$_String_val@U?$_Simple_types@D@std@@@std@@@std@@QEBA_JAEBV01@@Z 000000014000e840 f i datagram.obj
 0001:0000d880       ??G?$_String_iterator@V?$_String_val@U?$_Simple_types@D@std@@@std@@@std@@QEBA_JAEBV?$_String_const_iterator@V?$_String_val@U?$_Simple_types@D@std@@@std@@@1@@Z 000000014000e880 f i datagram.obj
 0001:0000d8b0       ??R?$less@H@std@@QEBA_NAEBH0@Z 000000014000e8b0 f i datagram.obj
 0001:0000d8f0       ??_D?$basic_stringstream@DU?$char_traits@D@std@@V?$allocator@D@2@@std@@QEAAXXZ 000000014000e8f0 f i datagram.obj
 0001:0000d928       ??_E?$basic_stringstream@DU?$char_traits@D@std@@V?$allocator@D@2@@std@@$4PPPPPPPM@A@EAAPEAXI@Z 000000014000e928 f i datagram.obj
 0001:0000d940       ??_E?$basic_stringbuf@DU?$char_traits@D@std@@V?$allocator@D@2@@std@@UEAAPEAXI@Z 000000014000e940 f i datagram.obj
 0001:0000d940       ??_G?$basic_stringbuf@DU?$char_traits@D@std@@V?$allocator@D@2@@std@@UEAAPEAXI@Z 000000014000e940 f i datagram.obj
 0001:0000d980       ??_G?$basic_stringstream@DU?$char_traits@D@std@@V?$allocator@D@2@@std@@UEAAPEAXI@Z 000000014000e980 f i datagram.obj
 0001:0000d980       ??_E?$basic_stringstream@DU?$char_traits@D@std@@V?$allocator@D@2@@std@@UEAAPEAXI@Z 000000014000e980 f i datagram.obj
 0001:0000d9e0       ??_G?$pair@$$CBHV?$basic_string@DU?$char_traits@D@std@@V?$allocator@D@2@@std@@@std@@QEAAPEAXI@Z 000000014000e9e0 f i datagram.obj
 0001:0000da20       ??_Ebad_cast@std@@UEAAPEAXI@Z 000000014000ea20 f i datagram.obj
 0001:0000da20       ??_Gbad_cast@std@@UEAAPEAXI@Z 000000014000ea20 f i datagram.obj
 0001:0000da60       ?_Alloc_proxy@?$_Tree_comp_alloc@V?$_Tmap_traits@HV?$basic_string@DU?$char_traits@D@std@@V?$allocator@D@2@@std@@U?$less@H@2@V?$allocator@U?$pair@$$CBHV?$basic_string@DU?$char_traits@D@std@@V?$allocator@D@2@@std@@@std@@@2@$0A@@std@@@std@@QEAAXXZ 000000014000ea60 f i datagram.obj
 0001:0000db10       ?_Assign_rv@?$basic_string@DU?$char_traits@D@std@@V?$allocator@D@2@@std@@QEAAX$$QEAV12@@Z 000000014000eb10 f i datagram.obj
 0001:0000dc30       ?_Buyheadnode@?$_Tree_comp_alloc@V?$_Tmap_traits@HV?$basic_string@DU?$char_traits@D@std@@V?$allocator@D@2@@std@@U?$less@H@2@V?$allocator@U?$pair@$$CBHV?$basic_string@DU?$char_traits@D@std@@V?$allocator@D@2@@std@@@std@@@2@$0A@@std@@@std@@QEAAPEAU?$_Tree_node@U?$pair@$$CBHV?$basic_string@DU?$char_traits@D@std@@V?$allocator@D@2@@std@@@std@@PEAX@2@XZ 000000014000ec30 f i datagram.obj
 0001:0000dd40       ?_Buynode0@?$_Tree_comp_alloc@V?$_Tmap_traits@HV?$basic_string@DU?$char_traits@D@std@@V?$allocator@D@2@@std@@U?$less@H@2@V?$allocator@U?$pair@$$CBHV?$basic_string@DU?$char_traits@D@std@@V?$allocator@D@2@@std@@@std@@@2@$0A@@std@@@std@@QEAAPEAU?$_Tree_node@U?$pair@$$CBHV?$basic_string@DU?$char_traits@D@std@@V?$allocator@D@2@@std@@@std@@PEAX@2@XZ 000000014000ed40 f i datagram.obj
 0001:0000de90       ?_Chassign@?$basic_string@DU?$char_traits@D@std@@V?$allocator@D@2@@std@@QEAAX_K0D@Z 000000014000ee90 f i datagram.obj
 0001:0000df00       ?_Color@?$_Tree_comp_alloc@V?$_Tmap_traits@HV?$basic_string@DU?$char_traits@D@std@@V?$allocator@D@2@@std@@U?$less@H@2@V?$allocator@U?$pair@$$CBHV?$basic_string@DU?$char_traits@D@std@@V?$allocator@D@2@@std@@@std@@@2@$0A@@std@@@std@@SAAEADPEAU?$_Tree_node@U?$pair@$$CBHV?$basic_string@DU?$char_traits@D@std@@V?$allocator@D@2@@std@@@std@@PEAX@2@@Z 000000014000ef00 f i datagram.obj
 0001:0000df20       ?_Color@?$_Tree_val@U?$_Tree_simple_types@U?$pair@$$CBHV?$basic_string@DU?$char_traits@D@std@@V?$allocator@D@2@@std@@@std@@@std@@@std@@SAAEADPEAU?$_Tree_node@U?$pair@$$CBHV?$basic_string@DU?$char_traits@D@std@@V?$allocator@D@2@@std@@@std@@PEAX@2@@Z 000000014000ef20 f i datagram.obj
 0001:0000df30       ?_Compare@?$_Tree@V?$_Tmap_traits@HV?$basic_string@DU?$char_traits@D@std@@V?$allocator@D@2@@std@@U?$less@H@2@V?$allocator@U?$pair@$$CBHV?$basic_string@DU?$char_traits@D@std@@V?$allocator@D@2@@std@@@std@@@2@$0A@@std@@@std@@IEBA_NAEBH0@Z 000000014000ef30 f i datagram.obj
 0001:0000df80       ?_Compat@?$_String_const_iterator@V?$_String_val@U?$_Simple_types@D@std@@@std@@@std@@QEBAXAEBV12@@Z 000000014000ef80 f i datagram.obj
 0001:0000e050       ?_Construct@?$_Tree_comp_alloc@V?$_Tmap_traits@HV?$basic_string@DU?$char_traits@D@std@@V?$allocator@D@2@@std@@U?$less@H@2@V?$allocator@U?$pair@$$CBHV?$basic_string@DU?$char_traits@D@std@@V?$allocator@D@2@@std@@@std@@@2@$0A@@std@@@std@@QEAAXXZ 000000014000f050 f i datagram.obj
 0001:0000e0a0       ?_Destroy_if_not_nil@?$_Tree@V?$_Tmap_traits@HV?$basic_string@DU?$char_traits@D@std@@V?$allocator@D@2@@std@@U?$less@H@2@V?$allocator@U?$pair@$$CBHV?$basic_string@DU?$char_traits@D@std@@V?$allocator@D@2@@std@@@std@@@2@$0A@@std@@@std@@IEAAXPEAU?$_Tree_node@U?$pair@$$CBHV?$basic_string@DU?$char_traits@D@std@@V?$allocator@D@2@@std@@@std@@PEAX@2@@Z 000000014000f0a0 f i datagram.obj
 0001:0000e110       ?_Erase@?$_Tree@V?$_Tmap_traits@HV?$basic_string@DU?$char_traits@D@std@@V?$allocator@D@2@@std@@U?$less@H@2@V?$allocator@U?$pair@$$CBHV?$basic_string@DU?$char_traits@D@std@@V?$allocator@D@2@@std@@@std@@@2@$0A@@std@@@std@@IEAAXPEAU?$_Tree_node@U?$pair@$$CBHV?$basic_string@DU?$char_traits@D@std@@V?$allocator@D@2@@std@@@std@@PEAX@2@@Z 000000014000f110 f i datagram.obj
 0001:0000e1d0       ?_Free_proxy@?$_Tree_comp_alloc@V?$_Tmap_traits@HV?$basic_string@DU?$char_traits@D@std@@V?$allocator@D@2@@std@@U?$less@H@2@V?$allocator@U?$pair@$$CBHV?$basic_string@DU?$char_traits@D@std@@V?$allocator@D@2@@std@@@std@@@2@$0A@@std@@@std@@QEAAXXZ 000000014000f1d0 f i datagram.obj
 0001:0000e260       ?_Freeheadnode@?$_Tree_comp_alloc@V?$_Tmap_traits@HV?$basic_string@DU?$char_traits@D@std@@V?$allocator@D@2@@std@@U?$less@H@2@V?$allocator@U?$pair@$$CBHV?$basic_string@DU?$char_traits@D@std@@V?$allocator@D@2@@std@@@std@@@2@$0A@@std@@@std@@QEAAXPEAU?$_Tree_node@U?$pair@$$CBHV?$basic_string@DU?$char_traits@D@std@@V?$allocator@D@2@@std@@@std@@PEAX@2@@Z 000000014000f260 f i datagram.obj
 0001:0000e330       ?_Freenode0@?$_Tree_comp_alloc@V?$_Tmap_traits@HV?$basic_string@DU?$char_traits@D@std@@V?$allocator@D@2@@std@@U?$less@H@2@V?$allocator@U?$pair@$$CBHV?$basic_string@DU?$char_traits@D@std@@V?$allocator@D@2@@std@@@std@@@2@$0A@@std@@@std@@QEAAXPEAU?$_Tree_node@U?$pair@$$CBHV?$basic_string@DU?$char_traits@D@std@@V?$allocator@D@2@@std@@@std@@PEAX@2@@Z 000000014000f330 f i datagram.obj
 0001:0000e400       ?_Get_data@?$_Tree_comp_alloc@V?$_Tmap_traits@HV?$basic_string@DU?$char_traits@D@std@@V?$allocator@D@2@@std@@U?$less@H@2@V?$allocator@U?$pair@$$CBHV?$basic_string@DU?$char_traits@D@std@@V?$allocator@D@2@@std@@@std@@@2@$0A@@std@@@std@@QEAAAEAV?$_Tree_val@U?$_Tree_simple_types@U?$pair@$$CBHV?$basic_string@DU?$char_traits@D@std@@V?$allocator@D@2@@std@@@std@@@std@@@2@XZ 000000014000f400 f i datagram.obj
 0001:0000e430       ?_Get_data@?$_Tree_comp_alloc@V?$_Tmap_traits@HV?$basic_string@DU?$char_traits@D@std@@V?$allocator@D@2@@std@@U?$less@H@2@V?$allocator@U?$pair@$$CBHV?$basic_string@DU?$char_traits@D@std@@V?$allocator@D@2@@std@@@std@@@2@$0A@@std@@@std@@QEBAAEBV?$_Tree_val@U?$_Tree_simple_types@U?$pair@$$CBHV?$basic_string@DU?$char_traits@D@std@@V?$allocator@D@2@@std@@@std@@@std@@@2@XZ 000000014000f430 f i datagram.obj
 0001:0000e460       ?_Get_first@?$_Compressed_pair@U?$_Wrap_alloc@V?$allocator@U?$_Tree_node@U?$pair@$$CBHV?$basic_string@DU?$char_traits@D@std@@V?$allocator@D@2@@std@@@std@@PEAX@std@@@std@@@std@@V?$_Tree_val@U?$_Tree_simple_types@U?$pair@$$CBHV?$basic_string@DU?$char_traits@D@std@@V?$allocator@D@2@@std@@@std@@@std@@@2@$00@std@@QEAAAEAU?$_Wrap_alloc@V?$allocator@U?$_Tree_node@U?$pair@$$CBHV?$basic_string@DU?$char_traits@D@std@@V?$allocator@D@2@@std@@@std@@PEAX@std@@@std@@@2@XZ 000000014000f460 f i datagram.obj
 0001:0000e470       ?_Get_first@?$_Compressed_pair@U?$_Wrap_alloc@V?$allocator@U?$_Tree_node@U?$pair@$$CBHV?$basic_string@DU?$char_traits@D@std@@V?$allocator@D@2@@std@@@std@@PEAX@std@@@std@@@std@@V?$_Tree_val@U?$_Tree_simple_types@U?$pair@$$CBHV?$basic_string@DU?$char_traits@D@std@@V?$allocator@D@2@@std@@@std@@@std@@@2@$00@std@@QEBAAEBU?$_Wrap_alloc@V?$allocator@U?$_Tree_node@U?$pair@$$CBHV?$basic_string@DU?$char_traits@D@std@@V?$allocator@D@2@@std@@@std@@PEAX@std@@@std@@@2@XZ 000000014000f470 f i datagram.obj
 0001:0000e480       ?_Get_first@?$_Compressed_pair@U?$less@H@std@@V?$_Compressed_pair@U?$_Wrap_alloc@V?$allocator@U?$_Tree_node@U?$pair@$$CBHV?$basic_string@DU?$char_traits@D@std@@V?$allocator@D@2@@std@@@std@@PEAX@std@@@std@@@std@@V?$_Tree_val@U?$_Tree_simple_types@U?$pair@$$CBHV?$basic_string@DU?$char_traits@D@std@@V?$allocator@D@2@@std@@@std@@@std@@@2@$00@2@$00@std@@QEAAAEAU?$less@H@2@XZ 000000014000f480 f i datagram.obj
 0001:0000e490       ?_Get_first@?$_Compressed_pair@U?$less@H@std@@V?$_Compressed_pair@U?$_Wrap_alloc@V?$allocator@U?$_Tree_node@U?$pair@$$CBHV?$basic_string@DU?$char_traits@D@std@@V?$allocator@D@2@@std@@@std@@PEAX@std@@@std@@@std@@V?$_Tree_val@U?$_Tree_simple_types@U?$pair@$$CBHV?$basic_string@DU?$char_traits@D@std@@V?$allocator@D@2@@std@@@std@@@std@@@2@$00@2@$00@std@@QEBAAEBU?$less@H@2@XZ 000000014000f490 f i datagram.obj
 0001:0000e4a0       ?_Get_second@?$_Compressed_pair@U?$_Wrap_alloc@V?$allocator@U?$_Tree_node@U?$pair@$$CBHV?$basic_string@DU?$char_traits@D@std@@V?$allocator@D@2@@std@@@std@@PEAX@std@@@std@@@std@@V?$_Tree_val@U?$_Tree_simple_types@U?$pair@$$CBHV?$basic_string@DU?$char_traits@D@std@@V?$allocator@D@2@@std@@@std@@@std@@@2@$00@std@@QEAAAEAV?$_Tree_val@U?$_Tree_simple_types@U?$pair@$$CBHV?$basic_string@DU?$char_traits@D@std@@V?$allocator@D@2@@std@@@std@@@std@@@2@XZ 000000014000f4a0 f i datagram.obj
 0001:0000e4b0       ?_Get_second@?$_Compressed_pair@U?$_Wrap_alloc@V?$allocator@U?$_Tree_node@U?$pair@$$CBHV?$basic_string@DU?$char_traits@D@std@@V?$allocator@D@2@@std@@@std@@PEAX@std@@@std@@@std@@V?$_Tree_val@U?$_Tree_simple_types@U?$pair@$$CBHV?$basic_string@DU?$char_traits@D@std@@V?$allocator@D@2@@std@@@std@@@std@@@2@$00@std@@QEBAAEBV?$_Tree_val@U?$_Tree_simple_types@U?$pair@$$CBHV?$basic_string@DU?$char_traits@D@std@@V?$allocator@D@2@@std@@@std@@@std@@@2@XZ 000000014000f4b0 f i datagram.obj
 0001:0000e4c0       ?_Get_second@?$_Compressed_pair@U?$less@H@std@@V?$_Compressed_pair@U?$_Wrap_alloc@V?$allocator@U?$_Tree_node@U?$pair@$$CBHV?$basic_string@DU?$char_traits@D@std@@V?$allocator@D@2@@std@@@std@@PEAX@std@@@std@@@std@@V?$_Tree_val@U?$_Tree_simple_types@U?$pair@$$CBHV?$basic_string@DU?$char_traits@D@std@@V?$allocator@D@2@@std@@@std@@@std@@@2@$00@2@$00@std@@QEAAAEAV?$_Compressed_pair@U?$_Wrap_alloc@V?$allocator@U?$_Tree_node@U?$pair@$$CBHV?$basic_string@DU?$char_traits@D@std@@V?$allocator@D@2@@std@@@std@@PEAX@std@@@std@@@std@@V?$_Tree_val@U?$_Tree_simple_types@U?$pair@$$CBHV?$basic_string@DU?$char_traits@D@std@@V?$allocator@D@2@@std@@@std@@@std@@@2@$00@2@XZ 000000014000f4c0 f i datagram.obj
 0001:0000e4d0       ?_Get_second@?$_Compressed_pair@U?$less@H@std@@V?$_Compressed_pair@U?$_Wrap_alloc@V?$allocator@U?$_Tree_node@U?$pair@$$CBHV?$basic_string@DU?$char_traits@D@std@@V?$allocator@D@2@@std@@@std@@PEAX@std@@@std@@@std@@V?$_Tree_val@U?$_Tree_simple_types@U?$pair@$$CBHV?$basic_string@DU?$char_traits@D@std@@V?$allocator@D@2@@std@@@std@@@std@@@2@$00@2@$00@std@@QEBAAEBV?$_Compressed_pair@U?$_Wrap_alloc@V?$allocator@U?$_Tree_node@U?$pair@$$CBHV?$basic_string@DU?$char_traits@D@std@@V?$allocator@D@2@@std@@@std@@PEAX@std@@@std@@@std@@V?$_Tree_val@U?$_Tree_simple_types@U?$pair@$$CBHV?$basic_string@DU?$char_traits@D@std@@V?$allocator@D@2@@std@@@std@@@std@@@2@$00@2@XZ 000000014000f4d0 f i datagram.obj
 0001:0000e4e0       ?_Getal@?$_Tree_comp_alloc@V?$_Tmap_traits@HV?$basic_string@DU?$char_traits@D@std@@V?$allocator@D@2@@std@@U?$less@H@2@V?$allocator@U?$pair@$$CBHV?$basic_string@DU?$char_traits@D@std@@V?$allocator@D@2@@std@@@std@@@2@$0A@@std@@@std@@QEAAAEAU?$_Wrap_alloc@V?$allocator@U?$_Tree_node@U?$pair@$$CBHV?$basic_string@DU?$char_traits@D@std@@V?$allocator@D@2@@std@@@std@@PEAX@std@@@std@@@2@XZ 000000014000f4e0 f i datagram.obj
 0001:0000e510       ?_Getal@?$_Tree_comp_alloc@V?$_Tmap_traits@HV?$basic_string@DU?$char_traits@D@std@@V?$allocator@D@2@@std@@U?$less@H@2@V?$allocator@U?$pair@$$CBHV?$basic_string@DU?$char_traits@D@std@@V?$allocator@D@2@@std@@@std@@@2@$0A@@std@@@std@@QEBAAEBU?$_Wrap_alloc@V?$allocator@U?$_Tree_node@U?$pair@$$CBHV?$basic_string@DU?$char_traits@D@std@@V?$allocator@D@2@@std@@@std@@PEAX@std@@@std@@@2@XZ 000000014000f510 f i datagram.obj
 0001:0000e540       ?_Getcomp@?$_Tree_comp_alloc@V?$_Tmap_traits@HV?$basic_string@DU?$char_traits@D@std@@V?$allocator@D@2@@std@@U?$less@H@2@V?$allocator@U?$pair@$$CBHV?$basic_string@DU?$char_traits@D@std@@V?$allocator@D@2@@std@@@std@@@2@$0A@@std@@@std@@QEAAAEAU?$less@H@2@XZ 000000014000f540 f i datagram.obj
 0001:0000e560       ?_Getcomp@?$_Tree_comp_alloc@V?$_Tmap_traits@HV?$basic_string@DU?$char_traits@D@std@@V?$allocator@D@2@@std@@U?$less@H@2@V?$allocator@U?$pair@$$CBHV?$basic_string@DU?$char_traits@D@std@@V?$allocator@D@2@@std@@@std@@@2@$0A@@std@@@std@@QEBAAEBU?$less@H@2@XZ 000000014000f560 f i datagram.obj
 0001:0000e580       ?_Getfacet@locale@std@@QEBAPEBVfacet@12@_K@Z 000000014000f580 f i datagram.obj
 0001:0000e640       ?_Getpfirst@?$_Tree_comp_alloc@V?$_Tmap_traits@HV?$basic_string@DU?$char_traits@D@std@@V?$allocator@D@2@@std@@U?$less@H@2@V?$allocator@U?$pair@$$CBHV?$basic_string@DU?$char_traits@D@std@@V?$allocator@D@2@@std@@@std@@@2@$0A@@std@@@std@@QEBAPEAPEAU_Iterator_base12@2@XZ 000000014000f640 f i datagram.obj
 0001:0000e660       ?_Getstate@?$basic_stringbuf@DU?$char_traits@D@std@@V?$allocator@D@2@@std@@AEAAHH@Z 000000014000f660 f i datagram.obj
 0001:0000e6d0       ?_Init@?$basic_stringbuf@DU?$char_traits@D@std@@V?$allocator@D@2@@std@@IEAAXPEBD_KH@Z 000000014000f6d0 f i datagram.obj
 0001:0000e850       ?_Isnil@?$_Tree_comp_alloc@V?$_Tmap_traits@HV?$basic_string@DU?$char_traits@D@std@@V?$allocator@D@2@@std@@U?$less@H@2@V?$allocator@U?$pair@$$CBHV?$basic_string@DU?$char_traits@D@std@@V?$allocator@D@2@@std@@@std@@@2@$0A@@std@@@std@@SAAEADPEAU?$_Tree_node@U?$pair@$$CBHV?$basic_string@DU?$char_traits@D@std@@V?$allocator@D@2@@std@@@std@@PEAX@2@@Z 000000014000f850 f i datagram.obj
 0001:0000e870       ?_Isnil@?$_Tree_val@U?$_Tree_simple_types@U?$pair@$$CBHV?$basic_string@DU?$char_traits@D@std@@V?$allocator@D@2@@std@@@std@@@std@@@std@@SAAEADPEAU?$_Tree_node@U?$pair@$$CBHV?$basic_string@DU?$char_traits@D@std@@V?$allocator@D@2@@std@@@std@@PEAX@2@@Z 000000014000f870 f i datagram.obj
 0001:0000e880       ?_Key@?$_Tree@V?$_Tmap_traits@HV?$basic_string@DU?$char_traits@D@std@@V?$allocator@D@2@@std@@U?$less@H@2@V?$allocator@U?$pair@$$CBHV?$basic_string@DU?$char_traits@D@std@@V?$allocator@D@2@@std@@@std@@@2@$0A@@std@@@std@@IEBAAEBHPEAU?$_Tree_node@U?$pair@$$CBHV?$basic_string@DU?$char_traits@D@std@@V?$allocator@D@2@@std@@@std@@PEAX@2@@Z 000000014000f880 f i datagram.obj
 0001:0000e8b0       ?_Kfn@?$_Tree@V?$_Tmap_traits@HV?$basic_string@DU?$char_traits@D@std@@V?$allocator@D@2@@std@@U?$less@H@2@V?$allocator@U?$pair@$$CBHV?$basic_string@DU?$char_traits@D@std@@V?$allocator@D@2@@std@@@std@@@2@$0A@@std@@@std@@IEBAAEBHAEBU?$pair@$$CBHV?$basic_string@DU?$char_traits@D@std@@V?$allocator@D@2@@std@@@2@@Z 000000014000f8b0 f i datagram.obj
 0001:0000e8d0       ?_Left@?$_Tree_comp_alloc@V?$_Tmap_traits@HV?$basic_string@DU?$char_traits@D@std@@V?$allocator@D@2@@std@@U?$less@H@2@V?$allocator@U?$pair@$$CBHV?$basic_string@DU?$char_traits@D@std@@V?$allocator@D@2@@std@@@std@@@2@$0A@@std@@@std@@SAAEAPEAU?$_Tree_node@U?$pair@$$CBHV?$basic_string@DU?$char_traits@D@std@@V?$allocator@D@2@@std@@@std@@PEAX@2@PEAU32@@Z 000000014000f8d0 f i datagram.obj
 0001:0000e8f0       ?_Left@?$_Tree_val@U?$_Tree_simple_types@U?$pair@$$CBHV?$basic_string@DU?$char_traits@D@std@@V?$allocator@D@2@@std@@@std@@@std@@@std@@SAAEAPEAU?$_Tree_node@U?$pair@$$CBHV?$basic_string@DU?$char_traits@D@std@@V?$allocator@D@2@@std@@@std@@PEAX@2@PEAU32@@Z 000000014000f8f0 f i datagram.obj
 0001:0000e900       ?_Lmost@?$_Tree@V?$_Tmap_traits@HV?$basic_string@DU?$char_traits@D@std@@V?$allocator@D@2@@std@@U?$less@H@2@V?$allocator@U?$pair@$$CBHV?$basic_string@DU?$char_traits@D@std@@V?$allocator@D@2@@std@@@std@@@2@$0A@@std@@@std@@IEBAAEAPEAU?$_Tree_node@U?$pair@$$CBHV?$basic_string@DU?$char_traits@D@std@@V?$allocator@D@2@@std@@@std@@PEAX@2@XZ 000000014000f900 f i datagram.obj
 0001:0000e920       ?_Lrotate@?$_Tree@V?$_Tmap_traits@HV?$basic_string@DU?$char_traits@D@std@@V?$allocator@D@2@@std@@U?$less@H@2@V?$allocator@U?$pair@$$CBHV?$basic_string@DU?$char_traits@D@std@@V?$allocator@D@2@@std@@@std@@@2@$0A@@std@@@std@@IEAAXPEAU?$_Tree_node@U?$pair@$$CBHV?$basic_string@DU?$char_traits@D@std@@V?$allocator@D@2@@std@@@std@@PEAX@2@@Z 000000014000f920 f i datagram.obj
 0001:0000ea60       ?_Max@?$_Tree_comp_alloc@V?$_Tmap_traits@HV?$basic_string@DU?$char_traits@D@std@@V?$allocator@D@2@@std@@U?$less@H@2@V?$allocator@U?$pair@$$CBHV?$basic_string@DU?$char_traits@D@std@@V?$allocator@D@2@@std@@@std@@@2@$0A@@std@@@std@@SAPEAU?$_Tree_node@U?$pair@$$CBHV?$basic_string@DU?$char_traits@D@std@@V?$allocator@D@2@@std@@@std@@PEAX@2@PEAU32@@Z 000000014000fa60 f i datagram.obj
 0001:0000ea80       ?_Max@?$_Tree_val@U?$_Tree_simple_types@U?$pair@$$CBHV?$basic_string@DU?$char_traits@D@std@@V?$allocator@D@2@@std@@@std@@@std@@@std@@SAPEAU?$_Tree_node@U?$pair@$$CBHV?$basic_string@DU?$char_traits@D@std@@V?$allocator@D@2@@std@@@std@@PEAX@2@PEAU32@@Z 000000014000fa80 f i datagram.obj
 0001:0000eac0       ?_Min@?$_Tree_comp_alloc@V?$_Tmap_traits@HV?$basic_string@DU?$char_traits@D@std@@V?$allocator@D@2@@std@@U?$less@H@2@V?$allocator@U?$pair@$$CBHV?$basic_string@DU?$char_traits@D@std@@V?$allocator@D@2@@std@@@std@@@2@$0A@@std@@@std@@SAPEAU?$_Tree_node@U?$pair@$$CBHV?$basic_string@DU?$char_traits@D@std@@V?$allocator@D@2@@std@@@std@@PEAX@2@PEAU32@@Z 000000014000fac0 f i datagram.obj
 0001:0000eae0       ?_Min@?$_Tree_val@U?$_Tree_simple_types@U?$pair@$$CBHV?$basic_string@DU?$char_traits@D@std@@V?$allocator@D@2@@std@@@std@@@std@@@std@@SAPEAU?$_Tree_node@U?$pair@$$CBHV?$basic_string@DU?$char_traits@D@std@@V?$allocator@D@2@@std@@@std@@PEAX@2@PEAU32@@Z 000000014000fae0 f i datagram.obj
 0001:0000eb20       ?_Move_alloc@?$_String_alloc@U?$_String_base_types@DV?$allocator@D@std@@@std@@@std@@QEAAXAEAU?$_Wrap_alloc@V?$allocator@D@std@@@2@@Z 000000014000fb20 f i datagram.obj
 0001:0000eb60       ?_Myhead@?$_Tree_comp_alloc@V?$_Tmap_traits@HV?$basic_string@DU?$char_traits@D@std@@V?$allocator@D@2@@std@@U?$less@H@2@V?$allocator@U?$pair@$$CBHV?$basic_string@DU?$char_traits@D@std@@V?$allocator@D@2@@std@@@std@@@2@$0A@@std@@@std@@QEAAAEAPEAU?$_Tree_node@U?$pair@$$CBHV?$basic_string@DU?$char_traits@D@std@@V?$allocator@D@2@@std@@@std@@PEAX@2@XZ 000000014000fb60 f i datagram.obj
 0001:0000eb80       ?_Myhead@?$_Tree_comp_alloc@V?$_Tmap_traits@HV?$basic_string@DU?$char_traits@D@std@@V?$allocator@D@2@@std@@U?$less@H@2@V?$allocator@U?$pair@$$CBHV?$basic_string@DU?$char_traits@D@std@@V?$allocator@D@2@@std@@@std@@@2@$0A@@std@@@std@@QEBAAEBQEAU?$_Tree_node@U?$pair@$$CBHV?$basic_string@DU?$char_traits@D@std@@V?$allocator@D@2@@std@@@std@@PEAX@2@XZ 000000014000fb80 f i datagram.obj
 0001:0000eba0       ?_Mynode@?$_Tree_unchecked_const_iterator@V?$_Tree_val@U?$_Tree_simple_types@U?$pair@$$CBHV?$basic_string@DU?$char_traits@D@std@@V?$allocator@D@2@@std@@@std@@@std@@@std@@U_Iterator_base12@2@@std@@QEBAPEAU?$_Tree_node@U?$pair@$$CBHV?$basic_string@DU?$char_traits@D@std@@V?$allocator@D@2@@std@@@std@@PEAX@2@XZ 000000014000fba0 f i datagram.obj
 0001:0000ebb0       ?_Myproxy@?$_Tree_comp_alloc@V?$_Tmap_traits@HV?$basic_string@DU?$char_traits@D@std@@V?$allocator@D@2@@std@@U?$less@H@2@V?$allocator@U?$pair@$$CBHV?$basic_string@DU?$char_traits@D@std@@V?$allocator@D@2@@std@@@std@@@2@$0A@@std@@@std@@QEAAAEAPEAU_Container_proxy@2@XZ 000000014000fbb0 f i datagram.obj
 0001:0000ebd0       ?_Mysize@?$_Tree_comp_alloc@V?$_Tmap_traits@HV?$basic_string@DU?$char_traits@D@std@@V?$allocator@D@2@@std@@U?$less@H@2@V?$allocator@U?$pair@$$CBHV?$basic_string@DU?$char_traits@D@std@@V?$allocator@D@2@@std@@@std@@@2@$0A@@std@@@std@@QEAAAEA_KXZ 000000014000fbd0 f i datagram.obj
 0001:0000ebf0       ?_Mysize@?$_Tree_comp_alloc@V?$_Tmap_traits@HV?$basic_string@DU?$char_traits@D@std@@V?$allocator@D@2@@std@@U?$less@H@2@V?$allocator@U?$pair@$$CBHV?$basic_string@DU?$char_traits@D@std@@V?$allocator@D@2@@std@@@std@@@2@$0A@@std@@@std@@QEBAAEB_KXZ 000000014000fbf0 f i datagram.obj
 0001:0000ec10       ?_Myval@?$_Tree_comp_alloc@V?$_Tmap_traits@HV?$basic_string@DU?$char_traits@D@std@@V?$allocator@D@2@@std@@U?$less@H@2@V?$allocator@U?$pair@$$CBHV?$basic_string@DU?$char_traits@D@std@@V?$allocator@D@2@@std@@@std@@@2@$0A@@std@@@std@@SAAEAU?$pair@$$CBHV?$basic_string@DU?$char_traits@D@std@@V?$allocator@D@2@@std@@@2@PEAU?$_Tree_node@U?$pair@$$CBHV?$basic_string@DU?$char_traits@D@std@@V?$allocator@D@2@@std@@@std@@PEAX@2@@Z 000000014000fc10 f i datagram.obj
 0001:0000ec30       ?_Myval@?$_Tree_val@U?$_Tree_simple_types@U?$pair@$$CBHV?$basic_string@DU?$char_traits@D@std@@V?$allocator@D@2@@std@@@std@@@std@@@std@@SAAEAU?$pair@$$CBHV?$basic_string@DU?$char_traits@D@std@@V?$allocator@D@2@@std@@@2@PEAU?$_Tree_node@U?$pair@$$CBHV?$basic_string@DU?$char_traits@D@std@@V?$allocator@D@2@@std@@@std@@PEAX@2@@Z 000000014000fc30 f i datagram.obj
 0001:0000ec40       ?_Orphan_all@?$_Tree_comp_alloc@V?$_Tmap_traits@HV?$basic_string@DU?$char_traits@D@std@@V?$allocator@D@2@@std@@U?$less@H@2@V?$allocator@U?$pair@$$CBHV?$basic_string@DU?$char_traits@D@std@@V?$allocator@D@2@@std@@@std@@@2@$0A@@std@@@std@@QEAAXXZ 000000014000fc40 f i datagram.obj
 0001:0000ec60       ?_Orphan_ptr@?$_Tree@V?$_Tmap_traits@HV?$basic_string@DU?$char_traits@D@std@@V?$allocator@D@2@@std@@U?$less@H@2@V?$allocator@U?$pair@$$CBHV?$basic_string@DU?$char_traits@D@std@@V?$allocator@D@2@@std@@@std@@@2@$0A@@std@@@std@@IEAAXPEAU?$_Tree_node@U?$pair@$$CBHV?$basic_string@DU?$char_traits@D@std@@V?$allocator@D@2@@std@@@std@@PEAX@2@@Z 000000014000fc60 f i datagram.obj
 0001:0000ed40       ?_Parent@?$_Tree_comp_alloc@V?$_Tmap_traits@HV?$basic_string@DU?$char_traits@D@std@@V?$allocator@D@2@@std@@U?$less@H@2@V?$allocator@U?$pair@$$CBHV?$basic_string@DU?$char_traits@D@std@@V?$allocator@D@2@@std@@@std@@@2@$0A@@std@@@std@@SAAEAPEAU?$_Tree_node@U?$pair@$$CBHV?$basic_string@DU?$char_traits@D@std@@V?$allocator@D@2@@std@@@std@@PEAX@2@PEAU32@@Z 000000014000fd40 f i datagram.obj
 0001:0000ed60       ?_Parent@?$_Tree_val@U?$_Tree_simple_types@U?$pair@$$CBHV?$basic_string@DU?$char_traits@D@std@@V?$allocator@D@2@@std@@@std@@@std@@@std@@SAAEAPEAU?$_Tree_node@U?$pair@$$CBHV?$basic_string@DU?$char_traits@D@std@@V?$allocator@D@2@@std@@@std@@PEAX@2@PEAU32@@Z 000000014000fd60 f i datagram.obj
 0001:0000ed70       ?_Right@?$_Tree_comp_alloc@V?$_Tmap_traits@HV?$basic_string@DU?$char_traits@D@std@@V?$allocator@D@2@@std@@U?$less@H@2@V?$allocator@U?$pair@$$CBHV?$basic_string@DU?$char_traits@D@std@@V?$allocator@D@2@@std@@@std@@@2@$0A@@std@@@std@@SAAEAPEAU?$_Tree_node@U?$pair@$$CBHV?$basic_string@DU?$char_traits@D@std@@V?$allocator@D@2@@std@@@std@@PEAX@2@PEAU32@@Z 000000014000fd70 f i datagram.obj
 0001:0000ed90       ?_Right@?$_Tree_val@U?$_Tree_simple_types@U?$pair@$$CBHV?$basic_string@DU?$char_traits@D@std@@V?$allocator@D@2@@std@@@std@@@std@@@std@@SAAEAPEAU?$_Tree_node@U?$pair@$$CBHV?$basic_string@DU?$char_traits@D@std@@V?$allocator@D@2@@std@@@std@@PEAX@2@PEAU32@@Z 000000014000fd90 f i datagram.obj
 0001:0000eda0       ?_Rmost@?$_Tree@V?$_Tmap_traits@HV?$basic_string@DU?$char_traits@D@std@@V?$allocator@D@2@@std@@U?$less@H@2@V?$allocator@U?$pair@$$CBHV?$basic_string@DU?$char_traits@D@std@@V?$allocator@D@2@@std@@@std@@@2@$0A@@std@@@std@@IEBAAEAPEAU?$_Tree_node@U?$pair@$$CBHV?$basic_string@DU?$char_traits@D@std@@V?$allocator@D@2@@std@@@std@@PEAX@2@XZ 000000014000fda0 f i datagram.obj
 0001:0000edc0       ?_Root@?$_Tree@V?$_Tmap_traits@HV?$basic_string@DU?$char_traits@D@std@@V?$allocator@D@2@@std@@U?$less@H@2@V?$allocator@U?$pair@$$CBHV?$basic_string@DU?$char_traits@D@std@@V?$allocator@D@2@@std@@@std@@@2@$0A@@std@@@std@@IEBAAEAPEAU?$_Tree_node@U?$pair@$$CBHV?$basic_string@DU?$char_traits@D@std@@V?$allocator@D@2@@std@@@std@@PEAX@2@XZ 000000014000fdc0 f i datagram.obj
 0001:0000ede0       ?_Rrotate@?$_Tree@V?$_Tmap_traits@HV?$basic_string@DU?$char_traits@D@std@@V?$allocator@D@2@@std@@U?$less@H@2@V?$allocator@U?$pair@$$CBHV?$basic_string@DU?$char_traits@D@std@@V?$allocator@D@2@@std@@@std@@@2@$0A@@std@@@std@@IEAAXPEAU?$_Tree_node@U?$pair@$$CBHV?$basic_string@DU?$char_traits@D@std@@V?$allocator@D@2@@std@@@std@@PEAX@2@@Z 000000014000fde0 f i datagram.obj
 0001:0000ef20       ?_Tidy@?$_Tree@V?$_Tmap_traits@HV?$basic_string@DU?$char_traits@D@std@@V?$allocator@D@2@@std@@U?$less@H@2@V?$allocator@U?$pair@$$CBHV?$basic_string@DU?$char_traits@D@std@@V?$allocator@D@2@@std@@@std@@@2@$0A@@std@@@std@@IEAAXXZ 000000014000ff20 f i datagram.obj
 0001:0000f020       ?_Tidy@?$basic_stringbuf@DU?$char_traits@D@std@@V?$allocator@D@2@@std@@IEAAXXZ 0000000140010020 f i datagram.obj
 0001:0000f100       ?address@?$_Wrap_alloc@V?$allocator@D@std@@@std@@QEBAPEADAEAD@Z 0000000140010100 f i datagram.obj
 0001:0000f120       ?allocate@?$_Wrap_alloc@V?$allocator@U?$_Tree_node@U?$pair@$$CBHV?$basic_string@DU?$char_traits@D@std@@V?$allocator@D@2@@std@@@std@@PEAX@std@@@std@@@std@@QEAAPEAU?$_Tree_node@U?$pair@$$CBHV?$basic_string@DU?$char_traits@D@std@@V?$allocator@D@2@@std@@@std@@PEAX@2@_K@Z 0000000140010120 f i datagram.obj
 0001:0000f150       ?allocate@?$allocator@U?$_Tree_node@U?$pair@$$CBHV?$basic_string@DU?$char_traits@D@std@@V?$allocator@D@2@@std@@@std@@PEAX@std@@@std@@QEAAPEAU?$_Tree_node@U?$pair@$$CBHV?$basic_string@DU?$char_traits@D@std@@V?$allocator@D@2@@std@@@std@@PEAX@2@_K@Z 0000000140010150 f i datagram.obj
 0001:0000f180       ?append@?$basic_string@DU?$char_traits@D@std@@V?$allocator@D@2@@std@@QEAAAEAV12@_KD@Z 0000000140010180 f i datagram.obj
 0001:0000f240       ?assign@?$char_traits@D@std@@SAPEADPEAD_KD@Z 0000000140010240 f i datagram.obj
 0001:0000f270       ?begin@?$_Tree@V?$_Tmap_traits@HV?$basic_string@DU?$char_traits@D@std@@V?$allocator@D@2@@std@@U?$less@H@2@V?$allocator@U?$pair@$$CBHV?$basic_string@DU?$char_traits@D@std@@V?$allocator@D@2@@std@@@std@@@2@$0A@@std@@@std@@QEAA?AV?$_Tree_iterator@V?$_Tree_val@U?$_Tree_simple_types@U?$pair@$$CBHV?$basic_string@DU?$char_traits@D@std@@V?$allocator@D@2@@std@@@std@@@std@@@std@@@2@XZ 0000000140010270 f i datagram.obj
 0001:0000f2d0       ?begin@?$basic_string@DU?$char_traits@D@std@@V?$allocator@D@2@@std@@QEAA?AV?$_String_iterator@V?$_String_val@U?$_Simple_types@D@std@@@std@@@2@XZ 00000001400102d0 f i datagram.obj
 0001:0000f340       ?clear@?$_Tree@V?$_Tmap_traits@HV?$basic_string@DU?$char_traits@D@std@@V?$allocator@D@2@@std@@U?$less@H@2@V?$allocator@U?$pair@$$CBHV?$basic_string@DU?$char_traits@D@std@@V?$allocator@D@2@@std@@@std@@@2@$0A@@std@@@std@@QEAAXXZ 0000000140010340 f i datagram.obj
 0001:0000f410       ?deallocate@?$_Wrap_alloc@V?$allocator@U?$_Tree_node@U?$pair@$$CBHV?$basic_string@DU?$char_traits@D@std@@V?$allocator@D@2@@std@@@std@@PEAX@std@@@std@@@std@@QEAAXPEAU?$_Tree_node@U?$pair@$$CBHV?$basic_string@DU?$char_traits@D@std@@V?$allocator@D@2@@std@@@std@@PEAX@2@_K@Z 0000000140010410 f i datagram.obj
 0001:0000f440       ?deallocate@?$allocator@U?$_Tree_node@U?$pair@$$CBHV?$basic_string@DU?$char_traits@D@std@@V?$allocator@D@2@@std@@@std@@PEAX@std@@@std@@QEAAXPEAU?$_Tree_node@U?$pair@$$CBHV?$basic_string@DU?$char_traits@D@std@@V?$allocator@D@2@@std@@@std@@PEAX@2@_K@Z 0000000140010440 f i datagram.obj
 0001:0000f470       ?end@?$_Tree@V?$_Tmap_traits@HV?$basic_string@DU?$char_traits@D@std@@V?$allocator@D@2@@std@@U?$less@H@2@V?$allocator@U?$pair@$$CBHV?$basic_string@DU?$char_traits@D@std@@V?$allocator@D@2@@std@@@std@@@2@$0A@@std@@@std@@QEAA?AV?$_Tree_iterator@V?$_Tree_val@U?$_Tree_simple_types@U?$pair@$$CBHV?$basic_string@DU?$char_traits@D@std@@V?$allocator@D@2@@std@@@std@@@std@@@std@@@2@XZ 0000000140010470 f i datagram.obj
 0001:0000f4d0       ?end@?$_Tree@V?$_Tmap_traits@HV?$basic_string@DU?$char_traits@D@std@@V?$allocator@D@2@@std@@U?$less@H@2@V?$allocator@U?$pair@$$CBHV?$basic_string@DU?$char_traits@D@std@@V?$allocator@D@2@@std@@@std@@@2@$0A@@std@@@std@@QEBA?AV?$_Tree_const_iterator@V?$_Tree_val@U?$_Tree_simple_types@U?$pair@$$CBHV?$basic_string@DU?$char_traits@D@std@@V?$allocator@D@2@@std@@@std@@@std@@@std@@@2@XZ 00000001400104d0 f i datagram.obj
 0001:0000f530       ?end@?$basic_string@DU?$char_traits@D@std@@V?$allocator@D@2@@std@@QEAA?AV?$_String_iterator@V?$_String_val@U?$_Simple_types@D@std@@@std@@@2@XZ 0000000140010530 f i datagram.obj
 0001:0000f5b0       ?eof@?$char_traits@D@std@@SAHXZ 00000001400105b0 f i datagram.obj
 0001:0000f5c0       ?eq@?$char_traits@D@std@@SA_NAEBD0@Z 00000001400105c0 f i datagram.obj
 0001:0000f600       ?eq_int_type@?$char_traits@D@std@@SA_NAEBH0@Z 0000000140010600 f i datagram.obj
 0001:0000f640       ?erase@?$_Tree@V?$_Tmap_traits@HV?$basic_string@DU?$char_traits@D@std@@V?$allocator@D@2@@std@@U?$less@H@2@V?$allocator@U?$pair@$$CBHV?$basic_string@DU?$char_traits@D@std@@V?$allocator@D@2@@std@@@std@@@2@$0A@@std@@@std@@QEAA?AV?$_Tree_iterator@V?$_Tree_val@U?$_Tree_simple_types@U?$pair@$$CBHV?$basic_string@DU?$char_traits@D@std@@V?$allocator@D@2@@std@@@std@@@std@@@std@@@2@V?$_Tree_const_iterator@V?$_Tree_val@U?$_Tree_simple_types@U?$pair@$$CBHV?$basic_string@DU?$char_traits@D@std@@V?$allocator@D@2@@std@@@std@@@std@@@std@@@2@0@Z 0000000140010640 f i datagram.obj
 0001:0000f8a0       ?erase@?$_Tree@V?$_Tmap_traits@HV?$basic_string@DU?$char_traits@D@std@@V?$allocator@D@2@@std@@U?$less@H@2@V?$allocator@U?$pair@$$CBHV?$basic_string@DU?$char_traits@D@std@@V?$allocator@D@2@@std@@@std@@@2@$0A@@std@@@std@@QEAA?AV?$_Tree_iterator@V?$_Tree_val@U?$_Tree_simple_types@U?$pair@$$CBHV?$basic_string@DU?$char_traits@D@std@@V?$allocator@D@2@@std@@@std@@@std@@@std@@@2@V?$_Tree_const_iterator@V?$_Tree_val@U?$_Tree_simple_types@U?$pair@$$CBHV?$basic_string@DU?$char_traits@D@std@@V?$allocator@D@2@@std@@@std@@@std@@@std@@@2@@Z 00000001400108a0 f i datagram.obj
 0001:00010190       ?find@?$_Tree@V?$_Tmap_traits@HV?$basic_string@DU?$char_traits@D@std@@V?$allocator@D@2@@std@@U?$less@H@2@V?$allocator@U?$pair@$$CBHV?$basic_string@DU?$char_traits@D@std@@V?$allocator@D@2@@std@@@std@@@2@$0A@@std@@@std@@QEBA?AV?$_Tree_const_iterator@V?$_Tree_val@U?$_Tree_simple_types@U?$pair@$$CBHV?$basic_string@DU?$char_traits@D@std@@V?$allocator@D@2@@std@@@std@@@std@@@std@@@2@AEBH@Z 0000000140011190 f i datagram.obj
 0001:000103a0       ?get_allocator@?$basic_string@DU?$char_traits@D@std@@V?$allocator@D@2@@std@@QEBA?AV?$allocator@D@2@XZ 00000001400113a0 f i datagram.obj
 0001:000103e0       ?hex@std@@YAAEAVios_base@1@AEAV21@@Z 00000001400113e0 f i datagram.obj
 0001:00010410       ?insert@?$basic_string@DU?$char_traits@D@std@@V?$allocator@D@2@@std@@QEAAAEAV12@_KAEBV12@00@Z 0000000140011410 f i datagram.obj
 0001:00010600       ?insert@?$basic_string@DU?$char_traits@D@std@@V?$allocator@D@2@@std@@QEAAAEAV12@_KPEBD0@Z 0000000140011600 f i datagram.obj
 0001:000107b0       ?insert@?$basic_string@DU?$char_traits@D@std@@V?$allocator@D@2@@std@@QEAAAEAV12@_KPEBD@Z 00000001400117b0 f i datagram.obj
 0001:00010800       ?lower_bound@?$_Tree@V?$_Tmap_traits@HV?$basic_string@DU?$char_traits@D@std@@V?$allocator@D@2@@std@@U?$less@H@2@V?$allocator@U?$pair@$$CBHV?$basic_string@DU?$char_traits@D@std@@V?$allocator@D@2@@std@@@std@@@2@$0A@@std@@@std@@QEAA?AV?$_Tree_iterator@V?$_Tree_val@U?$_Tree_simple_types@U?$pair@$$CBHV?$basic_string@DU?$char_traits@D@std@@V?$allocator@D@2@@std@@@std@@@std@@@std@@@2@AEBH@Z 0000000140011800 f i datagram.obj
 0001:00010870       ?lower_bound@?$_Tree@V?$_Tmap_traits@HV?$basic_string@DU?$char_traits@D@std@@V?$allocator@D@2@@std@@U?$less@H@2@V?$allocator@U?$pair@$$CBHV?$basic_string@DU?$char_traits@D@std@@V?$allocator@D@2@@std@@@std@@@2@$0A@@std@@@std@@QEBA?AV?$_Tree_const_iterator@V?$_Tree_val@U?$_Tree_simple_types@U?$pair@$$CBHV?$basic_string@DU?$char_traits@D@std@@V?$allocator@D@2@@std@@@std@@@std@@@std@@@2@AEBH@Z 0000000140011870 f i datagram.obj
 0001:000108e0       ?max_size@?$_Tree@V?$_Tmap_traits@HV?$basic_string@DU?$char_traits@D@std@@V?$allocator@D@2@@std@@U?$less@H@2@V?$allocator@U?$pair@$$CBHV?$basic_string@DU?$char_traits@D@std@@V?$allocator@D@2@@std@@@std@@@2@$0A@@std@@@std@@QEBA_KXZ 00000001400118e0 f i datagram.obj
 0001:00010910       ?max_size@?$_Wrap_alloc@V?$allocator@U?$_Tree_node@U?$pair@$$CBHV?$basic_string@DU?$char_traits@D@std@@V?$allocator@D@2@@std@@@std@@PEAX@std@@@std@@@std@@QEBA_KU_Nil@2@@Z 0000000140011910 f i datagram.obj
 0001:00010930       ?max_size@?$allocator@U?$_Tree_node@U?$pair@$$CBHV?$basic_string@DU?$char_traits@D@std@@V?$allocator@D@2@@std@@@std@@PEAX@std@@@std@@QEBA_KXZ 0000000140011930 f i datagram.obj
 0001:00010940       ?max_size@?$allocator_traits@V?$allocator@U?$_Tree_node@U?$pair@$$CBHV?$basic_string@DU?$char_traits@D@std@@V?$allocator@D@2@@std@@@std@@PEAX@std@@@std@@@std@@SA_KAEBV?$allocator@U?$_Tree_node@U?$pair@$$CBHV?$basic_string@DU?$char_traits@D@std@@V?$allocator@D@2@@std@@@std@@PEAX@std@@@2@@Z 0000000140011940 f i datagram.obj
 0001:00010960       ?not_eof@?$char_traits@D@std@@SAHAEBH@Z 0000000140011960 f i datagram.obj
 0001:000109b0       ?overflow@?$basic_stringbuf@DU?$char_traits@D@std@@V?$allocator@D@2@@std@@MEAAHH@Z 00000001400119b0 f i datagram.obj
 0001:00010ea0       ?pbackfail@?$basic_stringbuf@DU?$char_traits@D@std@@V?$allocator@D@2@@std@@MEAAHH@Z 0000000140011ea0 f i datagram.obj
 0001:00010fc0       ?pointer_to@?$pointer_traits@PEAD@std@@SAPEADAEAD@Z 0000000140011fc0 f i datagram.obj
 0001:00010fe0       ?pointer_to@?$pointer_traits@PEAU?$pair@$$CBHV?$basic_string@DU?$char_traits@D@std@@V?$allocator@D@2@@std@@@std@@@std@@SAPEAU?$pair@$$CBHV?$basic_string@DU?$char_traits@D@std@@V?$allocator@D@2@@std@@@2@AEAU32@@Z 0000000140011fe0 f i datagram.obj
 0001:00011000       ?pointer_to@?$pointer_traits@PEBU?$pair@$$CBHV?$basic_string@DU?$char_traits@D@std@@V?$allocator@D@2@@std@@@std@@@std@@SAPEBU?$pair@$$CBHV?$basic_string@DU?$char_traits@D@std@@V?$allocator@D@2@@std@@@2@AEBU32@@Z 0000000140012000 f i datagram.obj
 0001:00011020       ?ptrAt@?$XsArrayImpl@E$1?g_xsByteArrayDescriptor@@3UXsArrayDescriptor@@BUXsByteArray@@@@CAPEAEPEBX_J@Z 0000000140012020 f i datagram.obj
 0001:00011050       ?replace@?$basic_string@DU?$char_traits@D@std@@V?$allocator@D@2@@std@@QEAAAEAV12@V?$_String_const_iterator@V?$_String_val@U?$_Simple_types@D@std@@@std@@@2@0V?$_String_iterator@V?$_String_val@U?$_Simple_types@D@std@@@std@@@2@1@Z 0000000140012050 f i datagram.obj
 0001:00011210       ?replace@?$basic_string@DU?$char_traits@D@std@@V?$allocator@D@2@@std@@QEAAAEAV12@_K0AEBV12@00@Z 0000000140012210 f i datagram.obj
 0001:00011810       ?replace@?$basic_string@DU?$char_traits@D@std@@V?$allocator@D@2@@std@@QEAAAEAV12@_K0PEBD0@Z 0000000140012810 f i datagram.obj
 0001:00011aa0       ?seekoff@?$basic_stringbuf@DU?$char_traits@D@std@@V?$allocator@D@2@@std@@MEAA?AV?$fpos@U_Mbstatet@@@2@_JHH@Z 0000000140012aa0 f i datagram.obj
 0001:00011df0       ?seekpos@?$basic_stringbuf@DU?$char_traits@D@std@@V?$allocator@D@2@@std@@MEAA?AV?$fpos@U_Mbstatet@@@2@V32@H@Z 0000000140012df0 f i datagram.obj
 0001:00012030       ?select_on_container_copy_construction@?$_Wrap_alloc@V?$allocator@D@std@@@std@@QEBA?AU12@U_Nil@2@@Z 0000000140013030 f i datagram.obj
 0001:00012070       ?select_on_container_copy_construction@?$allocator_traits@V?$allocator@D@std@@@std@@SA?AV?$allocator@D@2@AEBV32@@Z 0000000140013070 f i datagram.obj
 0001:000120a0       ?size@?$_Tree@V?$_Tmap_traits@HV?$basic_string@DU?$char_traits@D@std@@V?$allocator@D@2@@std@@U?$less@H@2@V?$allocator@U?$pair@$$CBHV?$basic_string@DU?$char_traits@D@std@@V?$allocator@D@2@@std@@@std@@@2@$0A@@std@@@std@@QEBA_KXZ 00000001400130a0 f i datagram.obj
 0001:000120c0       ?size@?$basic_string@DU?$char_traits@D@std@@V?$allocator@D@2@@std@@QEBA_KXZ 00000001400130c0 f i datagram.obj
 0001:000120e0       ?stoi@std@@YAHAEBV?$basic_string@DU?$char_traits@D@std@@V?$allocator@D@2@@1@PEA_KH@Z 00000001400130e0 f i datagram.obj
 0001:000121a0       ?str@?$basic_stringbuf@DU?$char_traits@D@std@@V?$allocator@D@2@@std@@QEBA?AV?$basic_string@DU?$char_traits@D@std@@V?$allocator@D@2@@2@XZ 00000001400131a0 f i datagram.obj
 0001:000123d0       ?str@?$basic_stringstream@DU?$char_traits@D@std@@V?$allocator@D@2@@std@@QEBA?AV?$basic_string@DU?$char_traits@D@std@@V?$allocator@D@2@@2@XZ 00000001400133d0 f i datagram.obj
 0001:00012420       ?substr@?$basic_string@DU?$char_traits@D@std@@V?$allocator@D@2@@std@@QEBA?AV12@_K0@Z 0000000140013420 f i datagram.obj
 0001:00012490       ?to_char_type@?$char_traits@D@std@@SADAEBH@Z 0000000140013490 f i datagram.obj
 0001:000124a0       ?to_int_type@?$char_traits@D@std@@SAHAEBD@Z 00000001400134a0 f i datagram.obj
 0001:000124b0       ?underflow@?$basic_stringbuf@DU?$char_traits@D@std@@V?$allocator@D@2@@std@@MEAAHXZ 00000001400134b0 f i datagram.obj
 0001:00012600       ??0EulerDatagram@@QEAA@XZ  0000000140013600 f   eulerdatagram.obj
 0001:00012660       ??1EulerDatagram@@UEAA@XZ  0000000140013660 f   eulerdatagram.obj
 0001:000126a0       ?printData@EulerDatagram@@UEBAXXZ 00000001400136a0 f   eulerdatagram.obj
 0001:000126c0       ?deserializeData@EulerDatagram@@MEAAXAEAVStreamer@@@Z 00000001400136c0 f   eulerdatagram.obj
 0001:00012a30       ?alignData@EulerDatagram@@QEBA?AV?$vector@MV?$allocator@M@std@@@std@@XZ 0000000140013a30 f   eulerdatagram.obj
 0001:00012c30       ?streamData@EulerDatagram@@QEBAXXZ 0000000140013c30 f   eulerdatagram.obj
 0001:00012ca0       ??$?0$$V@?$_Compressed_pair@U?$_Wrap_alloc@V?$allocator@UKinematics@EulerDatagram@@@std@@@std@@V?$_Vector_val@U?$_Simple_types@UKinematics@EulerDatagram@@@std@@@2@$00@std@@QEAA@U_Zero_then_variadic_args_t@1@@Z 0000000140013ca0 f i eulerdatagram.obj
 0001:00012cd0       ??$?0AEAU?$_Wrap_alloc@V?$allocator@UKinematics@EulerDatagram@@@std@@@std@@@?$_Wrap_alloc@V?$allocator@U_Container_proxy@std@@@std@@@std@@QEAA@AEAU?$_Wrap_alloc@V?$allocator@UKinematics@EulerDatagram@@@std@@@1@@Z 0000000140013cd0 f i eulerdatagram.obj
 0001:00012d00       ??$?0UKinematics@EulerDatagram@@@?$allocator@U_Container_proxy@std@@@std@@QEAA@AEBV?$allocator@UKinematics@EulerDatagram@@@1@@Z 0000000140013d00 f i eulerdatagram.obj
 0001:00012d10       ??$_Copy_memmove@PEAUKinematics@EulerDatagram@@PEAU12@@std@@YAPEAUKinematics@EulerDatagram@@PEAU12@00@Z 0000000140013d10 f i eulerdatagram.obj
 0001:00012d80       ??$_Destroy_range1@V?$allocator@UKinematics@EulerDatagram@@@std@@PEAUKinematics@EulerDatagram@@@std@@YAXPEAUKinematics@EulerDatagram@@0AEAU?$_Wrap_alloc@V?$allocator@UKinematics@EulerDatagram@@@std@@@0@U?$integral_constant@_N$00@0@@Z 0000000140013d80 f i eulerdatagram.obj
 0001:00012da0       ??$_Destroy_range@V?$allocator@UKinematics@EulerDatagram@@@std@@PEAUKinematics@EulerDatagram@@@std@@YAXPEAUKinematics@EulerDatagram@@0AEAU?$_Wrap_alloc@V?$allocator@UKinematics@EulerDatagram@@@std@@@0@@Z 0000000140013da0 f i eulerdatagram.obj
 0001:00012de0       ??$_Ptr_move_cat@UKinematics@EulerDatagram@@U12@@std@@YA?AU_Really_trivial_ptr_iterator_tag@0@AEBQEAUKinematics@EulerDatagram@@0@Z 0000000140013de0 f i eulerdatagram.obj
 0001:00012e00       ??$_Rechecked@PEAUKinematics@EulerDatagram@@PEAU12@@std@@YAAEAPEAUKinematics@EulerDatagram@@AEAPEAU12@PEAU12@@Z 0000000140013e00 f i eulerdatagram.obj
 0001:00012e20       ??$_Umove@PEAUKinematics@EulerDatagram@@@?$vector@UKinematics@EulerDatagram@@V?$allocator@UKinematics@EulerDatagram@@@std@@@std@@IEAAPEAUKinematics@EulerDatagram@@PEAU23@00@Z 0000000140013e20 f i eulerdatagram.obj
 0001:00012e60       ??$_Unchecked@PEAUKinematics@EulerDatagram@@@std@@YAPEAUKinematics@EulerDatagram@@PEAU12@@Z 0000000140013e60 f i eulerdatagram.obj
 0001:00012e70       ??$_Unfancy@UKinematics@EulerDatagram@@@std@@YAPEAUKinematics@EulerDatagram@@PEAU12@@Z 0000000140013e70 f i eulerdatagram.obj
 0001:00012e80       ??$_Uninitialized_move@PEAUKinematics@EulerDatagram@@PEAU12@V?$allocator@UKinematics@EulerDatagram@@@std@@@std@@YAPEAUKinematics@EulerDatagram@@PEAU12@00AEAU?$_Wrap_alloc@V?$allocator@UKinematics@EulerDatagram@@@std@@@0@@Z 0000000140013e80 f i eulerdatagram.obj
 0001:00012f00       ??$_Uninitialized_move_al_unchecked1@UKinematics@EulerDatagram@@U12@V?$allocator@UKinematics@EulerDatagram@@@std@@@std@@YAPEAUKinematics@EulerDatagram@@PEAU12@00AEAU?$_Wrap_alloc@V?$allocator@UKinematics@EulerDatagram@@@std@@@0@U_Really_trivial_ptr_iterator_tag@0@U?$integral_constant@_N$00@0@@Z 0000000140013f00 f i eulerdatagram.obj
 0001:00012f40       ??$_Uninitialized_move_al_unchecked@PEAUKinematics@EulerDatagram@@PEAU12@V?$allocator@UKinematics@EulerDatagram@@@std@@@std@@YAPEAUKinematics@EulerDatagram@@PEAU12@00AEAU?$_Wrap_alloc@V?$allocator@UKinematics@EulerDatagram@@@std@@@0@@Z 0000000140013f40 f i eulerdatagram.obj
 0001:00012fa0       ??$addressof@$$CBUKinematics@EulerDatagram@@@std@@YAPEBUKinematics@EulerDatagram@@AEBU12@@Z 0000000140013fa0 f i eulerdatagram.obj
 0001:00012fb0       ??$construct@UKinematics@EulerDatagram@@AEAU12@@?$_Wrap_alloc@V?$allocator@UKinematics@EulerDatagram@@@std@@@std@@QEAAXPEAUKinematics@EulerDatagram@@AEAU23@@Z 0000000140013fb0 f i eulerdatagram.obj
 0001:00012ff0       ??$construct@UKinematics@EulerDatagram@@AEAU12@@?$allocator@UKinematics@EulerDatagram@@@std@@QEAAXPEAUKinematics@EulerDatagram@@AEAU23@@Z 0000000140013ff0 f i eulerdatagram.obj
 0001:00013060       ??$construct@UKinematics@EulerDatagram@@AEAU12@@?$allocator_traits@V?$allocator@UKinematics@EulerDatagram@@@std@@@std@@SAXAEAV?$allocator@UKinematics@EulerDatagram@@@1@PEAUKinematics@EulerDatagram@@AEAU34@@Z 0000000140014060 f i eulerdatagram.obj
 0001:000130a0       ??$construct@UKinematics@EulerDatagram@@AEBU12@@?$_Wrap_alloc@V?$allocator@UKinematics@EulerDatagram@@@std@@@std@@QEAAXPEAUKinematics@EulerDatagram@@AEBU23@@Z 00000001400140a0 f i eulerdatagram.obj
 0001:000130e0       ??$construct@UKinematics@EulerDatagram@@AEBU12@@?$allocator@UKinematics@EulerDatagram@@@std@@QEAAXPEAUKinematics@EulerDatagram@@AEBU23@@Z 00000001400140e0 f i eulerdatagram.obj
 0001:00013150       ??$construct@UKinematics@EulerDatagram@@AEBU12@@?$allocator_traits@V?$allocator@UKinematics@EulerDatagram@@@std@@@std@@SAXAEAV?$allocator@UKinematics@EulerDatagram@@@1@PEAUKinematics@EulerDatagram@@AEBU34@@Z 0000000140014150 f i eulerdatagram.obj
 0001:00013190       ??$forward@AEAU?$_Wrap_alloc@V?$allocator@UKinematics@EulerDatagram@@@std@@@std@@@std@@YAAEAU?$_Wrap_alloc@V?$allocator@UKinematics@EulerDatagram@@@std@@@0@AEAU10@@Z 0000000140014190 f i eulerdatagram.obj
 0001:000131a0       ??$forward@AEAUKinematics@EulerDatagram@@@std@@YAAEAUKinematics@EulerDatagram@@AEAU12@@Z 00000001400141a0 f i eulerdatagram.obj
 0001:000131b0       ??$forward@AEBUKinematics@EulerDatagram@@@std@@YAAEBUKinematics@EulerDatagram@@AEBU12@@Z 00000001400141b0 f i eulerdatagram.obj
 0001:000131c0       ??0?$_Iterator012@Urandom_access_iterator_tag@std@@UKinematics@EulerDatagram@@_JPEBU34@AEBU34@U_Iterator_base12@2@@std@@QEAA@XZ 00000001400141c0 f i eulerdatagram.obj
 0001:000131e0       ??0?$_Vector_alloc@U?$_Vec_base_types@UKinematics@EulerDatagram@@V?$allocator@UKinematics@EulerDatagram@@@std@@@std@@@std@@QEAA@XZ 00000001400141e0 f i eulerdatagram.obj
 0001:00013220       ??0?$_Vector_const_iterator@V?$_Vector_val@U?$_Simple_types@UKinematics@EulerDatagram@@@std@@@std@@@std@@QEAA@PEAUKinematics@EulerDatagram@@PEBU_Container_base12@1@@Z 0000000140014220 f i eulerdatagram.obj
 0001:00013270       ??0?$_Vector_val@U?$_Simple_types@UKinematics@EulerDatagram@@@std@@@std@@QEAA@XZ 0000000140014270 f i eulerdatagram.obj
 0001:000132c0       ??0?$_Wrap_alloc@V?$allocator@UKinematics@EulerDatagram@@@std@@@std@@QEAA@XZ 00000001400142c0 f i eulerdatagram.obj
 0001:000132e0       ??0?$allocator@UKinematics@EulerDatagram@@@std@@QEAA@XZ 00000001400142e0 f i eulerdatagram.obj
 0001:000132f0       ??0?$vector@UKinematics@EulerDatagram@@V?$allocator@UKinematics@EulerDatagram@@@std@@@std@@QEAA@XZ 00000001400142f0 f i eulerdatagram.obj
 0001:00013320       ??0XsEuler@@QEAA@NNN@Z     0000000140014320 f i eulerdatagram.obj
 0001:00013370       ??0XsQuaternion@@QEAA@NNNN@Z 0000000140014370 f i eulerdatagram.obj
 0001:000133d0       ??1?$_Compressed_pair@U?$_Wrap_alloc@V?$allocator@UKinematics@EulerDatagram@@@std@@@std@@V?$_Vector_val@U?$_Simple_types@UKinematics@EulerDatagram@@@std@@@2@$00@std@@QEAA@XZ 00000001400143d0 f i eulerdatagram.obj
 0001:000133f0       ??1?$_Iterator012@Urandom_access_iterator_tag@std@@UKinematics@EulerDatagram@@_JPEBU34@AEBU34@U_Iterator_base12@2@@std@@QEAA@XZ 00000001400143f0 f i eulerdatagram.obj
 0001:00013410       ??1?$_Vector_alloc@U?$_Vec_base_types@UKinematics@EulerDatagram@@V?$allocator@UKinematics@EulerDatagram@@@std@@@std@@@std@@QEAA@XZ 0000000140014410 f i eulerdatagram.obj
 0001:00013440       ??1?$_Vector_const_iterator@V?$_Vector_val@U?$_Simple_types@UKinematics@EulerDatagram@@@std@@@std@@@std@@QEAA@XZ 0000000140014440 f i eulerdatagram.obj
 0001:00013460       ??1?$_Vector_val@U?$_Simple_types@UKinematics@EulerDatagram@@@std@@@std@@QEAA@XZ 0000000140014460 f i eulerdatagram.obj
 0001:00013480       ??1?$vector@UKinematics@EulerDatagram@@V?$allocator@UKinematics@EulerDatagram@@@std@@@std@@QEAA@XZ 0000000140014480 f i eulerdatagram.obj
 0001:000134b0       ??4XsQuaternion@@QEAAAEAU0@AEBU0@@Z 00000001400144b0 f i eulerdatagram.obj
 0001:00013520       ??8?$_Vector_const_iterator@V?$_Vector_val@U?$_Simple_types@UKinematics@EulerDatagram@@@std@@@std@@@std@@QEBA_NAEBV01@@Z 0000000140014520 f i eulerdatagram.obj
 0001:00013570       ??9?$_Vector_const_iterator@V?$_Vector_val@U?$_Simple_types@UKinematics@EulerDatagram@@@std@@@std@@@std@@QEBA_NAEBV01@@Z 0000000140014570 f i eulerdatagram.obj
 0001:000135b0       ??AXsEuler@@QEAAAEAN_K@Z   00000001400145b0 f i eulerdatagram.obj
 0001:000135d0       ??AXsQuaternion@@QEAAAEAN_K@Z 00000001400145d0 f i eulerdatagram.obj
 0001:000135f0       ??D?$_Vector_const_iterator@V?$_Vector_val@U?$_Simple_types@UKinematics@EulerDatagram@@@std@@@std@@@std@@QEBAAEBUKinematics@EulerDatagram@@XZ 00000001400145f0 f i eulerdatagram.obj
 0001:000136f0       ??E?$_Vector_const_iterator@V?$_Vector_val@U?$_Simple_types@UKinematics@EulerDatagram@@@std@@@std@@@std@@QEAAAEAV01@XZ 00000001400146f0 f i eulerdatagram.obj
 0001:000137f0       ??_EEulerDatagram@@UEAAPEAXI@Z 00000001400147f0 f i eulerdatagram.obj
 0001:000137f0       ??_GEulerDatagram@@UEAAPEAXI@Z 00000001400147f0 f i eulerdatagram.obj
 0001:00013830       ?_Alloc_proxy@?$_Vector_alloc@U?$_Vec_base_types@UKinematics@EulerDatagram@@V?$allocator@UKinematics@EulerDatagram@@@std@@@std@@@std@@QEAAXXZ 0000000140014830 f i eulerdatagram.obj
 0001:000138e0       ?_Compat@?$_Vector_const_iterator@V?$_Vector_val@U?$_Simple_types@UKinematics@EulerDatagram@@@std@@@std@@@std@@QEBAXAEBV12@@Z 00000001400148e0 f i eulerdatagram.obj
 0001:000139b0       ?_Destroy@?$vector@UKinematics@EulerDatagram@@V?$allocator@UKinematics@EulerDatagram@@@std@@@std@@IEAAXPEAUKinematics@EulerDatagram@@0@Z 00000001400149b0 f i eulerdatagram.obj
 0001:000139f0       ?_Free_proxy@?$_Vector_alloc@U?$_Vec_base_types@UKinematics@EulerDatagram@@V?$allocator@UKinematics@EulerDatagram@@@std@@@std@@@std@@QEAAXXZ 00000001400149f0 f i eulerdatagram.obj
 0001:00013a80       ?_Get_data@?$_Vector_alloc@U?$_Vec_base_types@UKinematics@EulerDatagram@@V?$allocator@UKinematics@EulerDatagram@@@std@@@std@@@std@@QEAAAEAV?$_Vector_val@U?$_Simple_types@UKinematics@EulerDatagram@@@std@@@2@XZ 0000000140014a80 f i eulerdatagram.obj
 0001:00013aa0       ?_Get_data@?$_Vector_alloc@U?$_Vec_base_types@UKinematics@EulerDatagram@@V?$allocator@UKinematics@EulerDatagram@@@std@@@std@@@std@@QEBAAEBV?$_Vector_val@U?$_Simple_types@UKinematics@EulerDatagram@@@std@@@2@XZ 0000000140014aa0 f i eulerdatagram.obj
 0001:00013ac0       ?_Get_first@?$_Compressed_pair@U?$_Wrap_alloc@V?$allocator@UKinematics@EulerDatagram@@@std@@@std@@V?$_Vector_val@U?$_Simple_types@UKinematics@EulerDatagram@@@std@@@2@$00@std@@QEAAAEAU?$_Wrap_alloc@V?$allocator@UKinematics@EulerDatagram@@@std@@@2@XZ 0000000140014ac0 f i eulerdatagram.obj
 0001:00013ad0       ?_Get_first@?$_Compressed_pair@U?$_Wrap_alloc@V?$allocator@UKinematics@EulerDatagram@@@std@@@std@@V?$_Vector_val@U?$_Simple_types@UKinematics@EulerDatagram@@@std@@@2@$00@std@@QEBAAEBU?$_Wrap_alloc@V?$allocator@UKinematics@EulerDatagram@@@std@@@2@XZ 0000000140014ad0 f i eulerdatagram.obj
 0001:00013ae0       ?_Get_second@?$_Compressed_pair@U?$_Wrap_alloc@V?$allocator@UKinematics@EulerDatagram@@@std@@@std@@V?$_Vector_val@U?$_Simple_types@UKinematics@EulerDatagram@@@std@@@2@$00@std@@QEAAAEAV?$_Vector_val@U?$_Simple_types@UKinematics@EulerDatagram@@@std@@@2@XZ 0000000140014ae0 f i eulerdatagram.obj
 0001:00013af0       ?_Get_second@?$_Compressed_pair@U?$_Wrap_alloc@V?$allocator@UKinematics@EulerDatagram@@@std@@@std@@V?$_Vector_val@U?$_Simple_types@UKinematics@EulerDatagram@@@std@@@2@$00@std@@QEBAAEBV?$_Vector_val@U?$_Simple_types@UKinematics@EulerDatagram@@@std@@@2@XZ 0000000140014af0 f i eulerdatagram.obj
 0001:00013b00       ?_Getal@?$_Vector_alloc@U?$_Vec_base_types@UKinematics@EulerDatagram@@V?$allocator@UKinematics@EulerDatagram@@@std@@@std@@@std@@QEAAAEAU?$_Wrap_alloc@V?$allocator@UKinematics@EulerDatagram@@@std@@@2@XZ 0000000140014b00 f i eulerdatagram.obj
 0001:00013b20       ?_Getal@?$_Vector_alloc@U?$_Vec_base_types@UKinematics@EulerDatagram@@V?$allocator@UKinematics@EulerDatagram@@@std@@@std@@@std@@QEBAAEBU?$_Wrap_alloc@V?$allocator@UKinematics@EulerDatagram@@@std@@@2@XZ 0000000140014b20 f i eulerdatagram.obj
 0001:00013b40       ?_Getpfirst@?$_Vector_alloc@U?$_Vec_base_types@UKinematics@EulerDatagram@@V?$allocator@UKinematics@EulerDatagram@@@std@@@std@@@std@@QEBAPEAPEAU_Iterator_base12@2@XZ 0000000140014b40 f i eulerdatagram.obj
 0001:00013b60       ?_Grow_to@?$vector@UKinematics@EulerDatagram@@V?$allocator@UKinematics@EulerDatagram@@@std@@@std@@IEBA_K_K@Z 0000000140014b60 f i eulerdatagram.obj
 0001:00013c10       ?_Inside@?$vector@UKinematics@EulerDatagram@@V?$allocator@UKinematics@EulerDatagram@@@std@@@std@@IEBA_NPEBUKinematics@EulerDatagram@@@Z 0000000140014c10 f i eulerdatagram.obj
 0001:00013c70       ?_Myend@?$_Vector_alloc@U?$_Vec_base_types@UKinematics@EulerDatagram@@V?$allocator@UKinematics@EulerDatagram@@@std@@@std@@@std@@QEAAAEAPEAUKinematics@EulerDatagram@@XZ 0000000140014c70 f i eulerdatagram.obj
 0001:00013c90       ?_Myend@?$_Vector_alloc@U?$_Vec_base_types@UKinematics@EulerDatagram@@V?$allocator@UKinematics@EulerDatagram@@@std@@@std@@@std@@QEBAAEBQEAUKinematics@EulerDatagram@@XZ 0000000140014c90 f i eulerdatagram.obj
 0001:00013cb0       ?_Myfirst@?$_Vector_alloc@U?$_Vec_base_types@UKinematics@EulerDatagram@@V?$allocator@UKinematics@EulerDatagram@@@std@@@std@@@std@@QEAAAEAPEAUKinematics@EulerDatagram@@XZ 0000000140014cb0 f i eulerdatagram.obj
 0001:00013cd0       ?_Myfirst@?$_Vector_alloc@U?$_Vec_base_types@UKinematics@EulerDatagram@@V?$allocator@UKinematics@EulerDatagram@@@std@@@std@@@std@@QEBAAEBQEAUKinematics@EulerDatagram@@XZ 0000000140014cd0 f i eulerdatagram.obj
 0001:00013cf0       ?_Mylast@?$_Vector_alloc@U?$_Vec_base_types@UKinematics@EulerDatagram@@V?$allocator@UKinematics@EulerDatagram@@@std@@@std@@@std@@QEAAAEAPEAUKinematics@EulerDatagram@@XZ 0000000140014cf0 f i eulerdatagram.obj
 0001:00013d10       ?_Mylast@?$_Vector_alloc@U?$_Vec_base_types@UKinematics@EulerDatagram@@V?$allocator@UKinematics@EulerDatagram@@@std@@@std@@@std@@QEBAAEBQEAUKinematics@EulerDatagram@@XZ 0000000140014d10 f i eulerdatagram.obj
 0001:00013d30       ?_Myproxy@?$_Vector_alloc@U?$_Vec_base_types@UKinematics@EulerDatagram@@V?$allocator@UKinematics@EulerDatagram@@@std@@@std@@@std@@QEAAAEAPEAU_Container_proxy@2@XZ 0000000140014d30 f i eulerdatagram.obj
 0001:00013d50       ?_Orphan_all@?$_Vector_alloc@U?$_Vec_base_types@UKinematics@EulerDatagram@@V?$allocator@UKinematics@EulerDatagram@@@std@@@std@@@std@@QEAAXXZ 0000000140014d50 f i eulerdatagram.obj
 0001:00013d70       ?_Orphan_range@?$vector@UKinematics@EulerDatagram@@V?$allocator@UKinematics@EulerDatagram@@@std@@@std@@IEBAXPEAUKinematics@EulerDatagram@@0@Z 0000000140014d70 f i eulerdatagram.obj
 0001:00013e30       ?_Reallocate@?$vector@UKinematics@EulerDatagram@@V?$allocator@UKinematics@EulerDatagram@@@std@@@std@@IEAAX_K@Z 0000000140014e30 f i eulerdatagram.obj
 0001:00014000       ?_Reserve@?$vector@UKinematics@EulerDatagram@@V?$allocator@UKinematics@EulerDatagram@@@std@@@std@@IEAAX_K@Z 0000000140015000 f i eulerdatagram.obj
 0001:00014090       ?_Tidy@?$vector@UKinematics@EulerDatagram@@V?$allocator@UKinematics@EulerDatagram@@@std@@@std@@IEAAXXZ 0000000140015090 f i eulerdatagram.obj
 0001:00014190       ?_Unused_capacity@?$vector@UKinematics@EulerDatagram@@V?$allocator@UKinematics@EulerDatagram@@@std@@@std@@QEBA_KXZ 0000000140015190 f i eulerdatagram.obj
 0001:000141e0       ?_Xlen@?$vector@UKinematics@EulerDatagram@@V?$allocator@UKinematics@EulerDatagram@@@std@@@std@@IEBAXXZ 00000001400151e0 f i eulerdatagram.obj
 0001:00014200       ?allocate@?$_Wrap_alloc@V?$allocator@UKinematics@EulerDatagram@@@std@@@std@@QEAAPEAUKinematics@EulerDatagram@@_K@Z 0000000140015200 f i eulerdatagram.obj
 0001:00014230       ?allocate@?$allocator@UKinematics@EulerDatagram@@@std@@QEAAPEAUKinematics@EulerDatagram@@_K@Z 0000000140015230 f i eulerdatagram.obj
 0001:00014260       ?begin@?$vector@UKinematics@EulerDatagram@@V?$allocator@UKinematics@EulerDatagram@@@std@@@std@@QEBA?AV?$_Vector_const_iterator@V?$_Vector_val@U?$_Simple_types@UKinematics@EulerDatagram@@@std@@@std@@@2@XZ 0000000140015260 f i eulerdatagram.obj
 0001:000142c0       ?capacity@?$vector@UKinematics@EulerDatagram@@V?$allocator@UKinematics@EulerDatagram@@@std@@@std@@QEBA_KXZ 00000001400152c0 f i eulerdatagram.obj
 0001:00014310       ?deallocate@?$_Wrap_alloc@V?$allocator@UKinematics@EulerDatagram@@@std@@@std@@QEAAXPEAUKinematics@EulerDatagram@@_K@Z 0000000140015310 f i eulerdatagram.obj
 0001:00014340       ?deallocate@?$allocator@UKinematics@EulerDatagram@@@std@@QEAAXPEAUKinematics@EulerDatagram@@_K@Z 0000000140015340 f i eulerdatagram.obj
 0001:00014370       ?end@?$vector@UKinematics@EulerDatagram@@V?$allocator@UKinematics@EulerDatagram@@@std@@@std@@QEBA?AV?$_Vector_const_iterator@V?$_Vector_val@U?$_Simple_types@UKinematics@EulerDatagram@@@std@@@std@@@2@XZ 0000000140015370 f i eulerdatagram.obj
 0001:000143d0       ?fromEulerAngles@XsQuaternion@@QEAAAEAU1@AEBUXsEuler@@@Z 00000001400153d0 f i eulerdatagram.obj
 0001:00014400       ?fromQuaternion@XsEuler@@QEAAAEAU1@AEBUXsQuaternion@@@Z 0000000140015400 f i eulerdatagram.obj
 0001:00014430       ?max_size@?$_Wrap_alloc@V?$allocator@UKinematics@EulerDatagram@@@std@@@std@@QEBA_KU_Nil@2@@Z 0000000140015430 f i eulerdatagram.obj
 0001:00014450       ?max_size@?$allocator@UKinematics@EulerDatagram@@@std@@QEBA_KXZ 0000000140015450 f i eulerdatagram.obj
 0001:00014460       ?max_size@?$allocator_traits@V?$allocator@UKinematics@EulerDatagram@@@std@@@std@@SA_KAEBV?$allocator@UKinematics@EulerDatagram@@@2@@Z 0000000140015460 f i eulerdatagram.obj
 0001:00014480       ?max_size@?$vector@UKinematics@EulerDatagram@@V?$allocator@UKinematics@EulerDatagram@@@std@@@std@@QEBA_KXZ 0000000140015480 f i eulerdatagram.obj
 0001:000144b0       ?push_back@?$vector@UKinematics@EulerDatagram@@V?$allocator@UKinematics@EulerDatagram@@@std@@@std@@QEAAXAEBUKinematics@EulerDatagram@@@Z 00000001400154b0 f i eulerdatagram.obj
 0001:00014710       ?size@?$vector@UKinematics@EulerDatagram@@V?$allocator@UKinematics@EulerDatagram@@@std@@@std@@QEBA_KXZ 0000000140015710 f i eulerdatagram.obj
 0001:00014760       ??0JointAnglesDatagram@@QEAA@XZ 0000000140015760 f   jointanglesdatagram.obj
 0001:000147c0       ??1JointAnglesDatagram@@UEAA@XZ 00000001400157c0 f   jointanglesdatagram.obj
 0001:00014800       ?printData@JointAnglesDatagram@@UEBAXXZ 0000000140015800 f   jointanglesdatagram.obj
 0001:00014820       ?deserializeData@JointAnglesDatagram@@MEAAXAEAVStreamer@@@Z 0000000140015820 f   jointanglesdatagram.obj
 0001:00014900       ?alignData@JointAnglesDatagram@@QEBA?AV?$vector@MV?$allocator@M@std@@@std@@XZ 0000000140015900 f   jointanglesdatagram.obj
 0001:00014a90       ?streamData@JointAnglesDatagram@@QEBAXXZ 0000000140015a90 f   jointanglesdatagram.obj
 0001:00014b00       ??$?0$$V@?$_Compressed_pair@U?$_Wrap_alloc@V?$allocator@UJoint@JointAnglesDatagram@@@std@@@std@@V?$_Vector_val@U?$_Simple_types@UJoint@JointAnglesDatagram@@@std@@@2@$00@std@@QEAA@U_Zero_then_variadic_args_t@1@@Z 0000000140015b00 f i jointanglesdatagram.obj
 0001:00014b30       ??$?0AEAU?$_Wrap_alloc@V?$allocator@UJoint@JointAnglesDatagram@@@std@@@std@@@?$_Wrap_alloc@V?$allocator@U_Container_proxy@std@@@std@@@std@@QEAA@AEAU?$_Wrap_alloc@V?$allocator@UJoint@JointAnglesDatagram@@@std@@@1@@Z 0000000140015b30 f i jointanglesdatagram.obj
 0001:00014b60       ??$?0UJoint@JointAnglesDatagram@@@?$allocator@U_Container_proxy@std@@@std@@QEAA@AEBV?$allocator@UJoint@JointAnglesDatagram@@@1@@Z 0000000140015b60 f i jointanglesdatagram.obj
 0001:00014b70       ??$_Copy_memmove@PEAUJoint@JointAnglesDatagram@@PEAU12@@std@@YAPEAUJoint@JointAnglesDatagram@@PEAU12@00@Z 0000000140015b70 f i jointanglesdatagram.obj
 0001:00014be0       ??$_Destroy_range1@V?$allocator@UJoint@JointAnglesDatagram@@@std@@PEAUJoint@JointAnglesDatagram@@@std@@YAXPEAUJoint@JointAnglesDatagram@@0AEAU?$_Wrap_alloc@V?$allocator@UJoint@JointAnglesDatagram@@@std@@@0@U?$integral_constant@_N$00@0@@Z 0000000140015be0 f i jointanglesdatagram.obj
 0001:00014c00       ??$_Destroy_range@V?$allocator@UJoint@JointAnglesDatagram@@@std@@PEAUJoint@JointAnglesDatagram@@@std@@YAXPEAUJoint@JointAnglesDatagram@@0AEAU?$_Wrap_alloc@V?$allocator@UJoint@JointAnglesDatagram@@@std@@@0@@Z 0000000140015c00 f i jointanglesdatagram.obj
 0001:00014c40       ??$_Ptr_move_cat@UJoint@JointAnglesDatagram@@U12@@std@@YA?AU_Really_trivial_ptr_iterator_tag@0@AEBQEAUJoint@JointAnglesDatagram@@0@Z 0000000140015c40 f i jointanglesdatagram.obj
 0001:00014c60       ??$_Rechecked@PEAUJoint@JointAnglesDatagram@@PEAU12@@std@@YAAEAPEAUJoint@JointAnglesDatagram@@AEAPEAU12@PEAU12@@Z 0000000140015c60 f i jointanglesdatagram.obj
 0001:00014c80       ??$_Umove@PEAUJoint@JointAnglesDatagram@@@?$vector@UJoint@JointAnglesDatagram@@V?$allocator@UJoint@JointAnglesDatagram@@@std@@@std@@IEAAPEAUJoint@JointAnglesDatagram@@PEAU23@00@Z 0000000140015c80 f i jointanglesdatagram.obj
 0001:00014cc0       ??$_Unchecked@PEAUJoint@JointAnglesDatagram@@@std@@YAPEAUJoint@JointAnglesDatagram@@PEAU12@@Z 0000000140015cc0 f i jointanglesdatagram.obj
 0001:00014cd0       ??$_Unfancy@UJoint@JointAnglesDatagram@@@std@@YAPEAUJoint@JointAnglesDatagram@@PEAU12@@Z 0000000140015cd0 f i jointanglesdatagram.obj
 0001:00014ce0       ??$_Uninitialized_move@PEAUJoint@JointAnglesDatagram@@PEAU12@V?$allocator@UJoint@JointAnglesDatagram@@@std@@@std@@YAPEAUJoint@JointAnglesDatagram@@PEAU12@00AEAU?$_Wrap_alloc@V?$allocator@UJoint@JointAnglesDatagram@@@std@@@0@@Z 0000000140015ce0 f i jointanglesdatagram.obj
 0001:00014d60       ??$_Uninitialized_move_al_unchecked1@UJoint@JointAnglesDatagram@@U12@V?$allocator@UJoint@JointAnglesDatagram@@@std@@@std@@YAPEAUJoint@JointAnglesDatagram@@PEAU12@00AEAU?$_Wrap_alloc@V?$allocator@UJoint@JointAnglesDatagram@@@std@@@0@U_Really_trivial_ptr_iterator_tag@0@U?$integral_constant@_N$00@0@@Z 0000000140015d60 f i jointanglesdatagram.obj
 0001:00014da0       ??$_Uninitialized_move_al_unchecked@PEAUJoint@JointAnglesDatagram@@PEAU12@V?$allocator@UJoint@JointAnglesDatagram@@@std@@@std@@YAPEAUJoint@JointAnglesDatagram@@PEAU12@00AEAU?$_Wrap_alloc@V?$allocator@UJoint@JointAnglesDatagram@@@std@@@0@@Z 0000000140015da0 f i jointanglesdatagram.obj
 0001:00014e00       ??$addressof@$$CBUJoint@JointAnglesDatagram@@@std@@YAPEBUJoint@JointAnglesDatagram@@AEBU12@@Z 0000000140015e00 f i jointanglesdatagram.obj
 0001:00014e10       ??$construct@UJoint@JointAnglesDatagram@@AEAU12@@?$_Wrap_alloc@V?$allocator@UJoint@JointAnglesDatagram@@@std@@@std@@QEAAXPEAUJoint@JointAnglesDatagram@@AEAU23@@Z 0000000140015e10 f i jointanglesdatagram.obj
 0001:00014e50       ??$construct@UJoint@JointAnglesDatagram@@AEAU12@@?$allocator@UJoint@JointAnglesDatagram@@@std@@QEAAXPEAUJoint@JointAnglesDatagram@@AEAU23@@Z 0000000140015e50 f i jointanglesdatagram.obj
 0001:00014ec0       ??$construct@UJoint@JointAnglesDatagram@@AEAU12@@?$allocator_traits@V?$allocator@UJoint@JointAnglesDatagram@@@std@@@std@@SAXAEAV?$allocator@UJoint@JointAnglesDatagram@@@1@PEAUJoint@JointAnglesDatagram@@AEAU34@@Z 0000000140015ec0 f i jointanglesdatagram.obj
 0001:00014f00       ??$construct@UJoint@JointAnglesDatagram@@AEBU12@@?$_Wrap_alloc@V?$allocator@UJoint@JointAnglesDatagram@@@std@@@std@@QEAAXPEAUJoint@JointAnglesDatagram@@AEBU23@@Z 0000000140015f00 f i jointanglesdatagram.obj
 0001:00014f40       ??$construct@UJoint@JointAnglesDatagram@@AEBU12@@?$allocator@UJoint@JointAnglesDatagram@@@std@@QEAAXPEAUJoint@JointAnglesDatagram@@AEBU23@@Z 0000000140015f40 f i jointanglesdatagram.obj
 0001:00014fb0       ??$construct@UJoint@JointAnglesDatagram@@AEBU12@@?$allocator_traits@V?$allocator@UJoint@JointAnglesDatagram@@@std@@@std@@SAXAEAV?$allocator@UJoint@JointAnglesDatagram@@@1@PEAUJoint@JointAnglesDatagram@@AEBU34@@Z 0000000140015fb0 f i jointanglesdatagram.obj
 0001:00014ff0       ??$forward@AEAU?$_Wrap_alloc@V?$allocator@UJoint@JointAnglesDatagram@@@std@@@std@@@std@@YAAEAU?$_Wrap_alloc@V?$allocator@UJoint@JointAnglesDatagram@@@std@@@0@AEAU10@@Z 0000000140015ff0 f i jointanglesdatagram.obj
 0001:00015000       ??$forward@AEAUJoint@JointAnglesDatagram@@@std@@YAAEAUJoint@JointAnglesDatagram@@AEAU12@@Z 0000000140016000 f i jointanglesdatagram.obj
 0001:00015010       ??$forward@AEBUJoint@JointAnglesDatagram@@@std@@YAAEBUJoint@JointAnglesDatagram@@AEBU12@@Z 0000000140016010 f i jointanglesdatagram.obj
 0001:00015020       ??0?$_Iterator012@Urandom_access_iterator_tag@std@@UJoint@JointAnglesDatagram@@_JPEBU34@AEBU34@U_Iterator_base12@2@@std@@QEAA@XZ 0000000140016020 f i jointanglesdatagram.obj
 0001:00015040       ??0?$_Vector_alloc@U?$_Vec_base_types@UJoint@JointAnglesDatagram@@V?$allocator@UJoint@JointAnglesDatagram@@@std@@@std@@@std@@QEAA@XZ 0000000140016040 f i jointanglesdatagram.obj
 0001:00015080       ??0?$_Vector_const_iterator@V?$_Vector_val@U?$_Simple_types@UJoint@JointAnglesDatagram@@@std@@@std@@@std@@QEAA@PEAUJoint@JointAnglesDatagram@@PEBU_Container_base12@1@@Z 0000000140016080 f i jointanglesdatagram.obj
 0001:000150d0       ??0?$_Vector_val@U?$_Simple_types@UJoint@JointAnglesDatagram@@@std@@@std@@QEAA@XZ 00000001400160d0 f i jointanglesdatagram.obj
 0001:00015120       ??0?$_Wrap_alloc@V?$allocator@UJoint@JointAnglesDatagram@@@std@@@std@@QEAA@XZ 0000000140016120 f i jointanglesdatagram.obj
 0001:00015140       ??0?$allocator@UJoint@JointAnglesDatagram@@@std@@QEAA@XZ 0000000140016140 f i jointanglesdatagram.obj
 0001:00015150       ??0?$vector@UJoint@JointAnglesDatagram@@V?$allocator@UJoint@JointAnglesDatagram@@@std@@@std@@QEAA@XZ 0000000140016150 f i jointanglesdatagram.obj
 0001:00015180       ??1?$_Compressed_pair@U?$_Wrap_alloc@V?$allocator@UJoint@JointAnglesDatagram@@@std@@@std@@V?$_Vector_val@U?$_Simple_types@UJoint@JointAnglesDatagram@@@std@@@2@$00@std@@QEAA@XZ 0000000140016180 f i jointanglesdatagram.obj
 0001:000151a0       ??1?$_Iterator012@Urandom_access_iterator_tag@std@@UJoint@JointAnglesDatagram@@_JPEBU34@AEBU34@U_Iterator_base12@2@@std@@QEAA@XZ 00000001400161a0 f i jointanglesdatagram.obj
 0001:000151c0       ??1?$_Vector_alloc@U?$_Vec_base_types@UJoint@JointAnglesDatagram@@V?$allocator@UJoint@JointAnglesDatagram@@@std@@@std@@@std@@QEAA@XZ 00000001400161c0 f i jointanglesdatagram.obj
 0001:000151f0       ??1?$_Vector_const_iterator@V?$_Vector_val@U?$_Simple_types@UJoint@JointAnglesDatagram@@@std@@@std@@@std@@QEAA@XZ 00000001400161f0 f i jointanglesdatagram.obj
 0001:00015210       ??1?$_Vector_val@U?$_Simple_types@UJoint@JointAnglesDatagram@@@std@@@std@@QEAA@XZ 0000000140016210 f i jointanglesdatagram.obj
 0001:00015230       ??1?$vector@UJoint@JointAnglesDatagram@@V?$allocator@UJoint@JointAnglesDatagram@@@std@@@std@@QEAA@XZ 0000000140016230 f i jointanglesdatagram.obj
 0001:00015260       ??8?$_Vector_const_iterator@V?$_Vector_val@U?$_Simple_types@UJoint@JointAnglesDatagram@@@std@@@std@@@std@@QEBA_NAEBV01@@Z 0000000140016260 f i jointanglesdatagram.obj
 0001:000152b0       ??9?$_Vector_const_iterator@V?$_Vector_val@U?$_Simple_types@UJoint@JointAnglesDatagram@@@std@@@std@@@std@@QEBA_NAEBV01@@Z 00000001400162b0 f i jointanglesdatagram.obj
 0001:000152f0       ??D?$_Vector_const_iterator@V?$_Vector_val@U?$_Simple_types@UJoint@JointAnglesDatagram@@@std@@@std@@@std@@QEBAAEBUJoint@JointAnglesDatagram@@XZ 00000001400162f0 f i jointanglesdatagram.obj
 0001:000153f0       ??E?$_Vector_const_iterator@V?$_Vector_val@U?$_Simple_types@UJoint@JointAnglesDatagram@@@std@@@std@@@std@@QEAAAEAV01@XZ 00000001400163f0 f i jointanglesdatagram.obj
 0001:000154f0       ??_EJointAnglesDatagram@@UEAAPEAXI@Z 00000001400164f0 f i jointanglesdatagram.obj
 0001:000154f0       ??_GJointAnglesDatagram@@UEAAPEAXI@Z 00000001400164f0 f i jointanglesdatagram.obj
 0001:00015530       ?_Alloc_proxy@?$_Vector_alloc@U?$_Vec_base_types@UJoint@JointAnglesDatagram@@V?$allocator@UJoint@JointAnglesDatagram@@@std@@@std@@@std@@QEAAXXZ 0000000140016530 f i jointanglesdatagram.obj
 0001:000155e0       ?_Compat@?$_Vector_const_iterator@V?$_Vector_val@U?$_Simple_types@UJoint@JointAnglesDatagram@@@std@@@std@@@std@@QEBAXAEBV12@@Z 00000001400165e0 f i jointanglesdatagram.obj
 0001:000156b0       ?_Destroy@?$vector@UJoint@JointAnglesDatagram@@V?$allocator@UJoint@JointAnglesDatagram@@@std@@@std@@IEAAXPEAUJoint@JointAnglesDatagram@@0@Z 00000001400166b0 f i jointanglesdatagram.obj
 0001:000156f0       ?_Free_proxy@?$_Vector_alloc@U?$_Vec_base_types@UJoint@JointAnglesDatagram@@V?$allocator@UJoint@JointAnglesDatagram@@@std@@@std@@@std@@QEAAXXZ 00000001400166f0 f i jointanglesdatagram.obj
 0001:00015780       ?_Get_data@?$_Vector_alloc@U?$_Vec_base_types@UJoint@JointAnglesDatagram@@V?$allocator@UJoint@JointAnglesDatagram@@@std@@@std@@@std@@QEAAAEAV?$_Vector_val@U?$_Simple_types@UJoint@JointAnglesDatagram@@@std@@@2@XZ 0000000140016780 f i jointanglesdatagram.obj
 0001:000157a0       ?_Get_data@?$_Vector_alloc@U?$_Vec_base_types@UJoint@JointAnglesDatagram@@V?$allocator@UJoint@JointAnglesDatagram@@@std@@@std@@@std@@QEBAAEBV?$_Vector_val@U?$_Simple_types@UJoint@JointAnglesDatagram@@@std@@@2@XZ 00000001400167a0 f i jointanglesdatagram.obj
 0001:000157c0       ?_Get_first@?$_Compressed_pair@U?$_Wrap_alloc@V?$allocator@UJoint@JointAnglesDatagram@@@std@@@std@@V?$_Vector_val@U?$_Simple_types@UJoint@JointAnglesDatagram@@@std@@@2@$00@std@@QEAAAEAU?$_Wrap_alloc@V?$allocator@UJoint@JointAnglesDatagram@@@std@@@2@XZ 00000001400167c0 f i jointanglesdatagram.obj
 0001:000157d0       ?_Get_first@?$_Compressed_pair@U?$_Wrap_alloc@V?$allocator@UJoint@JointAnglesDatagram@@@std@@@std@@V?$_Vector_val@U?$_Simple_types@UJoint@JointAnglesDatagram@@@std@@@2@$00@std@@QEBAAEBU?$_Wrap_alloc@V?$allocator@UJoint@JointAnglesDatagram@@@std@@@2@XZ 00000001400167d0 f i jointanglesdatagram.obj
 0001:000157e0       ?_Get_second@?$_Compressed_pair@U?$_Wrap_alloc@V?$allocator@UJoint@JointAnglesDatagram@@@std@@@std@@V?$_Vector_val@U?$_Simple_types@UJoint@JointAnglesDatagram@@@std@@@2@$00@std@@QEAAAEAV?$_Vector_val@U?$_Simple_types@UJoint@JointAnglesDatagram@@@std@@@2@XZ 00000001400167e0 f i jointanglesdatagram.obj
 0001:000157f0       ?_Get_second@?$_Compressed_pair@U?$_Wrap_alloc@V?$allocator@UJoint@JointAnglesDatagram@@@std@@@std@@V?$_Vector_val@U?$_Simple_types@UJoint@JointAnglesDatagram@@@std@@@2@$00@std@@QEBAAEBV?$_Vector_val@U?$_Simple_types@UJoint@JointAnglesDatagram@@@std@@@2@XZ 00000001400167f0 f i jointanglesdatagram.obj
 0001:00015800       ?_Getal@?$_Vector_alloc@U?$_Vec_base_types@UJoint@JointAnglesDatagram@@V?$allocator@UJoint@JointAnglesDatagram@@@std@@@std@@@std@@QEAAAEAU?$_Wrap_alloc@V?$allocator@UJoint@JointAnglesDatagram@@@std@@@2@XZ 0000000140016800 f i jointanglesdatagram.obj
 0001:00015820       ?_Getal@?$_Vector_alloc@U?$_Vec_base_types@UJoint@JointAnglesDatagram@@V?$allocator@UJoint@JointAnglesDatagram@@@std@@@std@@@std@@QEBAAEBU?$_Wrap_alloc@V?$allocator@UJoint@JointAnglesDatagram@@@std@@@2@XZ 0000000140016820 f i jointanglesdatagram.obj
 0001:00015840       ?_Getpfirst@?$_Vector_alloc@U?$_Vec_base_types@UJoint@JointAnglesDatagram@@V?$allocator@UJoint@JointAnglesDatagram@@@std@@@std@@@std@@QEBAPEAPEAU_Iterator_base12@2@XZ 0000000140016840 f i jointanglesdatagram.obj
 0001:00015860       ?_Grow_to@?$vector@UJoint@JointAnglesDatagram@@V?$allocator@UJoint@JointAnglesDatagram@@@std@@@std@@IEBA_K_K@Z 0000000140016860 f i jointanglesdatagram.obj
 0001:00015910       ?_Inside@?$vector@UJoint@JointAnglesDatagram@@V?$allocator@UJoint@JointAnglesDatagram@@@std@@@std@@IEBA_NPEBUJoint@JointAnglesDatagram@@@Z 0000000140016910 f i jointanglesdatagram.obj
 0001:00015970       ?_Myend@?$_Vector_alloc@U?$_Vec_base_types@UJoint@JointAnglesDatagram@@V?$allocator@UJoint@JointAnglesDatagram@@@std@@@std@@@std@@QEAAAEAPEAUJoint@JointAnglesDatagram@@XZ 0000000140016970 f i jointanglesdatagram.obj
 0001:00015990       ?_Myend@?$_Vector_alloc@U?$_Vec_base_types@UJoint@JointAnglesDatagram@@V?$allocator@UJoint@JointAnglesDatagram@@@std@@@std@@@std@@QEBAAEBQEAUJoint@JointAnglesDatagram@@XZ 0000000140016990 f i jointanglesdatagram.obj
 0001:000159b0       ?_Myfirst@?$_Vector_alloc@U?$_Vec_base_types@UJoint@JointAnglesDatagram@@V?$allocator@UJoint@JointAnglesDatagram@@@std@@@std@@@std@@QEAAAEAPEAUJoint@JointAnglesDatagram@@XZ 00000001400169b0 f i jointanglesdatagram.obj
 0001:000159d0       ?_Myfirst@?$_Vector_alloc@U?$_Vec_base_types@UJoint@JointAnglesDatagram@@V?$allocator@UJoint@JointAnglesDatagram@@@std@@@std@@@std@@QEBAAEBQEAUJoint@JointAnglesDatagram@@XZ 00000001400169d0 f i jointanglesdatagram.obj
 0001:000159f0       ?_Mylast@?$_Vector_alloc@U?$_Vec_base_types@UJoint@JointAnglesDatagram@@V?$allocator@UJoint@JointAnglesDatagram@@@std@@@std@@@std@@QEAAAEAPEAUJoint@JointAnglesDatagram@@XZ 00000001400169f0 f i jointanglesdatagram.obj
 0001:00015a10       ?_Mylast@?$_Vector_alloc@U?$_Vec_base_types@UJoint@JointAnglesDatagram@@V?$allocator@UJoint@JointAnglesDatagram@@@std@@@std@@@std@@QEBAAEBQEAUJoint@JointAnglesDatagram@@XZ 0000000140016a10 f i jointanglesdatagram.obj
 0001:00015a30       ?_Myproxy@?$_Vector_alloc@U?$_Vec_base_types@UJoint@JointAnglesDatagram@@V?$allocator@UJoint@JointAnglesDatagram@@@std@@@std@@@std@@QEAAAEAPEAU_Container_proxy@2@XZ 0000000140016a30 f i jointanglesdatagram.obj
 0001:00015a50       ?_Orphan_all@?$_Vector_alloc@U?$_Vec_base_types@UJoint@JointAnglesDatagram@@V?$allocator@UJoint@JointAnglesDatagram@@@std@@@std@@@std@@QEAAXXZ 0000000140016a50 f i jointanglesdatagram.obj
 0001:00015a70       ?_Orphan_range@?$vector@UJoint@JointAnglesDatagram@@V?$allocator@UJoint@JointAnglesDatagram@@@std@@@std@@IEBAXPEAUJoint@JointAnglesDatagram@@0@Z 0000000140016a70 f i jointanglesdatagram.obj
 0001:00015b30       ?_Reallocate@?$vector@UJoint@JointAnglesDatagram@@V?$allocator@UJoint@JointAnglesDatagram@@@std@@@std@@IEAAX_K@Z 0000000140016b30 f i jointanglesdatagram.obj
 0001:00015d00       ?_Reserve@?$vector@UJoint@JointAnglesDatagram@@V?$allocator@UJoint@JointAnglesDatagram@@@std@@@std@@IEAAX_K@Z 0000000140016d00 f i jointanglesdatagram.obj
 0001:00015d90       ?_Tidy@?$vector@UJoint@JointAnglesDatagram@@V?$allocator@UJoint@JointAnglesDatagram@@@std@@@std@@IEAAXXZ 0000000140016d90 f i jointanglesdatagram.obj
 0001:00015e90       ?_Unused_capacity@?$vector@UJoint@JointAnglesDatagram@@V?$allocator@UJoint@JointAnglesDatagram@@@std@@@std@@QEBA_KXZ 0000000140016e90 f i jointanglesdatagram.obj
 0001:00015ee0       ?_Xlen@?$vector@UJoint@JointAnglesDatagram@@V?$allocator@UJoint@JointAnglesDatagram@@@std@@@std@@IEBAXXZ 0000000140016ee0 f i jointanglesdatagram.obj
 0001:00015f00       ?allocate@?$_Wrap_alloc@V?$allocator@UJoint@JointAnglesDatagram@@@std@@@std@@QEAAPEAUJoint@JointAnglesDatagram@@_K@Z 0000000140016f00 f i jointanglesdatagram.obj
 0001:00015f30       ?allocate@?$allocator@UJoint@JointAnglesDatagram@@@std@@QEAAPEAUJoint@JointAnglesDatagram@@_K@Z 0000000140016f30 f i jointanglesdatagram.obj
 0001:00015f60       ?begin@?$vector@UJoint@JointAnglesDatagram@@V?$allocator@UJoint@JointAnglesDatagram@@@std@@@std@@QEBA?AV?$_Vector_const_iterator@V?$_Vector_val@U?$_Simple_types@UJoint@JointAnglesDatagram@@@std@@@std@@@2@XZ 0000000140016f60 f i jointanglesdatagram.obj
 0001:00015fc0       ?capacity@?$vector@UJoint@JointAnglesDatagram@@V?$allocator@UJoint@JointAnglesDatagram@@@std@@@std@@QEBA_KXZ 0000000140016fc0 f i jointanglesdatagram.obj
 0001:00016010       ?deallocate@?$_Wrap_alloc@V?$allocator@UJoint@JointAnglesDatagram@@@std@@@std@@QEAAXPEAUJoint@JointAnglesDatagram@@_K@Z 0000000140017010 f i jointanglesdatagram.obj
 0001:00016040       ?deallocate@?$allocator@UJoint@JointAnglesDatagram@@@std@@QEAAXPEAUJoint@JointAnglesDatagram@@_K@Z 0000000140017040 f i jointanglesdatagram.obj
 0001:00016070       ?end@?$vector@UJoint@JointAnglesDatagram@@V?$allocator@UJoint@JointAnglesDatagram@@@std@@@std@@QEBA?AV?$_Vector_const_iterator@V?$_Vector_val@U?$_Simple_types@UJoint@JointAnglesDatagram@@@std@@@std@@@2@XZ 0000000140017070 f i jointanglesdatagram.obj
 0001:000160d0       ?max_size@?$_Wrap_alloc@V?$allocator@UJoint@JointAnglesDatagram@@@std@@@std@@QEBA_KU_Nil@2@@Z 00000001400170d0 f i jointanglesdatagram.obj
 0001:000160f0       ?max_size@?$allocator@UJoint@JointAnglesDatagram@@@std@@QEBA_KXZ 00000001400170f0 f i jointanglesdatagram.obj
 0001:00016100       ?max_size@?$allocator_traits@V?$allocator@UJoint@JointAnglesDatagram@@@std@@@std@@SA_KAEBV?$allocator@UJoint@JointAnglesDatagram@@@2@@Z 0000000140017100 f i jointanglesdatagram.obj
 0001:00016120       ?max_size@?$vector@UJoint@JointAnglesDatagram@@V?$allocator@UJoint@JointAnglesDatagram@@@std@@@std@@QEBA_KXZ 0000000140017120 f i jointanglesdatagram.obj
 0001:00016150       ?push_back@?$vector@UJoint@JointAnglesDatagram@@V?$allocator@UJoint@JointAnglesDatagram@@@std@@@std@@QEAAXAEBUJoint@JointAnglesDatagram@@@Z 0000000140017150 f i jointanglesdatagram.obj
 0001:000163b0       ?size@?$vector@UJoint@JointAnglesDatagram@@V?$allocator@UJoint@JointAnglesDatagram@@@std@@@std@@QEBA_KXZ 00000001400173b0 f i jointanglesdatagram.obj
 0001:00016400       ??0LinearSegmentKinematicsDatagram@@QEAA@XZ 0000000140017400 f   linearsegmentkinematicsdatagram.obj
 0001:00016460       ??1LinearSegmentKinematicsDatagram@@UEAA@XZ 0000000140017460 f   linearsegmentkinematicsdatagram.obj
 0001:000164a0       ?printData@LinearSegmentKinematicsDatagram@@UEBAXXZ 00000001400174a0 f   linearsegmentkinematicsdatagram.obj
 0001:000164c0       ?deserializeData@LinearSegmentKinematicsDatagram@@MEAAXAEAVStreamer@@@Z 00000001400174c0 f   linearsegmentkinematicsdatagram.obj
 0001:00016600       ?alignData@LinearSegmentKinematicsDatagram@@QEBA?AV?$vector@MV?$allocator@M@std@@@std@@XZ 0000000140017600 f   linearsegmentkinematicsdatagram.obj
 0001:00016880       ?streamData@LinearSegmentKinematicsDatagram@@QEBAXXZ 0000000140017880 f   linearsegmentkinematicsdatagram.obj
 0001:000168f0       ??$?0$$V@?$_Compressed_pair@U?$_Wrap_alloc@V?$allocator@UKinematics@LinearSegmentKinematicsDatagram@@@std@@@std@@V?$_Vector_val@U?$_Simple_types@UKinematics@LinearSegmentKinematicsDatagram@@@std@@@2@$00@std@@QEAA@U_Zero_then_variadic_args_t@1@@Z 00000001400178f0 f i linearsegmentkinematicsdatagram.obj
 0001:00016920       ??$?0AEAU?$_Wrap_alloc@V?$allocator@UKinematics@LinearSegmentKinematicsDatagram@@@std@@@std@@@?$_Wrap_alloc@V?$allocator@U_Container_proxy@std@@@std@@@std@@QEAA@AEAU?$_Wrap_alloc@V?$allocator@UKinematics@LinearSegmentKinematicsDatagram@@@std@@@1@@Z 0000000140017920 f i linearsegmentkinematicsdatagram.obj
 0001:00016950       ??$?0UKinematics@LinearSegmentKinematicsDatagram@@@?$allocator@U_Container_proxy@std@@@std@@QEAA@AEBV?$allocator@UKinematics@LinearSegmentKinematicsDatagram@@@1@@Z 0000000140017950 f i linearsegmentkinematicsdatagram.obj
 0001:00016960       ??$_Copy_memmove@PEAUKinematics@LinearSegmentKinematicsDatagram@@PEAU12@@std@@YAPEAUKinematics@LinearSegmentKinematicsDatagram@@PEAU12@00@Z 0000000140017960 f i linearsegmentkinematicsdatagram.obj
 0001:000169d0       ??$_Destroy_range1@V?$allocator@UKinematics@LinearSegmentKinematicsDatagram@@@std@@PEAUKinematics@LinearSegmentKinematicsDatagram@@@std@@YAXPEAUKinematics@LinearSegmentKinematicsDatagram@@0AEAU?$_Wrap_alloc@V?$allocator@UKinematics@LinearSegmentKinematicsDatagram@@@std@@@0@U?$integral_constant@_N$00@0@@Z 00000001400179d0 f i linearsegmentkinematicsdatagram.obj
 0001:000169f0       ??$_Destroy_range@V?$allocator@UKinematics@LinearSegmentKinematicsDatagram@@@std@@PEAUKinematics@LinearSegmentKinematicsDatagram@@@std@@YAXPEAUKinematics@LinearSegmentKinematicsDatagram@@0AEAU?$_Wrap_alloc@V?$allocator@UKinematics@LinearSegmentKinematicsDatagram@@@std@@@0@@Z 00000001400179f0 f i linearsegmentkinematicsdatagram.obj
 0001:00016a30       ??$_Ptr_move_cat@UKinematics@LinearSegmentKinematicsDatagram@@U12@@std@@YA?AU_Really_trivial_ptr_iterator_tag@0@AEBQEAUKinematics@LinearSegmentKinematicsDatagram@@0@Z 0000000140017a30 f i linearsegmentkinematicsdatagram.obj
 0001:00016a50       ??$_Rechecked@PEAUKinematics@LinearSegmentKinematicsDatagram@@PEAU12@@std@@YAAEAPEAUKinematics@LinearSegmentKinematicsDatagram@@AEAPEAU12@PEAU12@@Z 0000000140017a50 f i linearsegmentkinematicsdatagram.obj
 0001:00016a70       ??$_Umove@PEAUKinematics@LinearSegmentKinematicsDatagram@@@?$vector@UKinematics@LinearSegmentKinematicsDatagram@@V?$allocator@UKinematics@LinearSegmentKinematicsDatagram@@@std@@@std@@IEAAPEAUKinematics@LinearSegmentKinematicsDatagram@@PEAU23@00@Z 0000000140017a70 f i linearsegmentkinematicsdatagram.obj
 0001:00016ab0       ??$_Unchecked@PEAUKinematics@LinearSegmentKinematicsDatagram@@@std@@YAPEAUKinematics@LinearSegmentKinematicsDatagram@@PEAU12@@Z 0000000140017ab0 f i linearsegmentkinematicsdatagram.obj
 0001:00016ac0       ??$_Unfancy@UKinematics@LinearSegmentKinematicsDatagram@@@std@@YAPEAUKinematics@LinearSegmentKinematicsDatagram@@PEAU12@@Z 0000000140017ac0 f i linearsegmentkinematicsdatagram.obj
 0001:00016ad0       ??$_Uninitialized_move@PEAUKinematics@LinearSegmentKinematicsDatagram@@PEAU12@V?$allocator@UKinematics@LinearSegmentKinematicsDatagram@@@std@@@std@@YAPEAUKinematics@LinearSegmentKinematicsDatagram@@PEAU12@00AEAU?$_Wrap_alloc@V?$allocator@UKinematics@LinearSegmentKinematicsDatagram@@@std@@@0@@Z 0000000140017ad0 f i linearsegmentkinematicsdatagram.obj
 0001:00016b50       ??$_Uninitialized_move_al_unchecked1@UKinematics@LinearSegmentKinematicsDatagram@@U12@V?$allocator@UKinematics@LinearSegmentKinematicsDatagram@@@std@@@std@@YAPEAUKinematics@LinearSegmentKinematicsDatagram@@PEAU12@00AEAU?$_Wrap_alloc@V?$allocator@UKinematics@LinearSegmentKinematicsDatagram@@@std@@@0@U_Really_trivial_ptr_iterator_tag@0@U?$integral_constant@_N$00@0@@Z 0000000140017b50 f i linearsegmentkinematicsdatagram.obj
 0001:00016b90       ??$_Uninitialized_move_al_unchecked@PEAUKinematics@LinearSegmentKinematicsDatagram@@PEAU12@V?$allocator@UKinematics@LinearSegmentKinematicsDatagram@@@std@@@std@@YAPEAUKinematics@LinearSegmentKinematicsDatagram@@PEAU12@00AEAU?$_Wrap_alloc@V?$allocator@UKinematics@LinearSegmentKinematicsDatagram@@@std@@@0@@Z 0000000140017b90 f i linearsegmentkinematicsdatagram.obj
 0001:00016bf0       ??$addressof@$$CBUKinematics@LinearSegmentKinematicsDatagram@@@std@@YAPEBUKinematics@LinearSegmentKinematicsDatagram@@AEBU12@@Z 0000000140017bf0 f i linearsegmentkinematicsdatagram.obj
 0001:00016c00       ??$construct@UKinematics@LinearSegmentKinematicsDatagram@@AEAU12@@?$_Wrap_alloc@V?$allocator@UKinematics@LinearSegmentKinematicsDatagram@@@std@@@std@@QEAAXPEAUKinematics@LinearSegmentKinematicsDatagram@@AEAU23@@Z 0000000140017c00 f i linearsegmentkinematicsdatagram.obj
 0001:00016c40       ??$construct@UKinematics@LinearSegmentKinematicsDatagram@@AEAU12@@?$allocator@UKinematics@LinearSegmentKinematicsDatagram@@@std@@QEAAXPEAUKinematics@LinearSegmentKinematicsDatagram@@AEAU23@@Z 0000000140017c40 f i linearsegmentkinematicsdatagram.obj
 0001:00016cb0       ??$construct@UKinematics@LinearSegmentKinematicsDatagram@@AEAU12@@?$allocator_traits@V?$allocator@UKinematics@LinearSegmentKinematicsDatagram@@@std@@@std@@SAXAEAV?$allocator@UKinematics@LinearSegmentKinematicsDatagram@@@1@PEAUKinematics@LinearSegmentKinematicsDatagram@@AEAU34@@Z 0000000140017cb0 f i linearsegmentkinematicsdatagram.obj
 0001:00016cf0       ??$construct@UKinematics@LinearSegmentKinematicsDatagram@@AEBU12@@?$_Wrap_alloc@V?$allocator@UKinematics@LinearSegmentKinematicsDatagram@@@std@@@std@@QEAAXPEAUKinematics@LinearSegmentKinematicsDatagram@@AEBU23@@Z 0000000140017cf0 f i linearsegmentkinematicsdatagram.obj
 0001:00016d30       ??$construct@UKinematics@LinearSegmentKinematicsDatagram@@AEBU12@@?$allocator@UKinematics@LinearSegmentKinematicsDatagram@@@std@@QEAAXPEAUKinematics@LinearSegmentKinematicsDatagram@@AEBU23@@Z 0000000140017d30 f i linearsegmentkinematicsdatagram.obj
 0001:00016da0       ??$construct@UKinematics@LinearSegmentKinematicsDatagram@@AEBU12@@?$allocator_traits@V?$allocator@UKinematics@LinearSegmentKinematicsDatagram@@@std@@@std@@SAXAEAV?$allocator@UKinematics@LinearSegmentKinematicsDatagram@@@1@PEAUKinematics@LinearSegmentKinematicsDatagram@@AEBU34@@Z 0000000140017da0 f i linearsegmentkinematicsdatagram.obj
 0001:00016de0       ??$forward@AEAU?$_Wrap_alloc@V?$allocator@UKinematics@LinearSegmentKinematicsDatagram@@@std@@@std@@@std@@YAAEAU?$_Wrap_alloc@V?$allocator@UKinematics@LinearSegmentKinematicsDatagram@@@std@@@0@AEAU10@@Z 0000000140017de0 f i linearsegmentkinematicsdatagram.obj
 0001:00016df0       ??$forward@AEAUKinematics@LinearSegmentKinematicsDatagram@@@std@@YAAEAUKinematics@LinearSegmentKinematicsDatagram@@AEAU12@@Z 0000000140017df0 f i linearsegmentkinematicsdatagram.obj
 0001:00016e00       ??$forward@AEBUKinematics@LinearSegmentKinematicsDatagram@@@std@@YAAEBUKinematics@LinearSegmentKinematicsDatagram@@AEBU12@@Z 0000000140017e00 f i linearsegmentkinematicsdatagram.obj
 0001:00016e10       ??0?$_Iterator012@Urandom_access_iterator_tag@std@@UKinematics@LinearSegmentKinematicsDatagram@@_JPEBU34@AEBU34@U_Iterator_base12@2@@std@@QEAA@XZ 0000000140017e10 f i linearsegmentkinematicsdatagram.obj
 0001:00016e30       ??0?$_Vector_alloc@U?$_Vec_base_types@UKinematics@LinearSegmentKinematicsDatagram@@V?$allocator@UKinematics@LinearSegmentKinematicsDatagram@@@std@@@std@@@std@@QEAA@XZ 0000000140017e30 f i linearsegmentkinematicsdatagram.obj
 0001:00016e70       ??0?$_Vector_const_iterator@V?$_Vector_val@U?$_Simple_types@UKinematics@LinearSegmentKinematicsDatagram@@@std@@@std@@@std@@QEAA@PEAUKinematics@LinearSegmentKinematicsDatagram@@PEBU_Container_base12@1@@Z 0000000140017e70 f i linearsegmentkinematicsdatagram.obj
 0001:00016ec0       ??0?$_Vector_val@U?$_Simple_types@UKinematics@LinearSegmentKinematicsDatagram@@@std@@@std@@QEAA@XZ 0000000140017ec0 f i linearsegmentkinematicsdatagram.obj
 0001:00016f10       ??0?$_Wrap_alloc@V?$allocator@UKinematics@LinearSegmentKinematicsDatagram@@@std@@@std@@QEAA@XZ 0000000140017f10 f i linearsegmentkinematicsdatagram.obj
 0001:00016f30       ??0?$allocator@UKinematics@LinearSegmentKinematicsDatagram@@@std@@QEAA@XZ 0000000140017f30 f i linearsegmentkinematicsdatagram.obj
 0001:00016f40       ??0?$vector@UKinematics@LinearSegmentKinematicsDatagram@@V?$allocator@UKinematics@LinearSegmentKinematicsDatagram@@@std@@@std@@QEAA@XZ 0000000140017f40 f i linearsegmentkinematicsdatagram.obj
 0001:00016f70       ??1?$_Compressed_pair@U?$_Wrap_alloc@V?$allocator@UKinematics@LinearSegmentKinematicsDatagram@@@std@@@std@@V?$_Vector_val@U?$_Simple_types@UKinematics@LinearSegmentKinematicsDatagram@@@std@@@2@$00@std@@QEAA@XZ 0000000140017f70 f i linearsegmentkinematicsdatagram.obj
 0001:00016f90       ??1?$_Iterator012@Urandom_access_iterator_tag@std@@UKinematics@LinearSegmentKinematicsDatagram@@_JPEBU34@AEBU34@U_Iterator_base12@2@@std@@QEAA@XZ 0000000140017f90 f i linearsegmentkinematicsdatagram.obj
 0001:00016fb0       ??1?$_Vector_alloc@U?$_Vec_base_types@UKinematics@LinearSegmentKinematicsDatagram@@V?$allocator@UKinematics@LinearSegmentKinematicsDatagram@@@std@@@std@@@std@@QEAA@XZ 0000000140017fb0 f i linearsegmentkinematicsdatagram.obj
 0001:00016fe0       ??1?$_Vector_const_iterator@V?$_Vector_val@U?$_Simple_types@UKinematics@LinearSegmentKinematicsDatagram@@@std@@@std@@@std@@QEAA@XZ 0000000140017fe0 f i linearsegmentkinematicsdatagram.obj
 0001:00017000       ??1?$_Vector_val@U?$_Simple_types@UKinematics@LinearSegmentKinematicsDatagram@@@std@@@std@@QEAA@XZ 0000000140018000 f i linearsegmentkinematicsdatagram.obj
 0001:00017020       ??1?$vector@UKinematics@LinearSegmentKinematicsDatagram@@V?$allocator@UKinematics@LinearSegmentKinematicsDatagram@@@std@@@std@@QEAA@XZ 0000000140018020 f i linearsegmentkinematicsdatagram.obj
 0001:00017050       ??8?$_Vector_const_iterator@V?$_Vector_val@U?$_Simple_types@UKinematics@LinearSegmentKinematicsDatagram@@@std@@@std@@@std@@QEBA_NAEBV01@@Z 0000000140018050 f i linearsegmentkinematicsdatagram.obj
 0001:000170a0       ??9?$_Vector_const_iterator@V?$_Vector_val@U?$_Simple_types@UKinematics@LinearSegmentKinematicsDatagram@@@std@@@std@@@std@@QEBA_NAEBV01@@Z 00000001400180a0 f i linearsegmentkinematicsdatagram.obj
 0001:000170e0       ??D?$_Vector_const_iterator@V?$_Vector_val@U?$_Simple_types@UKinematics@LinearSegmentKinematicsDatagram@@@std@@@std@@@std@@QEBAAEBUKinematics@LinearSegmentKinematicsDatagram@@XZ 00000001400180e0 f i linearsegmentkinematicsdatagram.obj
 0001:000171e0       ??E?$_Vector_const_iterator@V?$_Vector_val@U?$_Simple_types@UKinematics@LinearSegmentKinematicsDatagram@@@std@@@std@@@std@@QEAAAEAV01@XZ 00000001400181e0 f i linearsegmentkinematicsdatagram.obj
 0001:000172e0       ??_ELinearSegmentKinematicsDatagram@@UEAAPEAXI@Z 00000001400182e0 f i linearsegmentkinematicsdatagram.obj
 0001:000172e0       ??_GLinearSegmentKinematicsDatagram@@UEAAPEAXI@Z 00000001400182e0 f i linearsegmentkinematicsdatagram.obj
 0001:00017320       ?_Alloc_proxy@?$_Vector_alloc@U?$_Vec_base_types@UKinematics@LinearSegmentKinematicsDatagram@@V?$allocator@UKinematics@LinearSegmentKinematicsDatagram@@@std@@@std@@@std@@QEAAXXZ 0000000140018320 f i linearsegmentkinematicsdatagram.obj
 0001:000173d0       ?_Compat@?$_Vector_const_iterator@V?$_Vector_val@U?$_Simple_types@UKinematics@LinearSegmentKinematicsDatagram@@@std@@@std@@@std@@QEBAXAEBV12@@Z 00000001400183d0 f i linearsegmentkinematicsdatagram.obj
 0001:000174a0       ?_Destroy@?$vector@UKinematics@LinearSegmentKinematicsDatagram@@V?$allocator@UKinematics@LinearSegmentKinematicsDatagram@@@std@@@std@@IEAAXPEAUKinematics@LinearSegmentKinematicsDatagram@@0@Z 00000001400184a0 f i linearsegmentkinematicsdatagram.obj
 0001:000174e0       ?_Free_proxy@?$_Vector_alloc@U?$_Vec_base_types@UKinematics@LinearSegmentKinematicsDatagram@@V?$allocator@UKinematics@LinearSegmentKinematicsDatagram@@@std@@@std@@@std@@QEAAXXZ 00000001400184e0 f i linearsegmentkinematicsdatagram.obj
 0001:00017570       ?_Get_data@?$_Vector_alloc@U?$_Vec_base_types@UKinematics@LinearSegmentKinematicsDatagram@@V?$allocator@UKinematics@LinearSegmentKinematicsDatagram@@@std@@@std@@@std@@QEAAAEAV?$_Vector_val@U?$_Simple_types@UKinematics@LinearSegmentKinematicsDatagram@@@std@@@2@XZ 0000000140018570 f i linearsegmentkinematicsdatagram.obj
 0001:00017590       ?_Get_data@?$_Vector_alloc@U?$_Vec_base_types@UKinematics@LinearSegmentKinematicsDatagram@@V?$allocator@UKinematics@LinearSegmentKinematicsDatagram@@@std@@@std@@@std@@QEBAAEBV?$_Vector_val@U?$_Simple_types@UKinematics@LinearSegmentKinematicsDatagram@@@std@@@2@XZ 0000000140018590 f i linearsegmentkinematicsdatagram.obj
 0001:000175b0       ?_Get_first@?$_Compressed_pair@U?$_Wrap_alloc@V?$allocator@UKinematics@LinearSegmentKinematicsDatagram@@@std@@@std@@V?$_Vector_val@U?$_Simple_types@UKinematics@LinearSegmentKinematicsDatagram@@@std@@@2@$00@std@@QEAAAEAU?$_Wrap_alloc@V?$allocator@UKinematics@LinearSegmentKinematicsDatagram@@@std@@@2@XZ 00000001400185b0 f i linearsegmentkinematicsdatagram.obj
 0001:000175c0       ?_Get_first@?$_Compressed_pair@U?$_Wrap_alloc@V?$allocator@UKinematics@LinearSegmentKinematicsDatagram@@@std@@@std@@V?$_Vector_val@U?$_Simple_types@UKinematics@LinearSegmentKinematicsDatagram@@@std@@@2@$00@std@@QEBAAEBU?$_Wrap_alloc@V?$allocator@UKinematics@LinearSegmentKinematicsDatagram@@@std@@@2@XZ 00000001400185c0 f i linearsegmentkinematicsdatagram.obj
 0001:000175d0       ?_Get_second@?$_Compressed_pair@U?$_Wrap_alloc@V?$allocator@UKinematics@LinearSegmentKinematicsDatagram@@@std@@@std@@V?$_Vector_val@U?$_Simple_types@UKinematics@LinearSegmentKinematicsDatagram@@@std@@@2@$00@std@@QEAAAEAV?$_Vector_val@U?$_Simple_types@UKinematics@LinearSegmentKinematicsDatagram@@@std@@@2@XZ 00000001400185d0 f i linearsegmentkinematicsdatagram.obj
 0001:000175e0       ?_Get_second@?$_Compressed_pair@U?$_Wrap_alloc@V?$allocator@UKinematics@LinearSegmentKinematicsDatagram@@@std@@@std@@V?$_Vector_val@U?$_Simple_types@UKinematics@LinearSegmentKinematicsDatagram@@@std@@@2@$00@std@@QEBAAEBV?$_Vector_val@U?$_Simple_types@UKinematics@LinearSegmentKinematicsDatagram@@@std@@@2@XZ 00000001400185e0 f i linearsegmentkinematicsdatagram.obj
 0001:000175f0       ?_Getal@?$_Vector_alloc@U?$_Vec_base_types@UKinematics@LinearSegmentKinematicsDatagram@@V?$allocator@UKinematics@LinearSegmentKinematicsDatagram@@@std@@@std@@@std@@QEAAAEAU?$_Wrap_alloc@V?$allocator@UKinematics@LinearSegmentKinematicsDatagram@@@std@@@2@XZ 00000001400185f0 f i linearsegmentkinematicsdatagram.obj
 0001:00017610       ?_Getal@?$_Vector_alloc@U?$_Vec_base_types@UKinematics@LinearSegmentKinematicsDatagram@@V?$allocator@UKinematics@LinearSegmentKinematicsDatagram@@@std@@@std@@@std@@QEBAAEBU?$_Wrap_alloc@V?$allocator@UKinematics@LinearSegmentKinematicsDatagram@@@std@@@2@XZ 0000000140018610 f i linearsegmentkinematicsdatagram.obj
 0001:00017630       ?_Getpfirst@?$_Vector_alloc@U?$_Vec_base_types@UKinematics@LinearSegmentKinematicsDatagram@@V?$allocator@UKinematics@LinearSegmentKinematicsDatagram@@@std@@@std@@@std@@QEBAPEAPEAU_Iterator_base12@2@XZ 0000000140018630 f i linearsegmentkinematicsdatagram.obj
 0001:00017650       ?_Grow_to@?$vector@UKinematics@LinearSegmentKinematicsDatagram@@V?$allocator@UKinematics@LinearSegmentKinematicsDatagram@@@std@@@std@@IEBA_K_K@Z 0000000140018650 f i linearsegmentkinematicsdatagram.obj
 0001:00017700       ?_Inside@?$vector@UKinematics@LinearSegmentKinematicsDatagram@@V?$allocator@UKinematics@LinearSegmentKinematicsDatagram@@@std@@@std@@IEBA_NPEBUKinematics@LinearSegmentKinematicsDatagram@@@Z 0000000140018700 f i linearsegmentkinematicsdatagram.obj
 0001:00017760       ?_Myend@?$_Vector_alloc@U?$_Vec_base_types@UKinematics@LinearSegmentKinematicsDatagram@@V?$allocator@UKinematics@LinearSegmentKinematicsDatagram@@@std@@@std@@@std@@QEAAAEAPEAUKinematics@LinearSegmentKinematicsDatagram@@XZ 0000000140018760 f i linearsegmentkinematicsdatagram.obj
 0001:00017780       ?_Myend@?$_Vector_alloc@U?$_Vec_base_types@UKinematics@LinearSegmentKinematicsDatagram@@V?$allocator@UKinematics@LinearSegmentKinematicsDatagram@@@std@@@std@@@std@@QEBAAEBQEAUKinematics@LinearSegmentKinematicsDatagram@@XZ 0000000140018780 f i linearsegmentkinematicsdatagram.obj
 0001:000177a0       ?_Myfirst@?$_Vector_alloc@U?$_Vec_base_types@UKinematics@LinearSegmentKinematicsDatagram@@V?$allocator@UKinematics@LinearSegmentKinematicsDatagram@@@std@@@std@@@std@@QEAAAEAPEAUKinematics@LinearSegmentKinematicsDatagram@@XZ 00000001400187a0 f i linearsegmentkinematicsdatagram.obj
 0001:000177c0       ?_Myfirst@?$_Vector_alloc@U?$_Vec_base_types@UKinematics@LinearSegmentKinematicsDatagram@@V?$allocator@UKinematics@LinearSegmentKinematicsDatagram@@@std@@@std@@@std@@QEBAAEBQEAUKinematics@LinearSegmentKinematicsDatagram@@XZ 00000001400187c0 f i linearsegmentkinematicsdatagram.obj
 0001:000177e0       ?_Mylast@?$_Vector_alloc@U?$_Vec_base_types@UKinematics@LinearSegmentKinematicsDatagram@@V?$allocator@UKinematics@LinearSegmentKinematicsDatagram@@@std@@@std@@@std@@QEAAAEAPEAUKinematics@LinearSegmentKinematicsDatagram@@XZ 00000001400187e0 f i linearsegmentkinematicsdatagram.obj
 0001:00017800       ?_Mylast@?$_Vector_alloc@U?$_Vec_base_types@UKinematics@LinearSegmentKinematicsDatagram@@V?$allocator@UKinematics@LinearSegmentKinematicsDatagram@@@std@@@std@@@std@@QEBAAEBQEAUKinematics@LinearSegmentKinematicsDatagram@@XZ 0000000140018800 f i linearsegmentkinematicsdatagram.obj
 0001:00017820       ?_Myproxy@?$_Vector_alloc@U?$_Vec_base_types@UKinematics@LinearSegmentKinematicsDatagram@@V?$allocator@UKinematics@LinearSegmentKinematicsDatagram@@@std@@@std@@@std@@QEAAAEAPEAU_Container_proxy@2@XZ 0000000140018820 f i linearsegmentkinematicsdatagram.obj
 0001:00017840       ?_Orphan_all@?$_Vector_alloc@U?$_Vec_base_types@UKinematics@LinearSegmentKinematicsDatagram@@V?$allocator@UKinematics@LinearSegmentKinematicsDatagram@@@std@@@std@@@std@@QEAAXXZ 0000000140018840 f i linearsegmentkinematicsdatagram.obj
 0001:00017860       ?_Orphan_range@?$vector@UKinematics@LinearSegmentKinematicsDatagram@@V?$allocator@UKinematics@LinearSegmentKinematicsDatagram@@@std@@@std@@IEBAXPEAUKinematics@LinearSegmentKinematicsDatagram@@0@Z 0000000140018860 f i linearsegmentkinematicsdatagram.obj
 0001:00017920       ?_Reallocate@?$vector@UKinematics@LinearSegmentKinematicsDatagram@@V?$allocator@UKinematics@LinearSegmentKinematicsDatagram@@@std@@@std@@IEAAX_K@Z 0000000140018920 f i linearsegmentkinematicsdatagram.obj
 0001:00017af0       ?_Reserve@?$vector@UKinematics@LinearSegmentKinematicsDatagram@@V?$allocator@UKinematics@LinearSegmentKinematicsDatagram@@@std@@@std@@IEAAX_K@Z 0000000140018af0 f i linearsegmentkinematicsdatagram.obj
 0001:00017b80       ?_Tidy@?$vector@UKinematics@LinearSegmentKinematicsDatagram@@V?$allocator@UKinematics@LinearSegmentKinematicsDatagram@@@std@@@std@@IEAAXXZ 0000000140018b80 f i linearsegmentkinematicsdatagram.obj
 0001:00017c80       ?_Unused_capacity@?$vector@UKinematics@LinearSegmentKinematicsDatagram@@V?$allocator@UKinematics@LinearSegmentKinematicsDatagram@@@std@@@std@@QEBA_KXZ 0000000140018c80 f i linearsegmentkinematicsdatagram.obj
 0001:00017cd0       ?_Xlen@?$vector@UKinematics@LinearSegmentKinematicsDatagram@@V?$allocator@UKinematics@LinearSegmentKinematicsDatagram@@@std@@@std@@IEBAXXZ 0000000140018cd0 f i linearsegmentkinematicsdatagram.obj
 0001:00017cf0       ?allocate@?$_Wrap_alloc@V?$allocator@UKinematics@LinearSegmentKinematicsDatagram@@@std@@@std@@QEAAPEAUKinematics@LinearSegmentKinematicsDatagram@@_K@Z 0000000140018cf0 f i linearsegmentkinematicsdatagram.obj
 0001:00017d20       ?allocate@?$allocator@UKinematics@LinearSegmentKinematicsDatagram@@@std@@QEAAPEAUKinematics@LinearSegmentKinematicsDatagram@@_K@Z 0000000140018d20 f i linearsegmentkinematicsdatagram.obj
 0001:00017d50       ?begin@?$vector@UKinematics@LinearSegmentKinematicsDatagram@@V?$allocator@UKinematics@LinearSegmentKinematicsDatagram@@@std@@@std@@QEBA?AV?$_Vector_const_iterator@V?$_Vector_val@U?$_Simple_types@UKinematics@LinearSegmentKinematicsDatagram@@@std@@@std@@@2@XZ 0000000140018d50 f i linearsegmentkinematicsdatagram.obj
 0001:00017db0       ?capacity@?$vector@UKinematics@LinearSegmentKinematicsDatagram@@V?$allocator@UKinematics@LinearSegmentKinematicsDatagram@@@std@@@std@@QEBA_KXZ 0000000140018db0 f i linearsegmentkinematicsdatagram.obj
 0001:00017e00       ?deallocate@?$_Wrap_alloc@V?$allocator@UKinematics@LinearSegmentKinematicsDatagram@@@std@@@std@@QEAAXPEAUKinematics@LinearSegmentKinematicsDatagram@@_K@Z 0000000140018e00 f i linearsegmentkinematicsdatagram.obj
 0001:00017e30       ?deallocate@?$allocator@UKinematics@LinearSegmentKinematicsDatagram@@@std@@QEAAXPEAUKinematics@LinearSegmentKinematicsDatagram@@_K@Z 0000000140018e30 f i linearsegmentkinematicsdatagram.obj
 0001:00017e60       ?end@?$vector@UKinematics@LinearSegmentKinematicsDatagram@@V?$allocator@UKinematics@LinearSegmentKinematicsDatagram@@@std@@@std@@QEBA?AV?$_Vector_const_iterator@V?$_Vector_val@U?$_Simple_types@UKinematics@LinearSegmentKinematicsDatagram@@@std@@@std@@@2@XZ 0000000140018e60 f i linearsegmentkinematicsdatagram.obj
 0001:00017ec0       ?max_size@?$_Wrap_alloc@V?$allocator@UKinematics@LinearSegmentKinematicsDatagram@@@std@@@std@@QEBA_KU_Nil@2@@Z 0000000140018ec0 f i linearsegmentkinematicsdatagram.obj
 0001:00017ee0       ?max_size@?$allocator@UKinematics@LinearSegmentKinematicsDatagram@@@std@@QEBA_KXZ 0000000140018ee0 f i linearsegmentkinematicsdatagram.obj
 0001:00017ef0       ?max_size@?$allocator_traits@V?$allocator@UKinematics@LinearSegmentKinematicsDatagram@@@std@@@std@@SA_KAEBV?$allocator@UKinematics@LinearSegmentKinematicsDatagram@@@2@@Z 0000000140018ef0 f i linearsegmentkinematicsdatagram.obj
 0001:00017f10       ?max_size@?$vector@UKinematics@LinearSegmentKinematicsDatagram@@V?$allocator@UKinematics@LinearSegmentKinematicsDatagram@@@std@@@std@@QEBA_KXZ 0000000140018f10 f i linearsegmentkinematicsdatagram.obj
 0001:00017f40       ?push_back@?$vector@UKinematics@LinearSegmentKinematicsDatagram@@V?$allocator@UKinematics@LinearSegmentKinematicsDatagram@@@std@@@std@@QEAAXAEBUKinematics@LinearSegmentKinematicsDatagram@@@Z 0000000140018f40 f i linearsegmentkinematicsdatagram.obj
 0001:000181a0       ?size@?$vector@UKinematics@LinearSegmentKinematicsDatagram@@V?$allocator@UKinematics@LinearSegmentKinematicsDatagram@@@std@@@std@@QEBA_KXZ 00000001400191a0 f i linearsegmentkinematicsdatagram.obj
 0001:000181f0       main                       00000001400191f0 f   main.obj
 0001:000182d0       ??0?$XsArrayImpl@D$1?g_xsStringDescriptor@@3UXsArrayDescriptor@@BUXsString@@@@QEAA@_KPEBD@Z 00000001400192d0 f i main.obj
 0001:00018310       ??0XsArray@@QEAA@PEBUXsArrayDescriptor@@_KPEBX@Z 0000000140019310 f i main.obj
 0001:00018390       ??0XsString@@QEAA@AEBV?$basic_string@DU?$char_traits@D@std@@V?$allocator@D@2@@std@@@Z 0000000140019390 f i main.obj
 0001:00018400       ?empty@?$basic_string@DU?$char_traits@D@std@@V?$allocator@D@2@@std@@QEBA_NXZ 0000000140019400 f i main.obj
 0001:00018440       ?msleep@XsTime@@YAXI@Z     0000000140019440 f i main.obj
 0001:00018460       ??0MetaDatagram@@QEAA@XZ   0000000140019460 f   metadatagram.obj
 0001:000184d0       ??1MetaDatagram@@UEAA@XZ   00000001400194d0 f   metadatagram.obj
 0001:00018510       ?printData@MetaDatagram@@UEBAXXZ 0000000140019510 f   metadatagram.obj
 0001:000188a0       ?deserializeData@MetaDatagram@@MEAAXAEAVStreamer@@@Z 00000001400198a0 f   metadatagram.obj
 0001:00018c50       ?split@MetaDatagram@@AEAA?AV?$vector@V?$basic_string@DU?$char_traits@D@std@@V?$allocator@D@2@@std@@V?$allocator@V?$basic_string@DU?$char_traits@D@std@@V?$allocator@D@2@@std@@@2@@std@@V?$basic_string@DU?$char_traits@D@std@@V?$allocator@D@2@@3@D@Z 0000000140019c50 f   metadatagram.obj
 0001:00018da0       ?join@MetaDatagram@@AEAA?AV?$basic_string@DU?$char_traits@D@std@@V?$allocator@D@2@@std@@V?$vector@V?$basic_string@DU?$char_traits@D@std@@V?$allocator@D@2@@std@@V?$allocator@V?$basic_string@DU?$char_traits@D@std@@V?$allocator@D@2@@std@@@2@@3@PEAD@Z 0000000140019da0 f   metadatagram.obj
 0001:00018e90       ?itemData@MetaDatagram@@AEBA?AV?$basic_string@DU?$char_traits@D@std@@V?$allocator@D@2@@std@@AEBV23@@Z 0000000140019e90 f   metadatagram.obj
 0001:00018f60       ?hasItem@MetaDatagram@@AEBA_NAEBV?$basic_string@DU?$char_traits@D@std@@V?$allocator@D@2@@std@@@Z 0000000140019f60 f   metadatagram.obj
 0001:00019020       ?itemCount@MetaDatagram@@AEBAHXZ 000000014001a020 f   metadatagram.obj
 0001:00019040       ??$?0$$V@?$_Compressed_pair@U?$_Wrap_alloc@V?$allocator@U?$_Tree_node@U?$pair@$$CBV?$basic_string@DU?$char_traits@D@std@@V?$allocator@D@2@@std@@V12@@std@@PEAX@std@@@std@@@std@@V?$_Tree_val@U?$_Tree_simple_types@U?$pair@$$CBV?$basic_string@DU?$char_traits@D@std@@V?$allocator@D@2@@std@@V12@@std@@@std@@@2@$00@std@@QEAA@U_Zero_then_variadic_args_t@1@@Z 000000014001a040 f i metadatagram.obj
 0001:00019070       ??$?0$$V@?$_Compressed_pair@U?$_Wrap_alloc@V?$allocator@V?$basic_string@DU?$char_traits@D@std@@V?$allocator@D@2@@std@@@std@@@std@@V?$_Vector_val@U?$_Simple_types@V?$basic_string@DU?$char_traits@D@std@@V?$allocator@D@2@@std@@@std@@@2@$00@std@@QEAA@U_Zero_then_variadic_args_t@1@@Z 000000014001a070 f i metadatagram.obj
 0001:000190a0       ??$?0AEAU?$_Wrap_alloc@V?$allocator@U?$_Tree_node@U?$pair@$$CBV?$basic_string@DU?$char_traits@D@std@@V?$allocator@D@2@@std@@V12@@std@@PEAX@std@@@std@@@std@@@?$_Wrap_alloc@V?$allocator@U_Container_proxy@std@@@std@@@std@@QEAA@AEAU?$_Wrap_alloc@V?$allocator@U?$_Tree_node@U?$pair@$$CBV?$basic_string@DU?$char_traits@D@std@@V?$allocator@D@2@@std@@V12@@std@@PEAX@std@@@std@@@1@@Z 000000014001a0a0 f i metadatagram.obj
 0001:000190d0       ??$?0AEAU?$_Wrap_alloc@V?$allocator@V?$basic_string@DU?$char_traits@D@std@@V?$allocator@D@2@@std@@@std@@@std@@@?$_Wrap_alloc@V?$allocator@U_Container_proxy@std@@@std@@@std@@QEAA@AEAU?$_Wrap_alloc@V?$allocator@V?$basic_string@DU?$char_traits@D@std@@V?$allocator@D@2@@std@@@std@@@1@@Z 000000014001a0d0 f i metadatagram.obj
 0001:00019100       ??$?0AEAV?$_Tree_iterator@V?$_Tree_val@U?$_Tree_simple_types@U?$pair@$$CBV?$basic_string@DU?$char_traits@D@std@@V?$allocator@D@2@@std@@V12@@std@@@std@@@std@@@std@@_NX$0A@@?$pair@V?$_Tree_iterator@V?$_Tree_val@U?$_Tree_simple_types@U?$pair@$$CBV?$basic_string@DU?$char_traits@D@std@@V?$allocator@D@2@@std@@V12@@std@@@std@@@std@@@std@@_N@std@@QEAA@AEAV?$_Tree_iterator@V?$_Tree_val@U?$_Tree_simple_types@U?$pair@$$CBV?$basic_string@DU?$char_traits@D@std@@V?$allocator@D@2@@std@@V12@@std@@@std@@@std@@@1@$$QEA_N@Z 000000014001a100 f i metadatagram.obj
 0001:00019150       ??$?0AEAV?$basic_string@DU?$char_traits@D@std@@V?$allocator@D@2@@std@@AEAV01@X$0A@@?$pair@V?$basic_string@DU?$char_traits@D@std@@V?$allocator@D@2@@std@@V12@@std@@QEAA@AEAV?$basic_string@DU?$char_traits@D@std@@V?$allocator@D@2@@1@0@Z 000000014001a150 f i metadatagram.obj
 0001:000191b0       ??$?0AEBU?$less@V?$basic_string@DU?$char_traits@D@std@@V?$allocator@D@2@@std@@@std@@U_Zero_then_variadic_args_t@1@@?$_Compressed_pair@U?$less@V?$basic_string@DU?$char_traits@D@std@@V?$allocator@D@2@@std@@@std@@V?$_Compressed_pair@U?$_Wrap_alloc@V?$allocator@U?$_Tree_node@U?$pair@$$CBV?$basic_string@DU?$char_traits@D@std@@V?$allocator@D@2@@std@@V12@@std@@PEAX@std@@@std@@@std@@V?$_Tree_val@U?$_Tree_simple_types@U?$pair@$$CBV?$basic_string@DU?$char_traits@D@std@@V?$allocator@D@2@@std@@V12@@std@@@std@@@2@$00@2@$00@std@@QEAA@U_One_then_variadic_args_t@1@AEBU?$less@V?$basic_string@DU?$char_traits@D@std@@V?$allocator@D@2@@std@@@1@$$QEAU_Zero_then_variadic_args_t@1@@Z 000000014001a1b0 f i metadatagram.obj
 0001:00019200       ??$?0PEADX@?$basic_string@DU?$char_traits@D@std@@V?$allocator@D@2@@std@@QEAA@PEAD0AEBV?$allocator@D@1@@Z 000000014001a200 f i metadatagram.obj
 0001:000192b0       ??$?0U?$_Tree_node@U?$pair@$$CBV?$basic_string@DU?$char_traits@D@std@@V?$allocator@D@2@@std@@V12@@std@@PEAX@std@@@?$allocator@U_Container_proxy@std@@@std@@QEAA@AEBV?$allocator@U?$_Tree_node@U?$pair@$$CBV?$basic_string@DU?$char_traits@D@std@@V?$allocator@D@2@@std@@V12@@std@@PEAX@std@@@1@@Z 000000014001a2b0 f i metadatagram.obj
 0001:000192c0       ??$?0U?$_Wrap_alloc@V?$allocator@V?$basic_string@DU?$char_traits@D@std@@V?$allocator@D@2@@std@@@std@@@std@@$$V@?$_Compressed_pair@U?$_Wrap_alloc@V?$allocator@V?$basic_string@DU?$char_traits@D@std@@V?$allocator@D@2@@std@@@std@@@std@@V?$_Vector_val@U?$_Simple_types@V?$basic_string@DU?$char_traits@D@std@@V?$allocator@D@2@@std@@@std@@@2@$00@std@@QEAA@U_One_then_variadic_args_t@1@$$QEAU?$_Wrap_alloc@V?$allocator@V?$basic_string@DU?$char_traits@D@std@@V?$allocator@D@2@@std@@@std@@@1@@Z 000000014001a2c0 f i metadatagram.obj
 0001:00019300       ??$?0U?$_Wrap_alloc@V?$allocator@V?$basic_string@DU?$char_traits@D@std@@V?$allocator@D@2@@std@@@std@@@std@@X@?$_Vector_alloc@U?$_Vec_base_types@V?$basic_string@DU?$char_traits@D@std@@V?$allocator@D@2@@std@@V?$allocator@V?$basic_string@DU?$char_traits@D@std@@V?$allocator@D@2@@std@@@2@@std@@@std@@QEAA@$$QEAU?$_Wrap_alloc@V?$allocator@V?$basic_string@DU?$char_traits@D@std@@V?$allocator@D@2@@std@@@std@@@1@@Z 000000014001a300 f i metadatagram.obj
 0001:00019350       ??$?0U?$integral_constant@_N$00@std@@@_Any_tag@std@@QEAA@$$QEAU?$integral_constant@_N$00@1@@Z 000000014001a350 f i metadatagram.obj
 0001:00019360       ??$?0V?$_Tree_iterator@V?$_Tree_val@U?$_Tree_simple_types@U?$pair@$$CBV?$basic_string@DU?$char_traits@D@std@@V?$allocator@D@2@@std@@V12@@std@@@std@@@std@@@std@@_NX$0A@@?$pair@V?$_Tree_iterator@V?$_Tree_val@U?$_Tree_simple_types@U?$pair@$$CBV?$basic_string@DU?$char_traits@D@std@@V?$allocator@D@2@@std@@V12@@std@@@std@@@std@@@std@@_N@std@@QEAA@$$QEAV?$_Tree_iterator@V?$_Tree_val@U?$_Tree_simple_types@U?$pair@$$CBV?$basic_string@DU?$char_traits@D@std@@V?$allocator@D@2@@std@@V12@@std@@@std@@@std@@@1@$$QEA_N@Z 000000014001a360 f i metadatagram.obj
 0001:000193b0       ??$?0V?$allocator@V?$basic_string@DU?$char_traits@D@std@@V?$allocator@D@2@@std@@@std@@@?$_Wrap_alloc@V?$allocator@V?$basic_string@DU?$char_traits@D@std@@V?$allocator@D@2@@std@@@std@@@std@@QEAA@$$QEAV?$allocator@V?$basic_string@DU?$char_traits@D@std@@V?$allocator@D@2@@std@@@1@@Z 000000014001a3b0 f i metadatagram.obj
 0001:000193e0       ??$?0V?$basic_string@DU?$char_traits@D@std@@V?$allocator@D@2@@std@@@?$allocator@U_Container_proxy@std@@@std@@QEAA@AEBV?$allocator@V?$basic_string@DU?$char_traits@D@std@@V?$allocator@D@2@@std@@@1@@Z 000000014001a3e0 f i metadatagram.obj
 0001:000193f0       ??$?0V?$basic_string@DU?$char_traits@D@std@@V?$allocator@D@2@@std@@V01@X$0A@@?$pair@$$CBV?$basic_string@DU?$char_traits@D@std@@V?$allocator@D@2@@std@@V12@@std@@QEAA@$$QEAU?$pair@V?$basic_string@DU?$char_traits@D@std@@V?$allocator@D@2@@std@@V12@@1@@Z 000000014001a3f0 f i metadatagram.obj
 0001:00019450       ??$?6DU?$char_traits@D@std@@V?$allocator@D@1@@std@@YAAEAV?$basic_ostream@DU?$char_traits@D@std@@@0@AEAV10@AEBV?$basic_string@DU?$char_traits@D@std@@V?$allocator@D@2@@0@@Z 000000014001a450 f i metadatagram.obj
 0001:00019810       ??$?6U?$char_traits@D@std@@@std@@YAAEAV?$basic_ostream@DU?$char_traits@D@std@@@0@AEAV10@PEBD@Z 000000014001a810 f i metadatagram.obj
 0001:00019bd0       ??$?8U?$_Tree_node@U?$pair@$$CBV?$basic_string@DU?$char_traits@D@std@@V?$allocator@D@2@@std@@V12@@std@@PEAX@std@@U01@@std@@YA_NAEBV?$allocator@U?$_Tree_node@U?$pair@$$CBV?$basic_string@DU?$char_traits@D@std@@V?$allocator@D@2@@std@@V12@@std@@PEAX@std@@@0@0@Z 000000014001abd0 f i metadatagram.obj
 0001:00019be0       ??$?8V?$allocator@U?$_Tree_node@U?$pair@$$CBV?$basic_string@DU?$char_traits@D@std@@V?$allocator@D@2@@std@@V12@@std@@PEAX@std@@@std@@V01@@std@@YA_NAEBU?$_Wrap_alloc@V?$allocator@U?$_Tree_node@U?$pair@$$CBV?$basic_string@DU?$char_traits@D@std@@V?$allocator@D@2@@std@@V12@@std@@PEAX@std@@@std@@@0@0@Z 000000014001abe0 f i metadatagram.obj
 0001:00019c10       ??$?9V?$allocator@U?$_Tree_node@U?$pair@$$CBV?$basic_string@DU?$char_traits@D@std@@V?$allocator@D@2@@std@@V12@@std@@PEAX@std@@@std@@V01@@std@@YA_NAEBU?$_Wrap_alloc@V?$allocator@U?$_Tree_node@U?$pair@$$CBV?$basic_string@DU?$char_traits@D@std@@V?$allocator@D@2@@std@@V12@@std@@PEAX@std@@@std@@@0@0@Z 000000014001ac10 f i metadatagram.obj
 0001:00019c50       ??$?MDU?$char_traits@D@std@@V?$allocator@D@1@@std@@YA_NAEBV?$basic_string@DU?$char_traits@D@std@@V?$allocator@D@2@@0@0@Z 000000014001ac50 f i metadatagram.obj
 0001:00019c90       ??$_Buynode@AEAU?$pair@$$CBV?$basic_string@DU?$char_traits@D@std@@V?$allocator@D@2@@std@@V12@@std@@@?$_Tree_comp_alloc@V?$_Tmap_traits@V?$basic_string@DU?$char_traits@D@std@@V?$allocator@D@2@@std@@V12@U?$less@V?$basic_string@DU?$char_traits@D@std@@V?$allocator@D@2@@std@@@2@V?$allocator@U?$pair@$$CBV?$basic_string@DU?$char_traits@D@std@@V?$allocator@D@2@@std@@V12@@std@@@2@$0A@@std@@@std@@QEAAPEAU?$_Tree_node@U?$pair@$$CBV?$basic_string@DU?$char_traits@D@std@@V?$allocator@D@2@@std@@V12@@std@@PEAX@1@AEAU?$pair@$$CBV?$basic_string@DU?$char_traits@D@std@@V?$allocator@D@2@@std@@V12@@1@@Z 000000014001ac90 f i metadatagram.obj
 0001:00019d30       ??$_Buynode@U?$pair@V?$basic_string@DU?$char_traits@D@std@@V?$allocator@D@2@@std@@V12@@std@@@?$_Tree_comp_alloc@V?$_Tmap_traits@V?$basic_string@DU?$char_traits@D@std@@V?$allocator@D@2@@std@@V12@U?$less@V?$basic_string@DU?$char_traits@D@std@@V?$allocator@D@2@@std@@@2@V?$allocator@U?$pair@$$CBV?$basic_string@DU?$char_traits@D@std@@V?$allocator@D@2@@std@@V12@@std@@@2@$0A@@std@@@std@@QEAAPEAU?$_Tree_node@U?$pair@$$CBV?$basic_string@DU?$char_traits@D@std@@V?$allocator@D@2@@std@@V12@@std@@PEAX@1@$$QEAU?$pair@V?$basic_string@DU?$char_traits@D@std@@V?$allocator@D@2@@std@@V12@@1@@Z 000000014001ad30 f i metadatagram.obj
 0001:00019dd0       ??$_Buynode_if_nil@AEAU?$pair@$$CBV?$basic_string@DU?$char_traits@D@std@@V?$allocator@D@2@@std@@V12@@std@@@?$_Tree@V?$_Tmap_traits@V?$basic_string@DU?$char_traits@D@std@@V?$allocator@D@2@@std@@V12@U?$less@V?$basic_string@DU?$char_traits@D@std@@V?$allocator@D@2@@std@@@2@V?$allocator@U?$pair@$$CBV?$basic_string@DU?$char_traits@D@std@@V?$allocator@D@2@@std@@V12@@std@@@2@$0A@@std@@@std@@IEAAPEAU?$_Tree_node@U?$pair@$$CBV?$basic_string@DU?$char_traits@D@std@@V?$allocator@D@2@@std@@V12@@std@@PEAX@1@PEAU21@AEAU?$pair@$$CBV?$basic_string@DU?$char_traits@D@std@@V?$allocator@D@2@@std@@V12@@1@@Z 000000014001add0 f i metadatagram.obj
 0001:00019df0       ??$_Copy@U_Copy_tag@?$_Tree@V?$_Tmap_traits@V?$basic_string@DU?$char_traits@D@std@@V?$allocator@D@2@@std@@V12@U?$less@V?$basic_string@DU?$char_traits@D@std@@V?$allocator@D@2@@std@@@2@V?$allocator@U?$pair@$$CBV?$basic_string@DU?$char_traits@D@std@@V?$allocator@D@2@@std@@V12@@std@@@2@$0A@@std@@@std@@@?$_Tree@V?$_Tmap_traits@V?$basic_string@DU?$char_traits@D@std@@V?$allocator@D@2@@std@@V12@U?$less@V?$basic_string@DU?$char_traits@D@std@@V?$allocator@D@2@@std@@@2@V?$allocator@U?$pair@$$CBV?$basic_string@DU?$char_traits@D@std@@V?$allocator@D@2@@std@@V12@@std@@@2@$0A@@std@@@std@@IEAAXAEBV01@U_Copy_tag@01@@Z 000000014001adf0 f i metadatagram.obj
 0001:00019f30       ??$_Copy_nodes@U_Copy_tag@?$_Tree@V?$_Tmap_traits@V?$basic_string@DU?$char_traits@D@std@@V?$allocator@D@2@@std@@V12@U?$less@V?$basic_string@DU?$char_traits@D@std@@V?$allocator@D@2@@std@@@2@V?$allocator@U?$pair@$$CBV?$basic_string@DU?$char_traits@D@std@@V?$allocator@D@2@@std@@V12@@std@@@2@$0A@@std@@@std@@@?$_Tree@V?$_Tmap_traits@V?$basic_string@DU?$char_traits@D@std@@V?$allocator@D@2@@std@@V12@U?$less@V?$basic_string@DU?$char_traits@D@std@@V?$allocator@D@2@@std@@@2@V?$allocator@U?$pair@$$CBV?$basic_string@DU?$char_traits@D@std@@V?$allocator@D@2@@std@@V12@@std@@@2@$0A@@std@@@std@@IEAAPEAU?$_Tree_node@U?$pair@$$CBV?$basic_string@DU?$char_traits@D@std@@V?$allocator@D@2@@std@@V12@@std@@PEAX@1@PEAU21@0U_Copy_tag@01@@Z 000000014001af30 f i metadatagram.obj
 0001:0001a0b0       ??$_Copy_or_move@U?$pair@$$CBV?$basic_string@DU?$char_traits@D@std@@V?$allocator@D@2@@std@@V12@@std@@U?$integral_constant@_N$0A@@2@@?$_Tree@V?$_Tmap_traits@V?$basic_string@DU?$char_traits@D@std@@V?$allocator@D@2@@std@@V12@U?$less@V?$basic_string@DU?$char_traits@D@std@@V?$allocator@D@2@@std@@@2@V?$allocator@U?$pair@$$CBV?$basic_string@DU?$char_traits@D@std@@V?$allocator@D@2@@std@@V12@@std@@@2@$0A@@std@@@std@@IEAAPEAU?$_Tree_node@U?$pair@$$CBV?$basic_string@DU?$char_traits@D@std@@V?$allocator@D@2@@std@@V12@@std@@PEAX@1@AEAU?$pair@$$CBV?$basic_string@DU?$char_traits@D@std@@V?$allocator@D@2@@std@@V12@@1@U_Copy_tag@01@U?$integral_constant@_N$0A@@1@@Z 000000014001b0b0 f i metadatagram.obj
 0001:0001a0e0       ??$_Debug_lt_pred@AEAU?$less@V?$basic_string@DU?$char_traits@D@std@@V?$allocator@D@2@@std@@@std@@AEBV?$basic_string@DU?$char_traits@D@std@@V?$allocator@D@2@@2@AEBV32@@std@@YA_NAEAU?$less@V?$basic_string@DU?$char_traits@D@std@@V?$allocator@D@2@@std@@@0@AEBV?$basic_string@DU?$char_traits@D@std@@V?$allocator@D@2@@0@1PEB_WI@Z 000000014001b0e0 f i metadatagram.obj
 0001:0001a170       ??$_Debug_lt_pred@AEBU?$less@V?$basic_string@DU?$char_traits@D@std@@V?$allocator@D@2@@std@@@std@@AEBV?$basic_string@DU?$char_traits@D@std@@V?$allocator@D@2@@2@AEBV32@@std@@YA_NAEBU?$less@V?$basic_string@DU?$char_traits@D@std@@V?$allocator@D@2@@std@@@0@AEBV?$basic_string@DU?$char_traits@D@std@@V?$allocator@D@2@@0@1PEB_WI@Z 000000014001b170 f i metadatagram.obj
 0001:0001a200       ??$_Debug_pointer@D@std@@YAXPEADPEB_WI@Z 000000014001b200 f i metadatagram.obj
 0001:0001a240       ??$_Debug_range2@PEAD@std@@YAXPEAD0PEB_WIUrandom_access_iterator_tag@0@@Z 000000014001b240 f i metadatagram.obj
 0001:0001a2c0       ??$_Debug_range@PEAD@std@@YAXPEAD0PEB_WI@Z 000000014001b2c0 f i metadatagram.obj
 0001:0001a320       ??$_Destroy_range1@V?$allocator@V?$basic_string@DU?$char_traits@D@std@@V?$allocator@D@2@@std@@@std@@PEAV?$basic_string@DU?$char_traits@D@std@@V?$allocator@D@2@@2@@std@@YAXPEAV?$basic_string@DU?$char_traits@D@std@@V?$allocator@D@2@@0@0AEAU?$_Wrap_alloc@V?$allocator@V?$basic_string@DU?$char_traits@D@std@@V?$allocator@D@2@@std@@@std@@@0@U?$integral_constant@_N$0A@@0@@Z 000000014001b320 f i metadatagram.obj
 0001:0001a380       ??$_Destroy_range@V?$allocator@V?$basic_string@DU?$char_traits@D@std@@V?$allocator@D@2@@std@@@std@@PEAV?$basic_string@DU?$char_traits@D@std@@V?$allocator@D@2@@2@@std@@YAXPEAV?$basic_string@DU?$char_traits@D@std@@V?$allocator@D@2@@0@0AEAU?$_Wrap_alloc@V?$allocator@V?$basic_string@DU?$char_traits@D@std@@V?$allocator@D@2@@std@@@std@@@0@@Z 000000014001b380 f i metadatagram.obj
 0001:0001a3c0       ??$_Insert_at@AEAU?$pair@$$CBV?$basic_string@DU?$char_traits@D@std@@V?$allocator@D@2@@std@@V12@@std@@PEAU?$_Tree_node@U?$pair@$$CBV?$basic_string@DU?$char_traits@D@std@@V?$allocator@D@2@@std@@V12@@std@@PEAX@2@@?$_Tree@V?$_Tmap_traits@V?$basic_string@DU?$char_traits@D@std@@V?$allocator@D@2@@std@@V12@U?$less@V?$basic_string@DU?$char_traits@D@std@@V?$allocator@D@2@@std@@@2@V?$allocator@U?$pair@$$CBV?$basic_string@DU?$char_traits@D@std@@V?$allocator@D@2@@std@@V12@@std@@@2@$0A@@std@@@std@@IEAA?AV?$_Tree_iterator@V?$_Tree_val@U?$_Tree_simple_types@U?$pair@$$CBV?$basic_string@DU?$char_traits@D@std@@V?$allocator@D@2@@std@@V12@@std@@@std@@@std@@@1@_NPEAU?$_Tree_node@U?$pair@$$CBV?$basic_string@DU?$char_traits@D@std@@V?$allocator@D@2@@std@@V12@@std@@PEAX@1@AEAU?$pair@$$CBV?$basic_string@DU?$char_traits@D@std@@V?$allocator@D@2@@std@@V12@@1@1@Z 000000014001b3c0 f i metadatagram.obj
 0001:0001a840       ??$_Insert_nohint@AEAU?$pair@$$CBV?$basic_string@DU?$char_traits@D@std@@V?$allocator@D@2@@std@@V12@@std@@PEAU?$_Tree_node@U?$pair@$$CBV?$basic_string@DU?$char_traits@D@std@@V?$allocator@D@2@@std@@V12@@std@@PEAX@2@@?$_Tree@V?$_Tmap_traits@V?$basic_string@DU?$char_traits@D@std@@V?$allocator@D@2@@std@@V12@U?$less@V?$basic_string@DU?$char_traits@D@std@@V?$allocator@D@2@@std@@@2@V?$allocator@U?$pair@$$CBV?$basic_string@DU?$char_traits@D@std@@V?$allocator@D@2@@std@@V12@@std@@@2@$0A@@std@@@std@@IEAA?AU?$pair@V?$_Tree_iterator@V?$_Tree_val@U?$_Tree_simple_types@U?$pair@$$CBV?$basic_string@DU?$char_traits@D@std@@V?$allocator@D@2@@std@@V12@@std@@@std@@@std@@@std@@_N@1@_NAEAU?$pair@$$CBV?$basic_string@DU?$char_traits@D@std@@V?$allocator@D@2@@std@@V12@@1@PEAU?$_Tree_node@U?$pair@$$CBV?$basic_string@DU?$char_traits@D@std@@V?$allocator@D@2@@std@@V12@@std@@PEAX@1@@Z 000000014001b840 f i metadatagram.obj
 0001:0001adf0       ??$_Integral_to_string@DH@std@@YA?AV?$basic_string@DU?$char_traits@D@std@@V?$allocator@D@2@@0@H@Z 000000014001bdf0 f i metadatagram.obj
 0001:0001aec0       ??$_Kfn@$$CBV?$basic_string@DU?$char_traits@D@std@@V?$allocator@D@2@@std@@V12@@?$_Tmap_traits@V?$basic_string@DU?$char_traits@D@std@@V?$allocator@D@2@@std@@V12@U?$less@V?$basic_string@DU?$char_traits@D@std@@V?$allocator@D@2@@std@@@2@V?$allocator@U?$pair@$$CBV?$basic_string@DU?$char_traits@D@std@@V?$allocator@D@2@@std@@V12@@std@@@2@$0A@@std@@SAAEBV?$basic_string@DU?$char_traits@D@std@@V?$allocator@D@2@@1@AEBU?$pair@$$CBV?$basic_string@DU?$char_traits@D@std@@V?$allocator@D@2@@std@@V12@@1@@Z 000000014001bec0 f i metadatagram.obj
 0001:0001aed0       ??$_Lbound@V?$basic_string@DU?$char_traits@D@std@@V?$allocator@D@2@@std@@@?$_Tree@V?$_Tmap_traits@V?$basic_string@DU?$char_traits@D@std@@V?$allocator@D@2@@std@@V12@U?$less@V?$basic_string@DU?$char_traits@D@std@@V?$allocator@D@2@@std@@@2@V?$allocator@U?$pair@$$CBV?$basic_string@DU?$char_traits@D@std@@V?$allocator@D@2@@std@@V12@@std@@@2@$0A@@std@@@std@@IEBAPEAU?$_Tree_node@U?$pair@$$CBV?$basic_string@DU?$char_traits@D@std@@V?$allocator@D@2@@std@@V12@@std@@PEAX@1@AEBV?$basic_string@DU?$char_traits@D@std@@V?$allocator@D@2@@1@@Z 000000014001bed0 f i metadatagram.obj
 0001:0001af80       ??$_Pocca@U?$_Wrap_alloc@V?$allocator@D@std@@@std@@@std@@YAXAEAU?$_Wrap_alloc@V?$allocator@D@std@@@0@AEBU10@@Z 000000014001bf80 f i metadatagram.obj
 0001:0001afb0       ??$_Pocca@U?$_Wrap_alloc@V?$allocator@D@std@@@std@@@std@@YAXAEAU?$_Wrap_alloc@V?$allocator@D@std@@@0@AEBU10@U?$integral_constant@_N$0A@@0@@Z 000000014001bfb0 f i metadatagram.obj
 0001:0001afc0       ??$_Pocca@U?$_Wrap_alloc@V?$allocator@U?$_Tree_node@U?$pair@$$CBV?$basic_string@DU?$char_traits@D@std@@V?$allocator@D@2@@std@@V12@@std@@PEAX@std@@@std@@@std@@@std@@YAXAEAU?$_Wrap_alloc@V?$allocator@U?$_Tree_node@U?$pair@$$CBV?$basic_string@DU?$char_traits@D@std@@V?$allocator@D@2@@std@@V12@@std@@PEAX@std@@@std@@@0@AEBU10@@Z 000000014001bfc0 f i metadatagram.obj
 0001:0001aff0       ??$_Pocca@U?$_Wrap_alloc@V?$allocator@U?$_Tree_node@U?$pair@$$CBV?$basic_string@DU?$char_traits@D@std@@V?$allocator@D@2@@std@@V12@@std@@PEAX@std@@@std@@@std@@@std@@YAXAEAU?$_Wrap_alloc@V?$allocator@U?$_Tree_node@U?$pair@$$CBV?$basic_string@DU?$char_traits@D@std@@V?$allocator@D@2@@std@@V12@@std@@PEAX@std@@@std@@@0@AEBU10@U?$integral_constant@_N$0A@@0@@Z 000000014001bff0 f i metadatagram.obj
 0001:0001b000       ??$_Ptr_copy_cat@$$CBV?$basic_string@DU?$char_traits@D@std@@V?$allocator@D@2@@std@@V12@@std@@YA?AU_General_ptr_iterator_tag@0@AEBQEBV?$basic_string@DU?$char_traits@D@std@@V?$allocator@D@2@@0@AEBQEAV20@@Z 000000014001c000 f i metadatagram.obj
 0001:0001b030       ??$_Ptr_move_cat@V?$basic_string@DU?$char_traits@D@std@@V?$allocator@D@2@@std@@V12@@std@@YA?AU_General_ptr_iterator_tag@0@AEBQEAV?$basic_string@DU?$char_traits@D@std@@V?$allocator@D@2@@0@0@Z 000000014001c030 f i metadatagram.obj
 0001:0001b060       ??$_Rechecked@PEAV?$basic_string@DU?$char_traits@D@std@@V?$allocator@D@2@@std@@PEAV12@@std@@YAAEAPEAV?$basic_string@DU?$char_traits@D@std@@V?$allocator@D@2@@0@AEAPEAV10@PEAV10@@Z 000000014001c060 f i metadatagram.obj
 0001:0001b080       ??$_UIntegral_to_buff@DI@std@@YAPEADPEADI@Z 000000014001c080 f i metadatagram.obj
 0001:0001b0e0       ??$_Ucopy@V?$_Vector_const_iterator@V?$_Vector_val@U?$_Simple_types@V?$basic_string@DU?$char_traits@D@std@@V?$allocator@D@2@@std@@@std@@@std@@@std@@@?$vector@V?$basic_string@DU?$char_traits@D@std@@V?$allocator@D@2@@std@@V?$allocator@V?$basic_string@DU?$char_traits@D@std@@V?$allocator@D@2@@std@@@2@@std@@IEAAPEAV?$basic_string@DU?$char_traits@D@std@@V?$allocator@D@2@@1@V?$_Vector_const_iterator@V?$_Vector_val@U?$_Simple_types@V?$basic_string@DU?$char_traits@D@std@@V?$allocator@D@2@@std@@@std@@@std@@@1@0PEAV21@@Z 000000014001c0e0 f i metadatagram.obj
 0001:0001b1b0       ??$_Umove@PEAV?$basic_string@DU?$char_traits@D@std@@V?$allocator@D@2@@std@@@?$vector@V?$basic_string@DU?$char_traits@D@std@@V?$allocator@D@2@@std@@V?$allocator@V?$basic_string@DU?$char_traits@D@std@@V?$allocator@D@2@@std@@@2@@std@@IEAAPEAV?$basic_string@DU?$char_traits@D@std@@V?$allocator@D@2@@1@PEAV21@00@Z 000000014001c1b0 f i metadatagram.obj
 0001:0001b1f0       ??$_Unchecked@PEAD@std@@YAPEADPEAD@Z 000000014001c1f0 f i metadatagram.obj
 0001:0001b200       ??$_Unchecked@PEAV?$basic_string@DU?$char_traits@D@std@@V?$allocator@D@2@@std@@@std@@YAPEAV?$basic_string@DU?$char_traits@D@std@@V?$allocator@D@2@@0@PEAV10@@Z 000000014001c200 f i metadatagram.obj
 0001:0001b210       ??$_Unchecked@V?$_Vector_val@U?$_Simple_types@V?$basic_string@DU?$char_traits@D@std@@V?$allocator@D@2@@std@@@std@@@std@@@std@@YAPEBV?$basic_string@DU?$char_traits@D@std@@V?$allocator@D@2@@0@V?$_Vector_const_iterator@V?$_Vector_val@U?$_Simple_types@V?$basic_string@DU?$char_traits@D@std@@V?$allocator@D@2@@std@@@std@@@std@@@0@@Z 000000014001c210 f i metadatagram.obj
 0001:0001b250       ??$_Unfancy@V?$basic_string@DU?$char_traits@D@std@@V?$allocator@D@2@@std@@@std@@YAPEAV?$basic_string@DU?$char_traits@D@std@@V?$allocator@D@2@@0@PEAV10@@Z 000000014001c250 f i metadatagram.obj
 0001:0001b260       ??$_Uninitialized_copy@V?$_Vector_const_iterator@V?$_Vector_val@U?$_Simple_types@V?$basic_string@DU?$char_traits@D@std@@V?$allocator@D@2@@std@@@std@@@std@@@std@@PEAV?$basic_string@DU?$char_traits@D@std@@V?$allocator@D@2@@2@V?$allocator@V?$basic_string@DU?$char_traits@D@std@@V?$allocator@D@2@@std@@@2@@std@@YAPEAV?$basic_string@DU?$char_traits@D@std@@V?$allocator@D@2@@0@V?$_Vector_const_iterator@V?$_Vector_val@U?$_Simple_types@V?$basic_string@DU?$char_traits@D@std@@V?$allocator@D@2@@std@@@std@@@std@@@0@0PEAV10@AEAU?$_Wrap_alloc@V?$allocator@V?$basic_string@DU?$char_traits@D@std@@V?$allocator@D@2@@std@@@std@@@0@@Z 000000014001c260 f i metadatagram.obj
 0001:0001b350       ??$_Uninitialized_copy_al_unchecked1@PEBV?$basic_string@DU?$char_traits@D@std@@V?$allocator@D@2@@std@@PEAV12@V?$allocator@V?$basic_string@DU?$char_traits@D@std@@V?$allocator@D@2@@std@@@2@@std@@YAPEAV?$basic_string@DU?$char_traits@D@std@@V?$allocator@D@2@@0@PEBV10@0PEAV10@AEAU?$_Wrap_alloc@V?$allocator@V?$basic_string@DU?$char_traits@D@std@@V?$allocator@D@2@@std@@@std@@@0@U_General_ptr_iterator_tag@0@U_Any_tag@0@@Z 000000014001c350 f i metadatagram.obj
 0001:0001b3e0       ??$_Uninitialized_copy_al_unchecked@PEBV?$basic_string@DU?$char_traits@D@std@@V?$allocator@D@2@@std@@PEAV12@V?$allocator@V?$basic_string@DU?$char_traits@D@std@@V?$allocator@D@2@@std@@@2@@std@@YAPEAV?$basic_string@DU?$char_traits@D@std@@V?$allocator@D@2@@0@PEBV10@0PEAV10@AEAU?$_Wrap_alloc@V?$allocator@V?$basic_string@DU?$char_traits@D@std@@V?$allocator@D@2@@std@@@std@@@0@@Z 000000014001c3e0 f i metadatagram.obj
 0001:0001b460       ??$_Uninitialized_move@PEAV?$basic_string@DU?$char_traits@D@std@@V?$allocator@D@2@@std@@PEAV12@V?$allocator@V?$basic_string@DU?$char_traits@D@std@@V?$allocator@D@2@@std@@@2@@std@@YAPEAV?$basic_string@DU?$char_traits@D@std@@V?$allocator@D@2@@0@PEAV10@00AEAU?$_Wrap_alloc@V?$allocator@V?$basic_string@DU?$char_traits@D@std@@V?$allocator@D@2@@std@@@std@@@0@@Z 000000014001c460 f i metadatagram.obj
 0001:0001b4e0       ??$_Uninitialized_move_al_unchecked1@PEAV?$basic_string@DU?$char_traits@D@std@@V?$allocator@D@2@@std@@PEAV12@V?$allocator@V?$basic_string@DU?$char_traits@D@std@@V?$allocator@D@2@@std@@@2@@std@@YAPEAV?$basic_string@DU?$char_traits@D@std@@V?$allocator@D@2@@0@PEAV10@00AEAU?$_Wrap_alloc@V?$allocator@V?$basic_string@DU?$char_traits@D@std@@V?$allocator@D@2@@std@@@std@@@0@U_General_ptr_iterator_tag@0@U_Any_tag@0@@Z 000000014001c4e0 f i metadatagram.obj
 0001:0001b570       ??$_Uninitialized_move_al_unchecked@PEAV?$basic_string@DU?$char_traits@D@std@@V?$allocator@D@2@@std@@PEAV12@V?$allocator@V?$basic_string@DU?$char_traits@D@std@@V?$allocator@D@2@@std@@@2@@std@@YAPEAV?$basic_string@DU?$char_traits@D@std@@V?$allocator@D@2@@0@PEAV10@00AEAU?$_Wrap_alloc@V?$allocator@V?$basic_string@DU?$char_traits@D@std@@V?$allocator@D@2@@std@@@std@@@0@@Z 000000014001c570 f i metadatagram.obj
 0001:0001b5f0       ??$addressof@$$CBU?$pair@$$CBV?$basic_string@DU?$char_traits@D@std@@V?$allocator@D@2@@std@@V12@@std@@@std@@YAPEBU?$pair@$$CBV?$basic_string@DU?$char_traits@D@std@@V?$allocator@D@2@@std@@V12@@0@AEBU10@@Z 000000014001c5f0 f i metadatagram.obj
 0001:0001b600       ??$addressof@$$CBV?$basic_string@DU?$char_traits@D@std@@V?$allocator@D@2@@std@@@std@@YAPEBV?$basic_string@DU?$char_traits@D@std@@V?$allocator@D@2@@0@AEBV10@@Z 000000014001c600 f i metadatagram.obj
 0001:0001b610       ??$addressof@PEAU?$_Tree_node@U?$pair@$$CBV?$basic_string@DU?$char_traits@D@std@@V?$allocator@D@2@@std@@V12@@std@@PEAX@std@@@std@@YAPEAPEAU?$_Tree_node@U?$pair@$$CBV?$basic_string@DU?$char_traits@D@std@@V?$allocator@D@2@@std@@V12@@std@@PEAX@0@AEAPEAU10@@Z 000000014001c610 f i metadatagram.obj
 0001:0001b620       ??$addressof@U?$pair@$$CBV?$basic_string@DU?$char_traits@D@std@@V?$allocator@D@2@@std@@V12@@std@@@std@@YAPEAU?$pair@$$CBV?$basic_string@DU?$char_traits@D@std@@V?$allocator@D@2@@std@@V12@@0@AEAU10@@Z 000000014001c620 f i metadatagram.obj
 0001:0001b630       ??$construct@PEAU?$_Tree_node@U?$pair@$$CBV?$basic_string@DU?$char_traits@D@std@@V?$allocator@D@2@@std@@V12@@std@@PEAX@std@@AEAPEAU12@@?$_Wrap_alloc@V?$allocator@U?$_Tree_node@U?$pair@$$CBV?$basic_string@DU?$char_traits@D@std@@V?$allocator@D@2@@std@@V12@@std@@PEAX@std@@@std@@@std@@QEAAXPEAPEAU?$_Tree_node@U?$pair@$$CBV?$basic_string@DU?$char_traits@D@std@@V?$allocator@D@2@@std@@V12@@std@@PEAX@1@AEAPEAU21@@Z 000000014001c630 f i metadatagram.obj
 0001:0001b670       ??$construct@PEAU?$_Tree_node@U?$pair@$$CBV?$basic_string@DU?$char_traits@D@std@@V?$allocator@D@2@@std@@V12@@std@@PEAX@std@@AEAPEAU12@@?$allocator@U?$_Tree_node@U?$pair@$$CBV?$basic_string@DU?$char_traits@D@std@@V?$allocator@D@2@@std@@V12@@std@@PEAX@std@@@std@@QEAAXPEAPEAU?$_Tree_node@U?$pair@$$CBV?$basic_string@DU?$char_traits@D@std@@V?$allocator@D@2@@std@@V12@@std@@PEAX@1@AEAPEAU21@@Z 000000014001c670 f i metadatagram.obj
 0001:0001b6d0       ??$construct@PEAU?$_Tree_node@U?$pair@$$CBV?$basic_string@DU?$char_traits@D@std@@V?$allocator@D@2@@std@@V12@@std@@PEAX@std@@AEAPEAU12@@?$allocator_traits@V?$allocator@U?$_Tree_node@U?$pair@$$CBV?$basic_string@DU?$char_traits@D@std@@V?$allocator@D@2@@std@@V12@@std@@PEAX@std@@@std@@@std@@SAXAEAV?$allocator@U?$_Tree_node@U?$pair@$$CBV?$basic_string@DU?$char_traits@D@std@@V?$allocator@D@2@@std@@V12@@std@@PEAX@std@@@1@PEAPEAU?$_Tree_node@U?$pair@$$CBV?$basic_string@DU?$char_traits@D@std@@V?$allocator@D@2@@std@@V12@@std@@PEAX@1@AEAPEAU31@@Z 000000014001c6d0 f i metadatagram.obj
 0001:0001b710       ??$construct@U?$pair@$$CBV?$basic_string@DU?$char_traits@D@std@@V?$allocator@D@2@@std@@V12@@std@@AEAU12@@?$_Wrap_alloc@V?$allocator@U?$_Tree_node@U?$pair@$$CBV?$basic_string@DU?$char_traits@D@std@@V?$allocator@D@2@@std@@V12@@std@@PEAX@std@@@std@@@std@@QEAAXPEAU?$pair@$$CBV?$basic_string@DU?$char_traits@D@std@@V?$allocator@D@2@@std@@V12@@1@AEAU21@@Z 000000014001c710 f i metadatagram.obj
 0001:0001b750       ??$construct@U?$pair@$$CBV?$basic_string@DU?$char_traits@D@std@@V?$allocator@D@2@@std@@V12@@std@@AEAU12@@?$allocator@U?$_Tree_node@U?$pair@$$CBV?$basic_string@DU?$char_traits@D@std@@V?$allocator@D@2@@std@@V12@@std@@PEAX@std@@@std@@QEAAXPEAU?$pair@$$CBV?$basic_string@DU?$char_traits@D@std@@V?$allocator@D@2@@std@@V12@@1@AEAU21@@Z 000000014001c750 f i metadatagram.obj
 0001:0001b7c0       ??$construct@U?$pair@$$CBV?$basic_string@DU?$char_traits@D@std@@V?$allocator@D@2@@std@@V12@@std@@AEAU12@@?$allocator_traits@V?$allocator@U?$_Tree_node@U?$pair@$$CBV?$basic_string@DU?$char_traits@D@std@@V?$allocator@D@2@@std@@V12@@std@@PEAX@std@@@std@@@std@@SAXAEAV?$allocator@U?$_Tree_node@U?$pair@$$CBV?$basic_string@DU?$char_traits@D@std@@V?$allocator@D@2@@std@@V12@@std@@PEAX@std@@@1@PEAU?$pair@$$CBV?$basic_string@DU?$char_traits@D@std@@V?$allocator@D@2@@std@@V12@@1@AEAU31@@Z 000000014001c7c0 f i metadatagram.obj
 0001:0001b800       ??$construct@U?$pair@$$CBV?$basic_string@DU?$char_traits@D@std@@V?$allocator@D@2@@std@@V12@@std@@U?$pair@V?$basic_string@DU?$char_traits@D@std@@V?$allocator@D@2@@std@@V12@@2@@?$_Wrap_alloc@V?$allocator@U?$_Tree_node@U?$pair@$$CBV?$basic_string@DU?$char_traits@D@std@@V?$allocator@D@2@@std@@V12@@std@@PEAX@std@@@std@@@std@@QEAAXPEAU?$pair@$$CBV?$basic_string@DU?$char_traits@D@std@@V?$allocator@D@2@@std@@V12@@1@$$QEAU?$pair@V?$basic_string@DU?$char_traits@D@std@@V?$allocator@D@2@@std@@V12@@1@@Z 000000014001c800 f i metadatagram.obj
 0001:0001b840       ??$construct@U?$pair@$$CBV?$basic_string@DU?$char_traits@D@std@@V?$allocator@D@2@@std@@V12@@std@@U?$pair@V?$basic_string@DU?$char_traits@D@std@@V?$allocator@D@2@@std@@V12@@2@@?$allocator@U?$_Tree_node@U?$pair@$$CBV?$basic_string@DU?$char_traits@D@std@@V?$allocator@D@2@@std@@V12@@std@@PEAX@std@@@std@@QEAAXPEAU?$pair@$$CBV?$basic_string@DU?$char_traits@D@std@@V?$allocator@D@2@@std@@V12@@1@$$QEAU?$pair@V?$basic_string@DU?$char_traits@D@std@@V?$allocator@D@2@@std@@V12@@1@@Z 000000014001c840 f i metadatagram.obj
 0001:0001b8a0       ??$construct@U?$pair@$$CBV?$basic_string@DU?$char_traits@D@std@@V?$allocator@D@2@@std@@V12@@std@@U?$pair@V?$basic_string@DU?$char_traits@D@std@@V?$allocator@D@2@@std@@V12@@2@@?$allocator_traits@V?$allocator@U?$_Tree_node@U?$pair@$$CBV?$basic_string@DU?$char_traits@D@std@@V?$allocator@D@2@@std@@V12@@std@@PEAX@std@@@std@@@std@@SAXAEAV?$allocator@U?$_Tree_node@U?$pair@$$CBV?$basic_string@DU?$char_traits@D@std@@V?$allocator@D@2@@std@@V12@@std@@PEAX@std@@@1@PEAU?$pair@$$CBV?$basic_string@DU?$char_traits@D@std@@V?$allocator@D@2@@std@@V12@@1@$$QEAU?$pair@V?$basic_string@DU?$char_traits@D@std@@V?$allocator@D@2@@std@@V12@@1@@Z 000000014001c8a0 f i metadatagram.obj
 0001:0001b8e0       ??$construct@V?$basic_string@DU?$char_traits@D@std@@V?$allocator@D@2@@std@@AEAV12@@?$_Wrap_alloc@V?$allocator@V?$basic_string@DU?$char_traits@D@std@@V?$allocator@D@2@@std@@@std@@@std@@QEAAXPEAV?$basic_string@DU?$char_traits@D@std@@V?$allocator@D@2@@1@AEAV21@@Z 000000014001c8e0 f i metadatagram.obj
 0001:0001b920       ??$construct@V?$basic_string@DU?$char_traits@D@std@@V?$allocator@D@2@@std@@AEAV12@@?$allocator@V?$basic_string@DU?$char_traits@D@std@@V?$allocator@D@2@@std@@@std@@QEAAXPEAV?$basic_string@DU?$char_traits@D@std@@V?$allocator@D@2@@1@AEAV21@@Z 000000014001c920 f i metadatagram.obj
 0001:0001b990       ??$construct@V?$basic_string@DU?$char_traits@D@std@@V?$allocator@D@2@@std@@AEAV12@@?$allocator_traits@V?$allocator@V?$basic_string@DU?$char_traits@D@std@@V?$allocator@D@2@@std@@@std@@@std@@SAXAEAV?$allocator@V?$basic_string@DU?$char_traits@D@std@@V?$allocator@D@2@@std@@@1@PEAV?$basic_string@DU?$char_traits@D@std@@V?$allocator@D@2@@1@AEAV31@@Z 000000014001c990 f i metadatagram.obj
 0001:0001b9d0       ??$construct@V?$basic_string@DU?$char_traits@D@std@@V?$allocator@D@2@@std@@AEBV12@@?$_Wrap_alloc@V?$allocator@V?$basic_string@DU?$char_traits@D@std@@V?$allocator@D@2@@std@@@std@@@std@@QEAAXPEAV?$basic_string@DU?$char_traits@D@std@@V?$allocator@D@2@@1@AEBV21@@Z 000000014001c9d0 f i metadatagram.obj
 0001:0001ba10       ??$construct@V?$basic_string@DU?$char_traits@D@std@@V?$allocator@D@2@@std@@AEBV12@@?$allocator@V?$basic_string@DU?$char_traits@D@std@@V?$allocator@D@2@@std@@@std@@QEAAXPEAV?$basic_string@DU?$char_traits@D@std@@V?$allocator@D@2@@1@AEBV21@@Z 000000014001ca10 f i metadatagram.obj
 0001:0001ba80       ??$construct@V?$basic_string@DU?$char_traits@D@std@@V?$allocator@D@2@@std@@AEBV12@@?$allocator_traits@V?$allocator@V?$basic_string@DU?$char_traits@D@std@@V?$allocator@D@2@@std@@@std@@@std@@SAXAEAV?$allocator@V?$basic_string@DU?$char_traits@D@std@@V?$allocator@D@2@@std@@@1@PEAV?$basic_string@DU?$char_traits@D@std@@V?$allocator@D@2@@1@AEBV31@@Z 000000014001ca80 f i metadatagram.obj
 0001:0001bac0       ??$construct@V?$basic_string@DU?$char_traits@D@std@@V?$allocator@D@2@@std@@V12@@?$_Wrap_alloc@V?$allocator@V?$basic_string@DU?$char_traits@D@std@@V?$allocator@D@2@@std@@@std@@@std@@QEAAXPEAV?$basic_string@DU?$char_traits@D@std@@V?$allocator@D@2@@1@$$QEAV21@@Z 000000014001cac0 f i metadatagram.obj
 0001:0001bb00       ??$construct@V?$basic_string@DU?$char_traits@D@std@@V?$allocator@D@2@@std@@V12@@?$allocator@V?$basic_string@DU?$char_traits@D@std@@V?$allocator@D@2@@std@@@std@@QEAAXPEAV?$basic_string@DU?$char_traits@D@std@@V?$allocator@D@2@@1@$$QEAV21@@Z 000000014001cb00 f i metadatagram.obj
 0001:0001bb60       ??$construct@V?$basic_string@DU?$char_traits@D@std@@V?$allocator@D@2@@std@@V12@@?$allocator_traits@V?$allocator@V?$basic_string@DU?$char_traits@D@std@@V?$allocator@D@2@@std@@@std@@@std@@SAXAEAV?$allocator@V?$basic_string@DU?$char_traits@D@std@@V?$allocator@D@2@@std@@@1@PEAV?$basic_string@DU?$char_traits@D@std@@V?$allocator@D@2@@1@$$QEAV31@@Z 000000014001cb60 f i metadatagram.obj
 0001:0001bba0       ??$destroy@PEAU?$_Tree_node@U?$pair@$$CBV?$basic_string@DU?$char_traits@D@std@@V?$allocator@D@2@@std@@V12@@std@@PEAX@std@@@?$_Wrap_alloc@V?$allocator@U?$_Tree_node@U?$pair@$$CBV?$basic_string@DU?$char_traits@D@std@@V?$allocator@D@2@@std@@V12@@std@@PEAX@std@@@std@@@std@@QEAAXPEAPEAU?$_Tree_node@U?$pair@$$CBV?$basic_string@DU?$char_traits@D@std@@V?$allocator@D@2@@std@@V12@@std@@PEAX@1@@Z 000000014001cba0 f i metadatagram.obj
 0001:0001bbd0       ??$destroy@PEAU?$_Tree_node@U?$pair@$$CBV?$basic_string@DU?$char_traits@D@std@@V?$allocator@D@2@@std@@V12@@std@@PEAX@std@@@?$allocator@U?$_Tree_node@U?$pair@$$CBV?$basic_string@DU?$char_traits@D@std@@V?$allocator@D@2@@std@@V12@@std@@PEAX@std@@@std@@QEAAXPEAPEAU?$_Tree_node@U?$pair@$$CBV?$basic_string@DU?$char_traits@D@std@@V?$allocator@D@2@@std@@V12@@std@@PEAX@1@@Z 000000014001cbd0 f i metadatagram.obj
 0001:0001bbe0       ??$destroy@PEAU?$_Tree_node@U?$pair@$$CBV?$basic_string@DU?$char_traits@D@std@@V?$allocator@D@2@@std@@V12@@std@@PEAX@std@@@?$allocator_traits@V?$allocator@U?$_Tree_node@U?$pair@$$CBV?$basic_string@DU?$char_traits@D@std@@V?$allocator@D@2@@std@@V12@@std@@PEAX@std@@@std@@@std@@SAXAEAV?$allocator@U?$_Tree_node@U?$pair@$$CBV?$basic_string@DU?$char_traits@D@std@@V?$allocator@D@2@@std@@V12@@std@@PEAX@std@@@1@PEAPEAU?$_Tree_node@U?$pair@$$CBV?$basic_string@DU?$char_traits@D@std@@V?$allocator@D@2@@std@@V12@@std@@PEAX@1@@Z 000000014001cbe0 f i metadatagram.obj
 0001:0001bc10       ??$destroy@U?$pair@$$CBV?$basic_string@DU?$char_traits@D@std@@V?$allocator@D@2@@std@@V12@@std@@@?$_Wrap_alloc@V?$allocator@U?$_Tree_node@U?$pair@$$CBV?$basic_string@DU?$char_traits@D@std@@V?$allocator@D@2@@std@@V12@@std@@PEAX@std@@@std@@@std@@QEAAXPEAU?$pair@$$CBV?$basic_string@DU?$char_traits@D@std@@V?$allocator@D@2@@std@@V12@@1@@Z 000000014001cc10 f i metadatagram.obj
 0001:0001bc40       ??$destroy@U?$pair@$$CBV?$basic_string@DU?$char_traits@D@std@@V?$allocator@D@2@@std@@V12@@std@@@?$allocator@U?$_Tree_node@U?$pair@$$CBV?$basic_string@DU?$char_traits@D@std@@V?$allocator@D@2@@std@@V12@@std@@PEAX@std@@@std@@QEAAXPEAU?$pair@$$CBV?$basic_string@DU?$char_traits@D@std@@V?$allocator@D@2@@std@@V12@@1@@Z 000000014001cc40 f i metadatagram.obj
 0001:0001bc60       ??$destroy@U?$pair@$$CBV?$basic_string@DU?$char_traits@D@std@@V?$allocator@D@2@@std@@V12@@std@@@?$allocator_traits@V?$allocator@U?$_Tree_node@U?$pair@$$CBV?$basic_string@DU?$char_traits@D@std@@V?$allocator@D@2@@std@@V12@@std@@PEAX@std@@@std@@@std@@SAXAEAV?$allocator@U?$_Tree_node@U?$pair@$$CBV?$basic_string@DU?$char_traits@D@std@@V?$allocator@D@2@@std@@V12@@std@@PEAX@std@@@1@PEAU?$pair@$$CBV?$basic_string@DU?$char_traits@D@std@@V?$allocator@D@2@@std@@V12@@1@@Z 000000014001cc60 f i metadatagram.obj
 0001:0001bc90       ??$destroy@V?$basic_string@DU?$char_traits@D@std@@V?$allocator@D@2@@std@@@?$_Wrap_alloc@V?$allocator@V?$basic_string@DU?$char_traits@D@std@@V?$allocator@D@2@@std@@@std@@@std@@QEAAXPEAV?$basic_string@DU?$char_traits@D@std@@V?$allocator@D@2@@1@@Z 000000014001cc90 f i metadatagram.obj
 0001:0001bcc0       ??$destroy@V?$basic_string@DU?$char_traits@D@std@@V?$allocator@D@2@@std@@@?$allocator@V?$basic_string@DU?$char_traits@D@std@@V?$allocator@D@2@@std@@@std@@QEAAXPEAV?$basic_string@DU?$char_traits@D@std@@V?$allocator@D@2@@1@@Z 000000014001ccc0 f i metadatagram.obj
 0001:0001bce0       ??$destroy@V?$basic_string@DU?$char_traits@D@std@@V?$allocator@D@2@@std@@@?$allocator_traits@V?$allocator@V?$basic_string@DU?$char_traits@D@std@@V?$allocator@D@2@@std@@@std@@@std@@SAXAEAV?$allocator@V?$basic_string@DU?$char_traits@D@std@@V?$allocator@D@2@@std@@@1@PEAV?$basic_string@DU?$char_traits@D@std@@V?$allocator@D@2@@1@@Z 000000014001cce0 f i metadatagram.obj
 0001:0001bd10       ??$emplace@U?$pair@V?$basic_string@DU?$char_traits@D@std@@V?$allocator@D@2@@std@@V12@@std@@@?$_Tree@V?$_Tmap_traits@V?$basic_string@DU?$char_traits@D@std@@V?$allocator@D@2@@std@@V12@U?$less@V?$basic_string@DU?$char_traits@D@std@@V?$allocator@D@2@@std@@@2@V?$allocator@U?$pair@$$CBV?$basic_string@DU?$char_traits@D@std@@V?$allocator@D@2@@std@@V12@@std@@@2@$0A@@std@@@std@@QEAA?AU?$pair@V?$_Tree_iterator@V?$_Tree_val@U?$_Tree_simple_types@U?$pair@$$CBV?$basic_string@DU?$char_traits@D@std@@V?$allocator@D@2@@std@@V12@@std@@@std@@@std@@@std@@_N@1@$$QEAU?$pair@V?$basic_string@DU?$char_traits@D@std@@V?$allocator@D@2@@std@@V12@@1@@Z 000000014001cd10 f i metadatagram.obj
 0001:0001bd90       ??$end@D$0BF@@std@@YAPEADAEAY0BF@D@Z 000000014001cd90 f i metadatagram.obj
 0001:0001bda0       ??$endl@DU?$char_traits@D@std@@@std@@YAAEAV?$basic_ostream@DU?$char_traits@D@std@@@0@AEAV10@@Z 000000014001cda0 f i metadatagram.obj
 0001:0001bdf0       ??$forward@AEAPEAU?$_Tree_node@U?$pair@$$CBV?$basic_string@DU?$char_traits@D@std@@V?$allocator@D@2@@std@@V12@@std@@PEAX@std@@@std@@YAAEAPEAU?$_Tree_node@U?$pair@$$CBV?$basic_string@DU?$char_traits@D@std@@V?$allocator@D@2@@std@@V12@@std@@PEAX@0@AEAPEAU10@@Z 000000014001cdf0 f i metadatagram.obj
 0001:0001be00       ??$forward@AEAU?$_Wrap_alloc@V?$allocator@U?$_Tree_node@U?$pair@$$CBV?$basic_string@DU?$char_traits@D@std@@V?$allocator@D@2@@std@@V12@@std@@PEAX@std@@@std@@@std@@@std@@YAAEAU?$_Wrap_alloc@V?$allocator@U?$_Tree_node@U?$pair@$$CBV?$basic_string@DU?$char_traits@D@std@@V?$allocator@D@2@@std@@V12@@std@@PEAX@std@@@std@@@0@AEAU10@@Z 000000014001ce00 f i metadatagram.obj
 0001:0001be10       ??$forward@AEAU?$_Wrap_alloc@V?$allocator@V?$basic_string@DU?$char_traits@D@std@@V?$allocator@D@2@@std@@@std@@@std@@@std@@YAAEAU?$_Wrap_alloc@V?$allocator@V?$basic_string@DU?$char_traits@D@std@@V?$allocator@D@2@@std@@@std@@@0@AEAU10@@Z 000000014001ce10 f i metadatagram.obj
 0001:0001be20       ??$forward@AEAU?$pair@$$CBV?$basic_string@DU?$char_traits@D@std@@V?$allocator@D@2@@std@@V12@@std@@@std@@YAAEAU?$pair@$$CBV?$basic_string@DU?$char_traits@D@std@@V?$allocator@D@2@@std@@V12@@0@AEAU10@@Z 000000014001ce20 f i metadatagram.obj
 0001:0001be30       ??$forward@AEAV?$_Tree_iterator@V?$_Tree_val@U?$_Tree_simple_types@U?$pair@$$CBV?$basic_string@DU?$char_traits@D@std@@V?$allocator@D@2@@std@@V12@@std@@@std@@@std@@@std@@@std@@YAAEAV?$_Tree_iterator@V?$_Tree_val@U?$_Tree_simple_types@U?$pair@$$CBV?$basic_string@DU?$char_traits@D@std@@V?$allocator@D@2@@std@@V12@@std@@@std@@@std@@@0@AEAV10@@Z 000000014001ce30 f i metadatagram.obj
 0001:0001be40       ??$forward@AEAV?$basic_string@DU?$char_traits@D@std@@V?$allocator@D@2@@std@@@std@@YAAEAV?$basic_string@DU?$char_traits@D@std@@V?$allocator@D@2@@0@AEAV10@@Z 000000014001ce40 f i metadatagram.obj
 0001:0001be50       ??$forward@AEBU?$less@V?$basic_string@DU?$char_traits@D@std@@V?$allocator@D@2@@std@@@std@@@std@@YAAEBU?$less@V?$basic_string@DU?$char_traits@D@std@@V?$allocator@D@2@@std@@@0@AEBU10@@Z 000000014001ce50 f i metadatagram.obj
 0001:0001be60       ??$forward@AEBV?$basic_string@DU?$char_traits@D@std@@V?$allocator@D@2@@std@@@std@@YAAEBV?$basic_string@DU?$char_traits@D@std@@V?$allocator@D@2@@0@AEBV10@@Z 000000014001ce60 f i metadatagram.obj
 0001:0001be70       ??$forward@U?$_Wrap_alloc@V?$allocator@V?$basic_string@DU?$char_traits@D@std@@V?$allocator@D@2@@std@@@std@@@std@@@std@@YA$$QEAU?$_Wrap_alloc@V?$allocator@V?$basic_string@DU?$char_traits@D@std@@V?$allocator@D@2@@std@@@std@@@0@AEAU10@@Z 000000014001ce70 f i metadatagram.obj
 0001:0001be80       ??$forward@U?$pair@V?$basic_string@DU?$char_traits@D@std@@V?$allocator@D@2@@std@@V12@@std@@@std@@YA$$QEAU?$pair@V?$basic_string@DU?$char_traits@D@std@@V?$allocator@D@2@@std@@V12@@0@AEAU10@@Z 000000014001ce80 f i metadatagram.obj
 0001:0001be90       ??$forward@V?$_Tree_iterator@V?$_Tree_val@U?$_Tree_simple_types@U?$pair@$$CBV?$basic_string@DU?$char_traits@D@std@@V?$allocator@D@2@@std@@V12@@std@@@std@@@std@@@std@@@std@@YA$$QEAV?$_Tree_iterator@V?$_Tree_val@U?$_Tree_simple_types@U?$pair@$$CBV?$basic_string@DU?$char_traits@D@std@@V?$allocator@D@2@@std@@V12@@std@@@std@@@std@@@0@AEAV10@@Z 000000014001ce90 f i metadatagram.obj
 0001:0001bea0       ??$forward@V?$allocator@V?$basic_string@DU?$char_traits@D@std@@V?$allocator@D@2@@std@@@std@@@std@@YA$$QEAV?$allocator@V?$basic_string@DU?$char_traits@D@std@@V?$allocator@D@2@@std@@@0@AEAV10@@Z 000000014001cea0 f i metadatagram.obj
 0001:0001beb0       ??$forward@V?$vector@V?$basic_string@DU?$char_traits@D@std@@V?$allocator@D@2@@std@@V?$allocator@V?$basic_string@DU?$char_traits@D@std@@V?$allocator@D@2@@std@@@2@@std@@@std@@YA$$QEAV?$vector@V?$basic_string@DU?$char_traits@D@std@@V?$allocator@D@2@@std@@V?$allocator@V?$basic_string@DU?$char_traits@D@std@@V?$allocator@D@2@@std@@@2@@0@AEAV10@@Z 000000014001ceb0 f i metadatagram.obj
 0001:0001bec0       ??$getline@DU?$char_traits@D@std@@V?$allocator@D@2@@std@@YAAEAV?$basic_istream@DU?$char_traits@D@std@@@0@$$QEAV10@AEAV?$basic_string@DU?$char_traits@D@std@@V?$allocator@D@2@@0@D@Z 000000014001cec0 f i metadatagram.obj
 0001:0001c110       ??$getline@DU?$char_traits@D@std@@V?$allocator@D@2@@std@@YAAEAV?$basic_istream@DU?$char_traits@D@std@@@0@AEAV10@AEAV?$basic_string@DU?$char_traits@D@std@@V?$allocator@D@2@@0@D@Z 000000014001d110 f i metadatagram.obj
 0001:0001c150       ??$insert@U?$pair@V?$basic_string@DU?$char_traits@D@std@@V?$allocator@D@2@@std@@V12@@std@@X@?$map@V?$basic_string@DU?$char_traits@D@std@@V?$allocator@D@2@@std@@V12@U?$less@V?$basic_string@DU?$char_traits@D@std@@V?$allocator@D@2@@std@@@2@V?$allocator@U?$pair@$$CBV?$basic_string@DU?$char_traits@D@std@@V?$allocator@D@2@@std@@V12@@std@@@2@@std@@QEAA?AU?$pair@V?$_Tree_iterator@V?$_Tree_val@U?$_Tree_simple_types@U?$pair@$$CBV?$basic_string@DU?$char_traits@D@std@@V?$allocator@D@2@@std@@V12@@std@@@std@@@std@@@std@@_N@1@$$QEAU?$pair@V?$basic_string@DU?$char_traits@D@std@@V?$allocator@D@2@@std@@V12@@1@@Z 000000014001d150 f i metadatagram.obj
 0001:0001c1a0       ??$move@AEAU?$_Wrap_alloc@V?$allocator@V?$basic_string@DU?$char_traits@D@std@@V?$allocator@D@2@@std@@@std@@@std@@@std@@YA$$QEAU?$_Wrap_alloc@V?$allocator@V?$basic_string@DU?$char_traits@D@std@@V?$allocator@D@2@@std@@@std@@@0@AEAU10@@Z 000000014001d1a0 f i metadatagram.obj
 0001:0001c1b0       ??0?$_Iterator012@Ubidirectional_iterator_tag@std@@U?$pair@$$CBV?$basic_string@DU?$char_traits@D@std@@V?$allocator@D@2@@std@@V12@@2@_JPEBU32@AEBU32@U_Iterator_base12@2@@std@@QEAA@$$QEAU01@@Z 000000014001d1b0 f i metadatagram.obj
 0001:0001c1e0       ??0?$_Iterator012@Ubidirectional_iterator_tag@std@@U?$pair@$$CBV?$basic_string@DU?$char_traits@D@std@@V?$allocator@D@2@@std@@V12@@2@_JPEBU32@AEBU32@U_Iterator_base12@2@@std@@QEAA@AEBU01@@Z 000000014001d1e0 f i metadatagram.obj
 0001:0001c210       ??0?$_Iterator012@Ubidirectional_iterator_tag@std@@U?$pair@$$CBV?$basic_string@DU?$char_traits@D@std@@V?$allocator@D@2@@std@@V12@@2@_JPEBU32@AEBU32@U_Iterator_base12@2@@std@@QEAA@XZ 000000014001d210 f i metadatagram.obj
 0001:0001c230       ??0?$_Iterator012@Urandom_access_iterator_tag@std@@V?$basic_string@DU?$char_traits@D@std@@V?$allocator@D@2@@2@_JPEBV32@AEBV32@U_Iterator_base12@2@@std@@QEAA@AEBU01@@Z 000000014001d230 f i metadatagram.obj
 0001:0001c260       ??0?$_Iterator012@Urandom_access_iterator_tag@std@@V?$basic_string@DU?$char_traits@D@std@@V?$allocator@D@2@@2@_JPEBV32@AEBV32@U_Iterator_base12@2@@std@@QEAA@XZ 000000014001d260 f i metadatagram.obj
 0001:0001c280       ??0?$_Tree@V?$_Tmap_traits@V?$basic_string@DU?$char_traits@D@std@@V?$allocator@D@2@@std@@V12@U?$less@V?$basic_string@DU?$char_traits@D@std@@V?$allocator@D@2@@std@@@2@V?$allocator@U?$pair@$$CBV?$basic_string@DU?$char_traits@D@std@@V?$allocator@D@2@@std@@V12@@std@@@2@$0A@@std@@@std@@QEAA@AEBU?$less@V?$basic_string@DU?$char_traits@D@std@@V?$allocator@D@2@@std@@@1@@Z 000000014001d280 f i metadatagram.obj
 0001:0001c2b0       ??0?$_Tree_comp_alloc@V?$_Tmap_traits@V?$basic_string@DU?$char_traits@D@std@@V?$allocator@D@2@@std@@V12@U?$less@V?$basic_string@DU?$char_traits@D@std@@V?$allocator@D@2@@std@@@2@V?$allocator@U?$pair@$$CBV?$basic_string@DU?$char_traits@D@std@@V?$allocator@D@2@@std@@V12@@std@@@2@$0A@@std@@@std@@QEAA@AEBU?$less@V?$basic_string@DU?$char_traits@D@std@@V?$allocator@D@2@@std@@@1@@Z 000000014001d2b0 f i metadatagram.obj
 0001:0001c300       ??0?$_Tree_const_iterator@V?$_Tree_val@U?$_Tree_simple_types@U?$pair@$$CBV?$basic_string@DU?$char_traits@D@std@@V?$allocator@D@2@@std@@V12@@std@@@std@@@std@@@std@@QEAA@$$QEAV01@@Z 000000014001d300 f i metadatagram.obj
 0001:0001c330       ??0?$_Tree_const_iterator@V?$_Tree_val@U?$_Tree_simple_types@U?$pair@$$CBV?$basic_string@DU?$char_traits@D@std@@V?$allocator@D@2@@std@@V12@@std@@@std@@@std@@@std@@QEAA@AEBV01@@Z 000000014001d330 f i metadatagram.obj
 0001:0001c360       ??0?$_Tree_const_iterator@V?$_Tree_val@U?$_Tree_simple_types@U?$pair@$$CBV?$basic_string@DU?$char_traits@D@std@@V?$allocator@D@2@@std@@V12@@std@@@std@@@std@@@std@@QEAA@PEAU?$_Tree_node@U?$pair@$$CBV?$basic_string@DU?$char_traits@D@std@@V?$allocator@D@2@@std@@V12@@std@@PEAX@1@PEBV?$_Tree_val@U?$_Tree_simple_types@U?$pair@$$CBV?$basic_string@DU?$char_traits@D@std@@V?$allocator@D@2@@std@@V12@@std@@@std@@@1@@Z 000000014001d360 f i metadatagram.obj
 0001:0001c3a0       ??0?$_Tree_iterator@V?$_Tree_val@U?$_Tree_simple_types@U?$pair@$$CBV?$basic_string@DU?$char_traits@D@std@@V?$allocator@D@2@@std@@V12@@std@@@std@@@std@@@std@@QEAA@$$QEAV01@@Z 000000014001d3a0 f i metadatagram.obj
 0001:0001c3d0       ??0?$_Tree_iterator@V?$_Tree_val@U?$_Tree_simple_types@U?$pair@$$CBV?$basic_string@DU?$char_traits@D@std@@V?$allocator@D@2@@std@@V12@@std@@@std@@@std@@@std@@QEAA@AEBV01@@Z 000000014001d3d0 f i metadatagram.obj
 0001:0001c400       ??0?$_Tree_iterator@V?$_Tree_val@U?$_Tree_simple_types@U?$pair@$$CBV?$basic_string@DU?$char_traits@D@std@@V?$allocator@D@2@@std@@V12@@std@@@std@@@std@@@std@@QEAA@PEAU?$_Tree_node@U?$pair@$$CBV?$basic_string@DU?$char_traits@D@std@@V?$allocator@D@2@@std@@V12@@std@@PEAX@1@PEBV?$_Tree_val@U?$_Tree_simple_types@U?$pair@$$CBV?$basic_string@DU?$char_traits@D@std@@V?$allocator@D@2@@std@@V12@@std@@@std@@@1@@Z 000000014001d400 f i metadatagram.obj
 0001:0001c440       ??0?$_Tree_unchecked_const_iterator@V?$_Tree_val@U?$_Tree_simple_types@U?$pair@$$CBV?$basic_string@DU?$char_traits@D@std@@V?$allocator@D@2@@std@@V12@@std@@@std@@@std@@U_Iterator_base12@2@@std@@QEAA@$$QEAV01@@Z 000000014001d440 f i metadatagram.obj
 0001:0001c480       ??0?$_Tree_unchecked_const_iterator@V?$_Tree_val@U?$_Tree_simple_types@U?$pair@$$CBV?$basic_string@DU?$char_traits@D@std@@V?$allocator@D@2@@std@@V12@@std@@@std@@@std@@U_Iterator_base12@2@@std@@QEAA@AEBV01@@Z 000000014001d480 f i metadatagram.obj
 0001:0001c4c0       ??0?$_Tree_unchecked_const_iterator@V?$_Tree_val@U?$_Tree_simple_types@U?$pair@$$CBV?$basic_string@DU?$char_traits@D@std@@V?$allocator@D@2@@std@@V12@@std@@@std@@@std@@U_Iterator_base12@2@@std@@QEAA@PEAU?$_Tree_node@U?$pair@$$CBV?$basic_string@DU?$char_traits@D@std@@V?$allocator@D@2@@std@@V12@@std@@PEAX@1@PEBV?$_Tree_val@U?$_Tree_simple_types@U?$pair@$$CBV?$basic_string@DU?$char_traits@D@std@@V?$allocator@D@2@@std@@V12@@std@@@std@@@1@@Z 000000014001d4c0 f i metadatagram.obj
 0001:0001c510       ??0?$_Tree_val@U?$_Tree_simple_types@U?$pair@$$CBV?$basic_string@DU?$char_traits@D@std@@V?$allocator@D@2@@std@@V12@@std@@@std@@@std@@QEAA@XZ 000000014001d510 f i metadatagram.obj
 0001:0001c550       ??0?$_Vector_alloc@U?$_Vec_base_types@V?$basic_string@DU?$char_traits@D@std@@V?$allocator@D@2@@std@@V?$allocator@V?$basic_string@DU?$char_traits@D@std@@V?$allocator@D@2@@std@@@2@@std@@@std@@QEAA@XZ 000000014001d550 f i metadatagram.obj
 0001:0001c590       ??0?$_Vector_const_iterator@V?$_Vector_val@U?$_Simple_types@V?$basic_string@DU?$char_traits@D@std@@V?$allocator@D@2@@std@@@std@@@std@@@std@@QEAA@AEBV01@@Z 000000014001d590 f i metadatagram.obj
 0001:0001c5d0       ??0?$_Vector_const_iterator@V?$_Vector_val@U?$_Simple_types@V?$basic_string@DU?$char_traits@D@std@@V?$allocator@D@2@@std@@@std@@@std@@@std@@QEAA@PEAV?$basic_string@DU?$char_traits@D@std@@V?$allocator@D@2@@1@PEBU_Container_base12@1@@Z 000000014001d5d0 f i metadatagram.obj
 0001:0001c620       ??0?$_Vector_val@U?$_Simple_types@V?$basic_string@DU?$char_traits@D@std@@V?$allocator@D@2@@std@@@std@@@std@@QEAA@XZ 000000014001d620 f i metadatagram.obj
 0001:0001c670       ??0?$_Wrap_alloc@V?$allocator@U?$_Tree_node@U?$pair@$$CBV?$basic_string@DU?$char_traits@D@std@@V?$allocator@D@2@@std@@V12@@std@@PEAX@std@@@std@@@std@@QEAA@XZ 000000014001d670 f i metadatagram.obj
 0001:0001c690       ??0?$_Wrap_alloc@V?$allocator@V?$basic_string@DU?$char_traits@D@std@@V?$allocator@D@2@@std@@@std@@@std@@QEAA@$$QEAU01@@Z 000000014001d690 f i metadatagram.obj
 0001:0001c6c0       ??0?$_Wrap_alloc@V?$allocator@V?$basic_string@DU?$char_traits@D@std@@V?$allocator@D@2@@std@@@std@@@std@@QEAA@XZ 000000014001d6c0 f i metadatagram.obj
 0001:0001c6e0       ??0?$allocator@U?$_Tree_node@U?$pair@$$CBV?$basic_string@DU?$char_traits@D@std@@V?$allocator@D@2@@std@@V12@@std@@PEAX@std@@@std@@QEAA@XZ 000000014001d6e0 f i metadatagram.obj
 0001:0001c6f0       ??0?$allocator@V?$basic_string@DU?$char_traits@D@std@@V?$allocator@D@2@@std@@@std@@QEAA@AEBV01@@Z 000000014001d6f0 f i metadatagram.obj
 0001:0001c700       ??0?$allocator@V?$basic_string@DU?$char_traits@D@std@@V?$allocator@D@2@@std@@@std@@QEAA@XZ 000000014001d700 f i metadatagram.obj
 0001:0001c710       ??0?$basic_stringbuf@DU?$char_traits@D@std@@V?$allocator@D@2@@std@@QEAA@AEBV?$basic_string@DU?$char_traits@D@std@@V?$allocator@D@2@@1@H@Z 000000014001d710 f i metadatagram.obj
 0001:0001c7b0       ??0?$basic_stringstream@DU?$char_traits@D@std@@V?$allocator@D@2@@std@@QEAA@AEBV?$basic_string@DU?$char_traits@D@std@@V?$allocator@D@2@@1@H@Z 000000014001d7b0 f i metadatagram.obj
 0001:0001c8b0       ??0?$map@V?$basic_string@DU?$char_traits@D@std@@V?$allocator@D@2@@std@@V12@U?$less@V?$basic_string@DU?$char_traits@D@std@@V?$allocator@D@2@@std@@@2@V?$allocator@U?$pair@$$CBV?$basic_string@DU?$char_traits@D@std@@V?$allocator@D@2@@std@@V12@@std@@@2@@std@@QEAA@XZ 000000014001d8b0 f i metadatagram.obj
 0001:0001c8e0       ??0?$pair@$$CBV?$basic_string@DU?$char_traits@D@std@@V?$allocator@D@2@@std@@V12@@std@@QEAA@AEBU01@@Z 000000014001d8e0 f i metadatagram.obj
 0001:0001c930       ??0?$vector@V?$basic_string@DU?$char_traits@D@std@@V?$allocator@D@2@@std@@V?$allocator@V?$basic_string@DU?$char_traits@D@std@@V?$allocator@D@2@@std@@@2@@std@@QEAA@$$QEAV01@@Z 000000014001d930 f i metadatagram.obj
 0001:0001c9a0       ??0?$vector@V?$basic_string@DU?$char_traits@D@std@@V?$allocator@D@2@@std@@V?$allocator@V?$basic_string@DU?$char_traits@D@std@@V?$allocator@D@2@@std@@@2@@std@@QEAA@AEBV01@@Z 000000014001d9a0 f i metadatagram.obj
 0001:0001cab0       ??0?$vector@V?$basic_string@DU?$char_traits@D@std@@V?$allocator@D@2@@std@@V?$allocator@V?$basic_string@DU?$char_traits@D@std@@V?$allocator@D@2@@std@@@2@@std@@QEAA@XZ 000000014001dab0 f i metadatagram.obj
 0001:0001cae0       ??1?$_Compressed_pair@U?$_Wrap_alloc@V?$allocator@U?$_Tree_node@U?$pair@$$CBV?$basic_string@DU?$char_traits@D@std@@V?$allocator@D@2@@std@@V12@@std@@PEAX@std@@@std@@@std@@V?$_Tree_val@U?$_Tree_simple_types@U?$pair@$$CBV?$basic_string@DU?$char_traits@D@std@@V?$allocator@D@2@@std@@V12@@std@@@std@@@2@$00@std@@QEAA@XZ 000000014001dae0 f i metadatagram.obj
 0001:0001cb00       ??1?$_Compressed_pair@U?$_Wrap_alloc@V?$allocator@V?$basic_string@DU?$char_traits@D@std@@V?$allocator@D@2@@std@@@std@@@std@@V?$_Vector_val@U?$_Simple_types@V?$basic_string@DU?$char_traits@D@std@@V?$allocator@D@2@@std@@@std@@@2@$00@std@@QEAA@XZ 000000014001db00 f i metadatagram.obj
 0001:0001cb20       ??1?$_Compressed_pair@U?$less@V?$basic_string@DU?$char_traits@D@std@@V?$allocator@D@2@@std@@@std@@V?$_Compressed_pair@U?$_Wrap_alloc@V?$allocator@U?$_Tree_node@U?$pair@$$CBV?$basic_string@DU?$char_traits@D@std@@V?$allocator@D@2@@std@@V12@@std@@PEAX@std@@@std@@@std@@V?$_Tree_val@U?$_Tree_simple_types@U?$pair@$$CBV?$basic_string@DU?$char_traits@D@std@@V?$allocator@D@2@@std@@V12@@std@@@std@@@2@$00@2@$00@std@@QEAA@XZ 000000014001db20 f i metadatagram.obj
 0001:0001cb40       ??1?$_Iterator012@Ubidirectional_iterator_tag@std@@U?$pair@$$CBV?$basic_string@DU?$char_traits@D@std@@V?$allocator@D@2@@std@@V12@@2@_JPEBU32@AEBU32@U_Iterator_base12@2@@std@@QEAA@XZ 000000014001db40 f i metadatagram.obj
 0001:0001cb60       ??1?$_Iterator012@Urandom_access_iterator_tag@std@@V?$basic_string@DU?$char_traits@D@std@@V?$allocator@D@2@@2@_JPEBV32@AEBV32@U_Iterator_base12@2@@std@@QEAA@XZ 000000014001db60 f i metadatagram.obj
 0001:0001cb80       ??1?$_Tree@V?$_Tmap_traits@V?$basic_string@DU?$char_traits@D@std@@V?$allocator@D@2@@std@@V12@U?$less@V?$basic_string@DU?$char_traits@D@std@@V?$allocator@D@2@@std@@@2@V?$allocator@U?$pair@$$CBV?$basic_string@DU?$char_traits@D@std@@V?$allocator@D@2@@std@@V12@@std@@@2@$0A@@std@@@std@@QEAA@XZ 000000014001db80 f i metadatagram.obj
 0001:0001cbb0       ??1?$_Tree_comp_alloc@V?$_Tmap_traits@V?$basic_string@DU?$char_traits@D@std@@V?$allocator@D@2@@std@@V12@U?$less@V?$basic_string@DU?$char_traits@D@std@@V?$allocator@D@2@@std@@@2@V?$allocator@U?$pair@$$CBV?$basic_string@DU?$char_traits@D@std@@V?$allocator@D@2@@std@@V12@@std@@@2@$0A@@std@@@std@@QEAA@XZ 000000014001dbb0 f i metadatagram.obj
 0001:0001cc00       ??1?$_Tree_const_iterator@V?$_Tree_val@U?$_Tree_simple_types@U?$pair@$$CBV?$basic_string@DU?$char_traits@D@std@@V?$allocator@D@2@@std@@V12@@std@@@std@@@std@@@std@@QEAA@XZ 000000014001dc00 f i metadatagram.obj
 0001:0001cc20       ??1?$_Tree_iterator@V?$_Tree_val@U?$_Tree_simple_types@U?$pair@$$CBV?$basic_string@DU?$char_traits@D@std@@V?$allocator@D@2@@std@@V12@@std@@@std@@@std@@@std@@QEAA@XZ 000000014001dc20 f i metadatagram.obj
 0001:0001cc40       ??1?$_Tree_unchecked_const_iterator@V?$_Tree_val@U?$_Tree_simple_types@U?$pair@$$CBV?$basic_string@DU?$char_traits@D@std@@V?$allocator@D@2@@std@@V12@@std@@@std@@@std@@U_Iterator_base12@2@@std@@QEAA@XZ 000000014001dc40 f i metadatagram.obj
 0001:0001cc60       ??1?$_Tree_val@U?$_Tree_simple_types@U?$pair@$$CBV?$basic_string@DU?$char_traits@D@std@@V?$allocator@D@2@@std@@V12@@std@@@std@@@std@@QEAA@XZ 000000014001dc60 f i metadatagram.obj
 0001:0001cc80       ??1?$_Vector_alloc@U?$_Vec_base_types@V?$basic_string@DU?$char_traits@D@std@@V?$allocator@D@2@@std@@V?$allocator@V?$basic_string@DU?$char_traits@D@std@@V?$allocator@D@2@@std@@@2@@std@@@std@@QEAA@XZ 000000014001dc80 f i metadatagram.obj
 0001:0001ccb0       ??1?$_Vector_const_iterator@V?$_Vector_val@U?$_Simple_types@V?$basic_string@DU?$char_traits@D@std@@V?$allocator@D@2@@std@@@std@@@std@@@std@@QEAA@XZ 000000014001dcb0 f i metadatagram.obj
 0001:0001ccd0       ??1?$_Vector_val@U?$_Simple_types@V?$basic_string@DU?$char_traits@D@std@@V?$allocator@D@2@@std@@@std@@@std@@QEAA@XZ 000000014001dcd0 f i metadatagram.obj
 0001:0001ccf0       ??1?$map@V?$basic_string@DU?$char_traits@D@std@@V?$allocator@D@2@@std@@V12@U?$less@V?$basic_string@DU?$char_traits@D@std@@V?$allocator@D@2@@std@@@2@V?$allocator@U?$pair@$$CBV?$basic_string@DU?$char_traits@D@std@@V?$allocator@D@2@@std@@V12@@std@@@2@@std@@QEAA@XZ 000000014001dcf0 f i metadatagram.obj
 0001:0001cd10       ??1?$pair@$$CBV?$basic_string@DU?$char_traits@D@std@@V?$allocator@D@2@@std@@V12@@std@@QEAA@XZ 000000014001dd10 f i metadatagram.obj
 0001:0001cd40       ??1?$pair@V?$_Tree_iterator@V?$_Tree_val@U?$_Tree_simple_types@U?$pair@$$CBV?$basic_string@DU?$char_traits@D@std@@V?$allocator@D@2@@std@@V12@@std@@@std@@@std@@@std@@_N@std@@QEAA@XZ 000000014001dd40 f i metadatagram.obj
 0001:0001cd60       ??1?$pair@V?$basic_string@DU?$char_traits@D@std@@V?$allocator@D@2@@std@@V12@@std@@QEAA@XZ 000000014001dd60 f i metadatagram.obj
 0001:0001cd90       ??1?$vector@V?$basic_string@DU?$char_traits@D@std@@V?$allocator@D@2@@std@@V?$allocator@V?$basic_string@DU?$char_traits@D@std@@V?$allocator@D@2@@std@@@2@@std@@QEAA@XZ 000000014001dd90 f i metadatagram.obj
 0001:0001cdc0       ??4?$_Tree@V?$_Tmap_traits@V?$basic_string@DU?$char_traits@D@std@@V?$allocator@D@2@@std@@V12@U?$less@V?$basic_string@DU?$char_traits@D@std@@V?$allocator@D@2@@std@@@2@V?$allocator@U?$pair@$$CBV?$basic_string@DU?$char_traits@D@std@@V?$allocator@D@2@@std@@V12@@std@@@2@$0A@@std@@@std@@QEAAAEAV01@AEBV01@@Z 000000014001ddc0 f i metadatagram.obj
 0001:0001ce70       ??4?$basic_string@DU?$char_traits@D@std@@V?$allocator@D@2@@std@@QEAAAEAV01@AEBV01@@Z 000000014001de70 f i metadatagram.obj
 0001:0001cf00       ??4?$map@V?$basic_string@DU?$char_traits@D@std@@V?$allocator@D@2@@std@@V12@U?$less@V?$basic_string@DU?$char_traits@D@std@@V?$allocator@D@2@@std@@@2@V?$allocator@U?$pair@$$CBV?$basic_string@DU?$char_traits@D@std@@V?$allocator@D@2@@std@@V12@@std@@@2@@std@@QEAAAEAV01@AEBV01@@Z 000000014001df00 f i metadatagram.obj
 0001:0001cf30       ??8?$_Tree_const_iterator@V?$_Tree_val@U?$_Tree_simple_types@U?$pair@$$CBV?$basic_string@DU?$char_traits@D@std@@V?$allocator@D@2@@std@@V12@@std@@@std@@@std@@@std@@QEBA_NAEBV01@@Z 000000014001df30 f i metadatagram.obj
 0001:0001d030       ??9?$_Tree_const_iterator@V?$_Tree_val@U?$_Tree_simple_types@U?$pair@$$CBV?$basic_string@DU?$char_traits@D@std@@V?$allocator@D@2@@std@@V12@@std@@@std@@@std@@@std@@QEBA_NAEBV01@@Z 000000014001e030 f i metadatagram.obj
 0001:0001d070       ??A?$vector@V?$basic_string@DU?$char_traits@D@std@@V?$allocator@D@2@@std@@V?$allocator@V?$basic_string@DU?$char_traits@D@std@@V?$allocator@D@2@@std@@@2@@std@@QEAAAEAV?$basic_string@DU?$char_traits@D@std@@V?$allocator@D@2@@1@_K@Z 000000014001e070 f i metadatagram.obj
 0001:0001d140       ??C?$_Tree_const_iterator@V?$_Tree_val@U?$_Tree_simple_types@U?$pair@$$CBV?$basic_string@DU?$char_traits@D@std@@V?$allocator@D@2@@std@@V12@@std@@@std@@@std@@@std@@QEBAPEBU?$pair@$$CBV?$basic_string@DU?$char_traits@D@std@@V?$allocator@D@2@@std@@V12@@1@XZ 000000014001e140 f i metadatagram.obj
 0001:0001d160       ??D?$_Tree_const_iterator@V?$_Tree_val@U?$_Tree_simple_types@U?$pair@$$CBV?$basic_string@DU?$char_traits@D@std@@V?$allocator@D@2@@std@@V12@@std@@@std@@@std@@@std@@QEBAAEBU?$pair@$$CBV?$basic_string@DU?$char_traits@D@std@@V?$allocator@D@2@@std@@V12@@1@XZ 000000014001e160 f i metadatagram.obj
 0001:0001d250       ??E?$_Tree_const_iterator@V?$_Tree_val@U?$_Tree_simple_types@U?$pair@$$CBV?$basic_string@DU?$char_traits@D@std@@V?$allocator@D@2@@std@@V12@@std@@@std@@@std@@@std@@QEAA?AV01@H@Z 000000014001e250 f i metadatagram.obj
 0001:0001d2c0       ??E?$_Tree_const_iterator@V?$_Tree_val@U?$_Tree_simple_types@U?$pair@$$CBV?$basic_string@DU?$char_traits@D@std@@V?$allocator@D@2@@std@@V12@@std@@@std@@@std@@@std@@QEAAAEAV01@XZ 000000014001e2c0 f i metadatagram.obj
 0001:0001d3b0       ??E?$_Tree_unchecked_const_iterator@V?$_Tree_val@U?$_Tree_simple_types@U?$pair@$$CBV?$basic_string@DU?$char_traits@D@std@@V?$allocator@D@2@@std@@V12@@std@@@std@@@std@@U_Iterator_base12@2@@std@@QEAAAEAV01@XZ 000000014001e3b0 f i metadatagram.obj
 0001:0001d480       ??F?$_Tree_const_iterator@V?$_Tree_val@U?$_Tree_simple_types@U?$pair@$$CBV?$basic_string@DU?$char_traits@D@std@@V?$allocator@D@2@@std@@V12@@std@@@std@@@std@@@std@@QEAAAEAV01@XZ 000000014001e480 f i metadatagram.obj
 0001:0001d600       ??F?$_Tree_iterator@V?$_Tree_val@U?$_Tree_simple_types@U?$pair@$$CBV?$basic_string@DU?$char_traits@D@std@@V?$allocator@D@2@@std@@V12@@std@@@std@@@std@@@std@@QEAAAEAV01@XZ 000000014001e600 f i metadatagram.obj
 0001:0001d620       ??F?$_Tree_unchecked_const_iterator@V?$_Tree_val@U?$_Tree_simple_types@U?$pair@$$CBV?$basic_string@DU?$char_traits@D@std@@V?$allocator@D@2@@std@@V12@@std@@@std@@@std@@U_Iterator_base12@2@@std@@QEAAAEAV01@XZ 000000014001e620 f i metadatagram.obj
 0001:0001d720       ??R?$less@V?$basic_string@DU?$char_traits@D@std@@V?$allocator@D@2@@std@@@std@@QEBA_NAEBV?$basic_string@DU?$char_traits@D@std@@V?$allocator@D@2@@1@0@Z 000000014001e720 f i metadatagram.obj
 0001:0001d750       ??Y?$basic_string@DU?$char_traits@D@std@@V?$allocator@D@2@@std@@QEAAAEAV01@D@Z 000000014001e750 f i metadatagram.obj
 0001:0001d780       ??_G?$basic_string@DU?$char_traits@D@std@@V?$allocator@D@2@@std@@QEAAPEAXI@Z 000000014001e780 f i metadatagram.obj
 0001:0001d7c0       ??_G?$pair@$$CBV?$basic_string@DU?$char_traits@D@std@@V?$allocator@D@2@@std@@V12@@std@@QEAAPEAXI@Z 000000014001e7c0 f i metadatagram.obj
 0001:0001d800       ??_GMetaDatagram@@UEAAPEAXI@Z 000000014001e800 f i metadatagram.obj
 0001:0001d800       ??_EMetaDatagram@@UEAAPEAXI@Z 000000014001e800 f i metadatagram.obj
 0001:0001d840       ?_Alloc_proxy@?$_Tree_comp_alloc@V?$_Tmap_traits@V?$basic_string@DU?$char_traits@D@std@@V?$allocator@D@2@@std@@V12@U?$less@V?$basic_string@DU?$char_traits@D@std@@V?$allocator@D@2@@std@@@2@V?$allocator@U?$pair@$$CBV?$basic_string@DU?$char_traits@D@std@@V?$allocator@D@2@@std@@V12@@std@@@2@$0A@@std@@@std@@QEAAXXZ 000000014001e840 f i metadatagram.obj
 0001:0001d8f0       ?_Alloc_proxy@?$_Vector_alloc@U?$_Vec_base_types@V?$basic_string@DU?$char_traits@D@std@@V?$allocator@D@2@@std@@V?$allocator@V?$basic_string@DU?$char_traits@D@std@@V?$allocator@D@2@@std@@@2@@std@@@std@@QEAAXXZ 000000014001e8f0 f i metadatagram.obj
 0001:0001d9a0       ?_Assign_rv@?$vector@V?$basic_string@DU?$char_traits@D@std@@V?$allocator@D@2@@std@@V?$allocator@V?$basic_string@DU?$char_traits@D@std@@V?$allocator@D@2@@std@@@2@@std@@QEAAX$$QEAV12@U?$integral_constant@_N$00@2@@Z 000000014001e9a0 f i metadatagram.obj
 0001:0001da70       ?_Buy@?$vector@V?$basic_string@DU?$char_traits@D@std@@V?$allocator@D@2@@std@@V?$allocator@V?$basic_string@DU?$char_traits@D@std@@V?$allocator@D@2@@std@@@2@@std@@IEAA_N_K@Z 000000014001ea70 f i metadatagram.obj
 0001:0001db70       ?_Buyheadnode@?$_Tree_comp_alloc@V?$_Tmap_traits@V?$basic_string@DU?$char_traits@D@std@@V?$allocator@D@2@@std@@V12@U?$less@V?$basic_string@DU?$char_traits@D@std@@V?$allocator@D@2@@std@@@2@V?$allocator@U?$pair@$$CBV?$basic_string@DU?$char_traits@D@std@@V?$allocator@D@2@@std@@V12@@std@@@2@$0A@@std@@@std@@QEAAPEAU?$_Tree_node@U?$pair@$$CBV?$basic_string@DU?$char_traits@D@std@@V?$allocator@D@2@@std@@V12@@std@@PEAX@2@XZ 000000014001eb70 f i metadatagram.obj
 0001:0001dc80       ?_Buynode0@?$_Tree_comp_alloc@V?$_Tmap_traits@V?$basic_string@DU?$char_traits@D@std@@V?$allocator@D@2@@std@@V12@U?$less@V?$basic_string@DU?$char_traits@D@std@@V?$allocator@D@2@@std@@@2@V?$allocator@U?$pair@$$CBV?$basic_string@DU?$char_traits@D@std@@V?$allocator@D@2@@std@@V12@@std@@@2@$0A@@std@@@std@@QEAAPEAU?$_Tree_node@U?$pair@$$CBV?$basic_string@DU?$char_traits@D@std@@V?$allocator@D@2@@std@@V12@@std@@PEAX@2@XZ 000000014001ec80 f i metadatagram.obj
 0001:0001ddd0       ?_Color@?$_Tree_comp_alloc@V?$_Tmap_traits@V?$basic_string@DU?$char_traits@D@std@@V?$allocator@D@2@@std@@V12@U?$less@V?$basic_string@DU?$char_traits@D@std@@V?$allocator@D@2@@std@@@2@V?$allocator@U?$pair@$$CBV?$basic_string@DU?$char_traits@D@std@@V?$allocator@D@2@@std@@V12@@std@@@2@$0A@@std@@@std@@SAAEADPEAU?$_Tree_node@U?$pair@$$CBV?$basic_string@DU?$char_traits@D@std@@V?$allocator@D@2@@std@@V12@@std@@PEAX@2@@Z 000000014001edd0 f i metadatagram.obj
 0001:0001ddf0       ?_Color@?$_Tree_val@U?$_Tree_simple_types@U?$pair@$$CBV?$basic_string@DU?$char_traits@D@std@@V?$allocator@D@2@@std@@V12@@std@@@std@@@std@@SAAEADPEAU?$_Tree_node@U?$pair@$$CBV?$basic_string@DU?$char_traits@D@std@@V?$allocator@D@2@@std@@V12@@std@@PEAX@2@@Z 000000014001edf0 f i metadatagram.obj
 0001:0001de00       ?_Compare@?$_Tree@V?$_Tmap_traits@V?$basic_string@DU?$char_traits@D@std@@V?$allocator@D@2@@std@@V12@U?$less@V?$basic_string@DU?$char_traits@D@std@@V?$allocator@D@2@@std@@@2@V?$allocator@U?$pair@$$CBV?$basic_string@DU?$char_traits@D@std@@V?$allocator@D@2@@std@@V12@@std@@@2@$0A@@std@@@std@@IEBA_NAEBV?$basic_string@DU?$char_traits@D@std@@V?$allocator@D@2@@2@0@Z 000000014001ee00 f i metadatagram.obj
 0001:0001de50       ?_Construct@?$_Tree_comp_alloc@V?$_Tmap_traits@V?$basic_string@DU?$char_traits@D@std@@V?$allocator@D@2@@std@@V12@U?$less@V?$basic_string@DU?$char_traits@D@std@@V?$allocator@D@2@@std@@@2@V?$allocator@U?$pair@$$CBV?$basic_string@DU?$char_traits@D@std@@V?$allocator@D@2@@std@@V12@@std@@@2@$0A@@std@@@std@@QEAAXXZ 000000014001ee50 f i metadatagram.obj
 0001:0001dea0       ?_Construct@?$basic_string@DU?$char_traits@D@std@@V?$allocator@D@2@@std@@QEAAXPEAD0Urandom_access_iterator_tag@2@@Z 000000014001eea0 f i metadatagram.obj
 0001:0001def0       ?_Copy_alloc@?$_String_alloc@U?$_String_base_types@DV?$allocator@D@std@@@std@@@std@@QEAAXAEBU?$_Wrap_alloc@V?$allocator@D@std@@@2@@Z 000000014001eef0 f i metadatagram.obj
 0001:0001df30       ?_Copy_alloc@?$_Tree_comp_alloc@V?$_Tmap_traits@V?$basic_string@DU?$char_traits@D@std@@V?$allocator@D@2@@std@@V12@U?$less@V?$basic_string@DU?$char_traits@D@std@@V?$allocator@D@2@@std@@@2@V?$allocator@U?$pair@$$CBV?$basic_string@DU?$char_traits@D@std@@V?$allocator@D@2@@std@@V12@@std@@@2@$0A@@std@@@std@@QEAAXAEBU?$_Wrap_alloc@V?$allocator@U?$_Tree_node@U?$pair@$$CBV?$basic_string@DU?$char_traits@D@std@@V?$allocator@D@2@@std@@V12@@std@@PEAX@std@@@std@@@2@@Z 000000014001ef30 f i metadatagram.obj
 0001:0001df70       ?_Destroy@?$vector@V?$basic_string@DU?$char_traits@D@std@@V?$allocator@D@2@@std@@V?$allocator@V?$basic_string@DU?$char_traits@D@std@@V?$allocator@D@2@@std@@@2@@std@@IEAAXPEAV?$basic_string@DU?$char_traits@D@std@@V?$allocator@D@2@@2@0@Z 000000014001ef70 f i metadatagram.obj
 0001:0001dfb0       ?_Destroy_if_not_nil@?$_Tree@V?$_Tmap_traits@V?$basic_string@DU?$char_traits@D@std@@V?$allocator@D@2@@std@@V12@U?$less@V?$basic_string@DU?$char_traits@D@std@@V?$allocator@D@2@@std@@@2@V?$allocator@U?$pair@$$CBV?$basic_string@DU?$char_traits@D@std@@V?$allocator@D@2@@std@@V12@@std@@@2@$0A@@std@@@std@@IEAAXPEAU?$_Tree_node@U?$pair@$$CBV?$basic_string@DU?$char_traits@D@std@@V?$allocator@D@2@@std@@V12@@std@@PEAX@2@@Z 000000014001efb0 f i metadatagram.obj
 0001:0001e020       ?_Erase@?$_Tree@V?$_Tmap_traits@V?$basic_string@DU?$char_traits@D@std@@V?$allocator@D@2@@std@@V12@U?$less@V?$basic_string@DU?$char_traits@D@std@@V?$allocator@D@2@@std@@@2@V?$allocator@U?$pair@$$CBV?$basic_string@DU?$char_traits@D@std@@V?$allocator@D@2@@std@@V12@@std@@@2@$0A@@std@@@std@@IEAAXPEAU?$_Tree_node@U?$pair@$$CBV?$basic_string@DU?$char_traits@D@std@@V?$allocator@D@2@@std@@V12@@std@@PEAX@2@@Z 000000014001f020 f i metadatagram.obj
 0001:0001e0e0       ?_Free_proxy@?$_Tree_comp_alloc@V?$_Tmap_traits@V?$basic_string@DU?$char_traits@D@std@@V?$allocator@D@2@@std@@V12@U?$less@V?$basic_string@DU?$char_traits@D@std@@V?$allocator@D@2@@std@@@2@V?$allocator@U?$pair@$$CBV?$basic_string@DU?$char_traits@D@std@@V?$allocator@D@2@@std@@V12@@std@@@2@$0A@@std@@@std@@QEAAXXZ 000000014001f0e0 f i metadatagram.obj
 0001:0001e170       ?_Free_proxy@?$_Vector_alloc@U?$_Vec_base_types@V?$basic_string@DU?$char_traits@D@std@@V?$allocator@D@2@@std@@V?$allocator@V?$basic_string@DU?$char_traits@D@std@@V?$allocator@D@2@@std@@@2@@std@@@std@@QEAAXXZ 000000014001f170 f i metadatagram.obj
 0001:0001e200       ?_Freeheadnode@?$_Tree_comp_alloc@V?$_Tmap_traits@V?$basic_string@DU?$char_traits@D@std@@V?$allocator@D@2@@std@@V12@U?$less@V?$basic_string@DU?$char_traits@D@std@@V?$allocator@D@2@@std@@@2@V?$allocator@U?$pair@$$CBV?$basic_string@DU?$char_traits@D@std@@V?$allocator@D@2@@std@@V12@@std@@@2@$0A@@std@@@std@@QEAAXPEAU?$_Tree_node@U?$pair@$$CBV?$basic_string@DU?$char_traits@D@std@@V?$allocator@D@2@@std@@V12@@std@@PEAX@2@@Z 000000014001f200 f i metadatagram.obj
 0001:0001e2d0       ?_Freenode0@?$_Tree_comp_alloc@V?$_Tmap_traits@V?$basic_string@DU?$char_traits@D@std@@V?$allocator@D@2@@std@@V12@U?$less@V?$basic_string@DU?$char_traits@D@std@@V?$allocator@D@2@@std@@@2@V?$allocator@U?$pair@$$CBV?$basic_string@DU?$char_traits@D@std@@V?$allocator@D@2@@std@@V12@@std@@@2@$0A@@std@@@std@@QEAAXPEAU?$_Tree_node@U?$pair@$$CBV?$basic_string@DU?$char_traits@D@std@@V?$allocator@D@2@@std@@V12@@std@@PEAX@2@@Z 000000014001f2d0 f i metadatagram.obj
 0001:0001e3a0       ?_Get_data@?$_Tree_comp_alloc@V?$_Tmap_traits@V?$basic_string@DU?$char_traits@D@std@@V?$allocator@D@2@@std@@V12@U?$less@V?$basic_string@DU?$char_traits@D@std@@V?$allocator@D@2@@std@@@2@V?$allocator@U?$pair@$$CBV?$basic_string@DU?$char_traits@D@std@@V?$allocator@D@2@@std@@V12@@std@@@2@$0A@@std@@@std@@QEAAAEAV?$_Tree_val@U?$_Tree_simple_types@U?$pair@$$CBV?$basic_string@DU?$char_traits@D@std@@V?$allocator@D@2@@std@@V12@@std@@@std@@@2@XZ 000000014001f3a0 f i metadatagram.obj
 0001:0001e3d0       ?_Get_data@?$_Tree_comp_alloc@V?$_Tmap_traits@V?$basic_string@DU?$char_traits@D@std@@V?$allocator@D@2@@std@@V12@U?$less@V?$basic_string@DU?$char_traits@D@std@@V?$allocator@D@2@@std@@@2@V?$allocator@U?$pair@$$CBV?$basic_string@DU?$char_traits@D@std@@V?$allocator@D@2@@std@@V12@@std@@@2@$0A@@std@@@std@@QEBAAEBV?$_Tree_val@U?$_Tree_simple_types@U?$pair@$$CBV?$basic_string@DU?$char_traits@D@std@@V?$allocator@D@2@@std@@V12@@std@@@std@@@2@XZ 000000014001f3d0 f i metadatagram.obj
 0001:0001e400       ?_Get_data@?$_Vector_alloc@U?$_Vec_base_types@V?$basic_string@DU?$char_traits@D@std@@V?$allocator@D@2@@std@@V?$allocator@V?$basic_string@DU?$char_traits@D@std@@V?$allocator@D@2@@std@@@2@@std@@@std@@QEAAAEAV?$_Vector_val@U?$_Simple_types@V?$basic_string@DU?$char_traits@D@std@@V?$allocator@D@2@@std@@@std@@@2@XZ 000000014001f400 f i metadatagram.obj
 0001:0001e420       ?_Get_data@?$_Vector_alloc@U?$_Vec_base_types@V?$basic_string@DU?$char_traits@D@std@@V?$allocator@D@2@@std@@V?$allocator@V?$basic_string@DU?$char_traits@D@std@@V?$allocator@D@2@@std@@@2@@std@@@std@@QEBAAEBV?$_Vector_val@U?$_Simple_types@V?$basic_string@DU?$char_traits@D@std@@V?$allocator@D@2@@std@@@std@@@2@XZ 000000014001f420 f i metadatagram.obj
 0001:0001e440       ?_Get_first@?$_Compressed_pair@U?$_Wrap_alloc@V?$allocator@U?$_Tree_node@U?$pair@$$CBV?$basic_string@DU?$char_traits@D@std@@V?$allocator@D@2@@std@@V12@@std@@PEAX@std@@@std@@@std@@V?$_Tree_val@U?$_Tree_simple_types@U?$pair@$$CBV?$basic_string@DU?$char_traits@D@std@@V?$allocator@D@2@@std@@V12@@std@@@std@@@2@$00@std@@QEAAAEAU?$_Wrap_alloc@V?$allocator@U?$_Tree_node@U?$pair@$$CBV?$basic_string@DU?$char_traits@D@std@@V?$allocator@D@2@@std@@V12@@std@@PEAX@std@@@std@@@2@XZ 000000014001f440 f i metadatagram.obj
 0001:0001e450       ?_Get_first@?$_Compressed_pair@U?$_Wrap_alloc@V?$allocator@U?$_Tree_node@U?$pair@$$CBV?$basic_string@DU?$char_traits@D@std@@V?$allocator@D@2@@std@@V12@@std@@PEAX@std@@@std@@@std@@V?$_Tree_val@U?$_Tree_simple_types@U?$pair@$$CBV?$basic_string@DU?$char_traits@D@std@@V?$allocator@D@2@@std@@V12@@std@@@std@@@2@$00@std@@QEBAAEBU?$_Wrap_alloc@V?$allocator@U?$_Tree_node@U?$pair@$$CBV?$basic_string@DU?$char_traits@D@std@@V?$allocator@D@2@@std@@V12@@std@@PEAX@std@@@std@@@2@XZ 000000014001f450 f i metadatagram.obj
 0001:0001e460       ?_Get_first@?$_Compressed_pair@U?$_Wrap_alloc@V?$allocator@V?$basic_string@DU?$char_traits@D@std@@V?$allocator@D@2@@std@@@std@@@std@@V?$_Vector_val@U?$_Simple_types@V?$basic_string@DU?$char_traits@D@std@@V?$allocator@D@2@@std@@@std@@@2@$00@std@@QEAAAEAU?$_Wrap_alloc@V?$allocator@V?$basic_string@DU?$char_traits@D@std@@V?$allocator@D@2@@std@@@std@@@2@XZ 000000014001f460 f i metadatagram.obj
 0001:0001e470       ?_Get_first@?$_Compressed_pair@U?$_Wrap_alloc@V?$allocator@V?$basic_string@DU?$char_traits@D@std@@V?$allocator@D@2@@std@@@std@@@std@@V?$_Vector_val@U?$_Simple_types@V?$basic_string@DU?$char_traits@D@std@@V?$allocator@D@2@@std@@@std@@@2@$00@std@@QEBAAEBU?$_Wrap_alloc@V?$allocator@V?$basic_string@DU?$char_traits@D@std@@V?$allocator@D@2@@std@@@std@@@2@XZ 000000014001f470 f i metadatagram.obj
 0001:0001e480       ?_Get_first@?$_Compressed_pair@U?$less@V?$basic_string@DU?$char_traits@D@std@@V?$allocator@D@2@@std@@@std@@V?$_Compressed_pair@U?$_Wrap_alloc@V?$allocator@U?$_Tree_node@U?$pair@$$CBV?$basic_string@DU?$char_traits@D@std@@V?$allocator@D@2@@std@@V12@@std@@PEAX@std@@@std@@@std@@V?$_Tree_val@U?$_Tree_simple_types@U?$pair@$$CBV?$basic_string@DU?$char_traits@D@std@@V?$allocator@D@2@@std@@V12@@std@@@std@@@2@$00@2@$00@std@@QEAAAEAU?$less@V?$basic_string@DU?$char_traits@D@std@@V?$allocator@D@2@@std@@@2@XZ 000000014001f480 f i metadatagram.obj
 0001:0001e490       ?_Get_first@?$_Compressed_pair@U?$less@V?$basic_string@DU?$char_traits@D@std@@V?$allocator@D@2@@std@@@std@@V?$_Compressed_pair@U?$_Wrap_alloc@V?$allocator@U?$_Tree_node@U?$pair@$$CBV?$basic_string@DU?$char_traits@D@std@@V?$allocator@D@2@@std@@V12@@std@@PEAX@std@@@std@@@std@@V?$_Tree_val@U?$_Tree_simple_types@U?$pair@$$CBV?$basic_string@DU?$char_traits@D@std@@V?$allocator@D@2@@std@@V12@@std@@@std@@@2@$00@2@$00@std@@QEBAAEBU?$less@V?$basic_string@DU?$char_traits@D@std@@V?$allocator@D@2@@std@@@2@XZ 000000014001f490 f i metadatagram.obj
 0001:0001e4a0       ?_Get_second@?$_Compressed_pair@U?$_Wrap_alloc@V?$allocator@U?$_Tree_node@U?$pair@$$CBV?$basic_string@DU?$char_traits@D@std@@V?$allocator@D@2@@std@@V12@@std@@PEAX@std@@@std@@@std@@V?$_Tree_val@U?$_Tree_simple_types@U?$pair@$$CBV?$basic_string@DU?$char_traits@D@std@@V?$allocator@D@2@@std@@V12@@std@@@std@@@2@$00@std@@QEAAAEAV?$_Tree_val@U?$_Tree_simple_types@U?$pair@$$CBV?$basic_string@DU?$char_traits@D@std@@V?$allocator@D@2@@std@@V12@@std@@@std@@@2@XZ 000000014001f4a0 f i metadatagram.obj
 0001:0001e4b0       ?_Get_second@?$_Compressed_pair@U?$_Wrap_alloc@V?$allocator@U?$_Tree_node@U?$pair@$$CBV?$basic_string@DU?$char_traits@D@std@@V?$allocator@D@2@@std@@V12@@std@@PEAX@std@@@std@@@std@@V?$_Tree_val@U?$_Tree_simple_types@U?$pair@$$CBV?$basic_string@DU?$char_traits@D@std@@V?$allocator@D@2@@std@@V12@@std@@@std@@@2@$00@std@@QEBAAEBV?$_Tree_val@U?$_Tree_simple_types@U?$pair@$$CBV?$basic_string@DU?$char_traits@D@std@@V?$allocator@D@2@@std@@V12@@std@@@std@@@2@XZ 000000014001f4b0 f i metadatagram.obj
 0001:0001e4c0       ?_Get_second@?$_Compressed_pair@U?$_Wrap_alloc@V?$allocator@V?$basic_string@DU?$char_traits@D@std@@V?$allocator@D@2@@std@@@std@@@std@@V?$_Vector_val@U?$_Simple_types@V?$basic_string@DU?$char_traits@D@std@@V?$allocator@D@2@@std@@@std@@@2@$00@std@@QEAAAEAV?$_Vector_val@U?$_Simple_types@V?$basic_string@DU?$char_traits@D@std@@V?$allocator@D@2@@std@@@std@@@2@XZ 000000014001f4c0 f i metadatagram.obj
 0001:0001e4d0       ?_Get_second@?$_Compressed_pair@U?$_Wrap_alloc@V?$allocator@V?$basic_string@DU?$char_traits@D@std@@V?$allocator@D@2@@std@@@std@@@std@@V?$_Vector_val@U?$_Simple_types@V?$basic_string@DU?$char_traits@D@std@@V?$allocator@D@2@@std@@@std@@@2@$00@std@@QEBAAEBV?$_Vector_val@U?$_Simple_types@V?$basic_string@DU?$char_traits@D@std@@V?$allocator@D@2@@std@@@std@@@2@XZ 000000014001f4d0 f i metadatagram.obj
 0001:0001e4e0       ?_Get_second@?$_Compressed_pair@U?$less@V?$basic_string@DU?$char_traits@D@std@@V?$allocator@D@2@@std@@@std@@V?$_Compressed_pair@U?$_Wrap_alloc@V?$allocator@U?$_Tree_node@U?$pair@$$CBV?$basic_string@DU?$char_traits@D@std@@V?$allocator@D@2@@std@@V12@@std@@PEAX@std@@@std@@@std@@V?$_Tree_val@U?$_Tree_simple_types@U?$pair@$$CBV?$basic_string@DU?$char_traits@D@std@@V?$allocator@D@2@@std@@V12@@std@@@std@@@2@$00@2@$00@std@@QEAAAEAV?$_Compressed_pair@U?$_Wrap_alloc@V?$allocator@U?$_Tree_node@U?$pair@$$CBV?$basic_string@DU?$char_traits@D@std@@V?$allocator@D@2@@std@@V12@@std@@PEAX@std@@@std@@@std@@V?$_Tree_val@U?$_Tree_simple_types@U?$pair@$$CBV?$basic_string@DU?$char_traits@D@std@@V?$allocator@D@2@@std@@V12@@std@@@std@@@2@$00@2@XZ 000000014001f4e0 f i metadatagram.obj
 0001:0001e4f0       ?_Get_second@?$_Compressed_pair@U?$less@V?$basic_string@DU?$char_traits@D@std@@V?$allocator@D@2@@std@@@std@@V?$_Compressed_pair@U?$_Wrap_alloc@V?$allocator@U?$_Tree_node@U?$pair@$$CBV?$basic_string@DU?$char_traits@D@std@@V?$allocator@D@2@@std@@V12@@std@@PEAX@std@@@std@@@std@@V?$_Tree_val@U?$_Tree_simple_types@U?$pair@$$CBV?$basic_string@DU?$char_traits@D@std@@V?$allocator@D@2@@std@@V12@@std@@@std@@@2@$00@2@$00@std@@QEBAAEBV?$_Compressed_pair@U?$_Wrap_alloc@V?$allocator@U?$_Tree_node@U?$pair@$$CBV?$basic_string@DU?$char_traits@D@std@@V?$allocator@D@2@@std@@V12@@std@@PEAX@std@@@std@@@std@@V?$_Tree_val@U?$_Tree_simple_types@U?$pair@$$CBV?$basic_string@DU?$char_traits@D@std@@V?$allocator@D@2@@std@@V12@@std@@@std@@@2@$00@2@XZ 000000014001f4f0 f i metadatagram.obj
 0001:0001e500       ?_Getal@?$_Tree_comp_alloc@V?$_Tmap_traits@V?$basic_string@DU?$char_traits@D@std@@V?$allocator@D@2@@std@@V12@U?$less@V?$basic_string@DU?$char_traits@D@std@@V?$allocator@D@2@@std@@@2@V?$allocator@U?$pair@$$CBV?$basic_string@DU?$char_traits@D@std@@V?$allocator@D@2@@std@@V12@@std@@@2@$0A@@std@@@std@@QEAAAEAU?$_Wrap_alloc@V?$allocator@U?$_Tree_node@U?$pair@$$CBV?$basic_string@DU?$char_traits@D@std@@V?$allocator@D@2@@std@@V12@@std@@PEAX@std@@@std@@@2@XZ 000000014001f500 f i metadatagram.obj
 0001:0001e530       ?_Getal@?$_Tree_comp_alloc@V?$_Tmap_traits@V?$basic_string@DU?$char_traits@D@std@@V?$allocator@D@2@@std@@V12@U?$less@V?$basic_string@DU?$char_traits@D@std@@V?$allocator@D@2@@std@@@2@V?$allocator@U?$pair@$$CBV?$basic_string@DU?$char_traits@D@std@@V?$allocator@D@2@@std@@V12@@std@@@2@$0A@@std@@@std@@QEBAAEBU?$_Wrap_alloc@V?$allocator@U?$_Tree_node@U?$pair@$$CBV?$basic_string@DU?$char_traits@D@std@@V?$allocator@D@2@@std@@V12@@std@@PEAX@std@@@std@@@2@XZ 000000014001f530 f i metadatagram.obj
 0001:0001e560       ?_Getal@?$_Vector_alloc@U?$_Vec_base_types@V?$basic_string@DU?$char_traits@D@std@@V?$allocator@D@2@@std@@V?$allocator@V?$basic_string@DU?$char_traits@D@std@@V?$allocator@D@2@@std@@@2@@std@@@std@@QEAAAEAU?$_Wrap_alloc@V?$allocator@V?$basic_string@DU?$char_traits@D@std@@V?$allocator@D@2@@std@@@std@@@2@XZ 000000014001f560 f i metadatagram.obj
 0001:0001e580       ?_Getal@?$_Vector_alloc@U?$_Vec_base_types@V?$basic_string@DU?$char_traits@D@std@@V?$allocator@D@2@@std@@V?$allocator@V?$basic_string@DU?$char_traits@D@std@@V?$allocator@D@2@@std@@@2@@std@@@std@@QEBAAEBU?$_Wrap_alloc@V?$allocator@V?$basic_string@DU?$char_traits@D@std@@V?$allocator@D@2@@std@@@std@@@2@XZ 000000014001f580 f i metadatagram.obj
 0001:0001e5a0       ?_Getcomp@?$_Tree_comp_alloc@V?$_Tmap_traits@V?$basic_string@DU?$char_traits@D@std@@V?$allocator@D@2@@std@@V12@U?$less@V?$basic_string@DU?$char_traits@D@std@@V?$allocator@D@2@@std@@@2@V?$allocator@U?$pair@$$CBV?$basic_string@DU?$char_traits@D@std@@V?$allocator@D@2@@std@@V12@@std@@@2@$0A@@std@@@std@@QEAAAEAU?$less@V?$basic_string@DU?$char_traits@D@std@@V?$allocator@D@2@@std@@@2@XZ 000000014001f5a0 f i metadatagram.obj
 0001:0001e5c0       ?_Getcomp@?$_Tree_comp_alloc@V?$_Tmap_traits@V?$basic_string@DU?$char_traits@D@std@@V?$allocator@D@2@@std@@V12@U?$less@V?$basic_string@DU?$char_traits@D@std@@V?$allocator@D@2@@std@@@2@V?$allocator@U?$pair@$$CBV?$basic_string@DU?$char_traits@D@std@@V?$allocator@D@2@@std@@V12@@std@@@2@$0A@@std@@@std@@QEBAAEBU?$less@V?$basic_string@DU?$char_traits@D@std@@V?$allocator@D@2@@std@@@2@XZ 000000014001f5c0 f i metadatagram.obj
 0001:0001e5e0       ?_Getpfirst@?$_Tree_comp_alloc@V?$_Tmap_traits@V?$basic_string@DU?$char_traits@D@std@@V?$allocator@D@2@@std@@V12@U?$less@V?$basic_string@DU?$char_traits@D@std@@V?$allocator@D@2@@std@@@2@V?$allocator@U?$pair@$$CBV?$basic_string@DU?$char_traits@D@std@@V?$allocator@D@2@@std@@V12@@std@@@2@$0A@@std@@@std@@QEBAPEAPEAU_Iterator_base12@2@XZ 000000014001f5e0 f i metadatagram.obj
 0001:0001e600       ?_Getpfirst@?$_Vector_alloc@U?$_Vec_base_types@V?$basic_string@DU?$char_traits@D@std@@V?$allocator@D@2@@std@@V?$allocator@V?$basic_string@DU?$char_traits@D@std@@V?$allocator@D@2@@std@@@2@@std@@@std@@QEBAPEAPEAU_Iterator_base12@2@XZ 000000014001f600 f i metadatagram.obj
 0001:0001e620       ?_Grow_to@?$vector@V?$basic_string@DU?$char_traits@D@std@@V?$allocator@D@2@@std@@V?$allocator@V?$basic_string@DU?$char_traits@D@std@@V?$allocator@D@2@@std@@@2@@std@@IEBA_K_K@Z 000000014001f620 f i metadatagram.obj
 0001:0001e6d0       ?_Inside@?$vector@V?$basic_string@DU?$char_traits@D@std@@V?$allocator@D@2@@std@@V?$allocator@V?$basic_string@DU?$char_traits@D@std@@V?$allocator@D@2@@std@@@2@@std@@IEBA_NPEBV?$basic_string@DU?$char_traits@D@std@@V?$allocator@D@2@@2@@Z 000000014001f6d0 f i metadatagram.obj
 0001:0001e730       ?_Isnil@?$_Tree_comp_alloc@V?$_Tmap_traits@V?$basic_string@DU?$char_traits@D@std@@V?$allocator@D@2@@std@@V12@U?$less@V?$basic_string@DU?$char_traits@D@std@@V?$allocator@D@2@@std@@@2@V?$allocator@U?$pair@$$CBV?$basic_string@DU?$char_traits@D@std@@V?$allocator@D@2@@std@@V12@@std@@@2@$0A@@std@@@std@@SAAEADPEAU?$_Tree_node@U?$pair@$$CBV?$basic_string@DU?$char_traits@D@std@@V?$allocator@D@2@@std@@V12@@std@@PEAX@2@@Z 000000014001f730 f i metadatagram.obj
 0001:0001e750       ?_Isnil@?$_Tree_val@U?$_Tree_simple_types@U?$pair@$$CBV?$basic_string@DU?$char_traits@D@std@@V?$allocator@D@2@@std@@V12@@std@@@std@@@std@@SAAEADPEAU?$_Tree_node@U?$pair@$$CBV?$basic_string@DU?$char_traits@D@std@@V?$allocator@D@2@@std@@V12@@std@@PEAX@2@@Z 000000014001f750 f i metadatagram.obj
 0001:0001e760       ?_Key@?$_Tree@V?$_Tmap_traits@V?$basic_string@DU?$char_traits@D@std@@V?$allocator@D@2@@std@@V12@U?$less@V?$basic_string@DU?$char_traits@D@std@@V?$allocator@D@2@@std@@@2@V?$allocator@U?$pair@$$CBV?$basic_string@DU?$char_traits@D@std@@V?$allocator@D@2@@std@@V12@@std@@@2@$0A@@std@@@std@@IEBAAEBV?$basic_string@DU?$char_traits@D@std@@V?$allocator@D@2@@2@PEAU?$_Tree_node@U?$pair@$$CBV?$basic_string@DU?$char_traits@D@std@@V?$allocator@D@2@@std@@V12@@std@@PEAX@2@@Z 000000014001f760 f i metadatagram.obj
 0001:0001e790       ?_Kfn@?$_Tree@V?$_Tmap_traits@V?$basic_string@DU?$char_traits@D@std@@V?$allocator@D@2@@std@@V12@U?$less@V?$basic_string@DU?$char_traits@D@std@@V?$allocator@D@2@@std@@@2@V?$allocator@U?$pair@$$CBV?$basic_string@DU?$char_traits@D@std@@V?$allocator@D@2@@std@@V12@@std@@@2@$0A@@std@@@std@@IEBAAEBV?$basic_string@DU?$char_traits@D@std@@V?$allocator@D@2@@2@AEBU?$pair@$$CBV?$basic_string@DU?$char_traits@D@std@@V?$allocator@D@2@@std@@V12@@2@@Z 000000014001f790 f i metadatagram.obj
 0001:0001e7b0       ?_Left@?$_Tree_comp_alloc@V?$_Tmap_traits@V?$basic_string@DU?$char_traits@D@std@@V?$allocator@D@2@@std@@V12@U?$less@V?$basic_string@DU?$char_traits@D@std@@V?$allocator@D@2@@std@@@2@V?$allocator@U?$pair@$$CBV?$basic_string@DU?$char_traits@D@std@@V?$allocator@D@2@@std@@V12@@std@@@2@$0A@@std@@@std@@SAAEAPEAU?$_Tree_node@U?$pair@$$CBV?$basic_string@DU?$char_traits@D@std@@V?$allocator@D@2@@std@@V12@@std@@PEAX@2@PEAU32@@Z 000000014001f7b0 f i metadatagram.obj
 0001:0001e7d0       ?_Left@?$_Tree_val@U?$_Tree_simple_types@U?$pair@$$CBV?$basic_string@DU?$char_traits@D@std@@V?$allocator@D@2@@std@@V12@@std@@@std@@@std@@SAAEAPEAU?$_Tree_node@U?$pair@$$CBV?$basic_string@DU?$char_traits@D@std@@V?$allocator@D@2@@std@@V12@@std@@PEAX@2@PEAU32@@Z 000000014001f7d0 f i metadatagram.obj
 0001:0001e7e0       ?_Lmost@?$_Tree@V?$_Tmap_traits@V?$basic_string@DU?$char_traits@D@std@@V?$allocator@D@2@@std@@V12@U?$less@V?$basic_string@DU?$char_traits@D@std@@V?$allocator@D@2@@std@@@2@V?$allocator@U?$pair@$$CBV?$basic_string@DU?$char_traits@D@std@@V?$allocator@D@2@@std@@V12@@std@@@2@$0A@@std@@@std@@IEBAAEAPEAU?$_Tree_node@U?$pair@$$CBV?$basic_string@DU?$char_traits@D@std@@V?$allocator@D@2@@std@@V12@@std@@PEAX@2@XZ 000000014001f7e0 f i metadatagram.obj
 0001:0001e800       ?_Lrotate@?$_Tree@V?$_Tmap_traits@V?$basic_string@DU?$char_traits@D@std@@V?$allocator@D@2@@std@@V12@U?$less@V?$basic_string@DU?$char_traits@D@std@@V?$allocator@D@2@@std@@@2@V?$allocator@U?$pair@$$CBV?$basic_string@DU?$char_traits@D@std@@V?$allocator@D@2@@std@@V12@@std@@@2@$0A@@std@@@std@@IEAAXPEAU?$_Tree_node@U?$pair@$$CBV?$basic_string@DU?$char_traits@D@std@@V?$allocator@D@2@@std@@V12@@std@@PEAX@2@@Z 000000014001f800 f i metadatagram.obj
 0001:0001e940       ?_Max@?$_Tree_comp_alloc@V?$_Tmap_traits@V?$basic_string@DU?$char_traits@D@std@@V?$allocator@D@2@@std@@V12@U?$less@V?$basic_string@DU?$char_traits@D@std@@V?$allocator@D@2@@std@@@2@V?$allocator@U?$pair@$$CBV?$basic_string@DU?$char_traits@D@std@@V?$allocator@D@2@@std@@V12@@std@@@2@$0A@@std@@@std@@SAPEAU?$_Tree_node@U?$pair@$$CBV?$basic_string@DU?$char_traits@D@std@@V?$allocator@D@2@@std@@V12@@std@@PEAX@2@PEAU32@@Z 000000014001f940 f i metadatagram.obj
 0001:0001e960       ?_Max@?$_Tree_val@U?$_Tree_simple_types@U?$pair@$$CBV?$basic_string@DU?$char_traits@D@std@@V?$allocator@D@2@@std@@V12@@std@@@std@@@std@@SAPEAU?$_Tree_node@U?$pair@$$CBV?$basic_string@DU?$char_traits@D@std@@V?$allocator@D@2@@std@@V12@@std@@PEAX@2@PEAU32@@Z 000000014001f960 f i metadatagram.obj
 0001:0001e9a0       ?_Min@?$_Tree_comp_alloc@V?$_Tmap_traits@V?$basic_string@DU?$char_traits@D@std@@V?$allocator@D@2@@std@@V12@U?$less@V?$basic_string@DU?$char_traits@D@std@@V?$allocator@D@2@@std@@@2@V?$allocator@U?$pair@$$CBV?$basic_string@DU?$char_traits@D@std@@V?$allocator@D@2@@std@@V12@@std@@@2@$0A@@std@@@std@@SAPEAU?$_Tree_node@U?$pair@$$CBV?$basic_string@DU?$char_traits@D@std@@V?$allocator@D@2@@std@@V12@@std@@PEAX@2@PEAU32@@Z 000000014001f9a0 f i metadatagram.obj
 0001:0001e9c0       ?_Min@?$_Tree_val@U?$_Tree_simple_types@U?$pair@$$CBV?$basic_string@DU?$char_traits@D@std@@V?$allocator@D@2@@std@@V12@@std@@@std@@@std@@SAPEAU?$_Tree_node@U?$pair@$$CBV?$basic_string@DU?$char_traits@D@std@@V?$allocator@D@2@@std@@V12@@std@@PEAX@2@PEAU32@@Z 000000014001f9c0 f i metadatagram.obj
 0001:0001ea00       ?_Myend@?$_Vector_alloc@U?$_Vec_base_types@V?$basic_string@DU?$char_traits@D@std@@V?$allocator@D@2@@std@@V?$allocator@V?$basic_string@DU?$char_traits@D@std@@V?$allocator@D@2@@std@@@2@@std@@@std@@QEAAAEAPEAV?$basic_string@DU?$char_traits@D@std@@V?$allocator@D@2@@2@XZ 000000014001fa00 f i metadatagram.obj
 0001:0001ea20       ?_Myend@?$_Vector_alloc@U?$_Vec_base_types@V?$basic_string@DU?$char_traits@D@std@@V?$allocator@D@2@@std@@V?$allocator@V?$basic_string@DU?$char_traits@D@std@@V?$allocator@D@2@@std@@@2@@std@@@std@@QEBAAEBQEAV?$basic_string@DU?$char_traits@D@std@@V?$allocator@D@2@@2@XZ 000000014001fa20 f i metadatagram.obj
 0001:0001ea40       ?_Myfirst@?$_Vector_alloc@U?$_Vec_base_types@V?$basic_string@DU?$char_traits@D@std@@V?$allocator@D@2@@std@@V?$allocator@V?$basic_string@DU?$char_traits@D@std@@V?$allocator@D@2@@std@@@2@@std@@@std@@QEAAAEAPEAV?$basic_string@DU?$char_traits@D@std@@V?$allocator@D@2@@2@XZ 000000014001fa40 f i metadatagram.obj
 0001:0001ea60       ?_Myfirst@?$_Vector_alloc@U?$_Vec_base_types@V?$basic_string@DU?$char_traits@D@std@@V?$allocator@D@2@@std@@V?$allocator@V?$basic_string@DU?$char_traits@D@std@@V?$allocator@D@2@@std@@@2@@std@@@std@@QEBAAEBQEAV?$basic_string@DU?$char_traits@D@std@@V?$allocator@D@2@@2@XZ 000000014001fa60 f i metadatagram.obj
 0001:0001ea80       ?_Myhead@?$_Tree_comp_alloc@V?$_Tmap_traits@V?$basic_string@DU?$char_traits@D@std@@V?$allocator@D@2@@std@@V12@U?$less@V?$basic_string@DU?$char_traits@D@std@@V?$allocator@D@2@@std@@@2@V?$allocator@U?$pair@$$CBV?$basic_string@DU?$char_traits@D@std@@V?$allocator@D@2@@std@@V12@@std@@@2@$0A@@std@@@std@@QEAAAEAPEAU?$_Tree_node@U?$pair@$$CBV?$basic_string@DU?$char_traits@D@std@@V?$allocator@D@2@@std@@V12@@std@@PEAX@2@XZ 000000014001fa80 f i metadatagram.obj
 0001:0001eaa0       ?_Myhead@?$_Tree_comp_alloc@V?$_Tmap_traits@V?$basic_string@DU?$char_traits@D@std@@V?$allocator@D@2@@std@@V12@U?$less@V?$basic_string@DU?$char_traits@D@std@@V?$allocator@D@2@@std@@@2@V?$allocator@U?$pair@$$CBV?$basic_string@DU?$char_traits@D@std@@V?$allocator@D@2@@std@@V12@@std@@@2@$0A@@std@@@std@@QEBAAEBQEAU?$_Tree_node@U?$pair@$$CBV?$basic_string@DU?$char_traits@D@std@@V?$allocator@D@2@@std@@V12@@std@@PEAX@2@XZ 000000014001faa0 f i metadatagram.obj
 0001:0001eac0       ?_Mylast@?$_Vector_alloc@U?$_Vec_base_types@V?$basic_string@DU?$char_traits@D@std@@V?$allocator@D@2@@std@@V?$allocator@V?$basic_string@DU?$char_traits@D@std@@V?$allocator@D@2@@std@@@2@@std@@@std@@QEAAAEAPEAV?$basic_string@DU?$char_traits@D@std@@V?$allocator@D@2@@2@XZ 000000014001fac0 f i metadatagram.obj
 0001:0001eae0       ?_Mylast@?$_Vector_alloc@U?$_Vec_base_types@V?$basic_string@DU?$char_traits@D@std@@V?$allocator@D@2@@std@@V?$allocator@V?$basic_string@DU?$char_traits@D@std@@V?$allocator@D@2@@std@@@2@@std@@@std@@QEBAAEBQEAV?$basic_string@DU?$char_traits@D@std@@V?$allocator@D@2@@2@XZ 000000014001fae0 f i metadatagram.obj
 0001:0001eb00       ?_Mynode@?$_Tree_unchecked_const_iterator@V?$_Tree_val@U?$_Tree_simple_types@U?$pair@$$CBV?$basic_string@DU?$char_traits@D@std@@V?$allocator@D@2@@std@@V12@@std@@@std@@@std@@U_Iterator_base12@2@@std@@QEBAPEAU?$_Tree_node@U?$pair@$$CBV?$basic_string@DU?$char_traits@D@std@@V?$allocator@D@2@@std@@V12@@std@@PEAX@2@XZ 000000014001fb00 f i metadatagram.obj
 0001:0001eb10       ?_Myproxy@?$_Tree_comp_alloc@V?$_Tmap_traits@V?$basic_string@DU?$char_traits@D@std@@V?$allocator@D@2@@std@@V12@U?$less@V?$basic_string@DU?$char_traits@D@std@@V?$allocator@D@2@@std@@@2@V?$allocator@U?$pair@$$CBV?$basic_string@DU?$char_traits@D@std@@V?$allocator@D@2@@std@@V12@@std@@@2@$0A@@std@@@std@@QEAAAEAPEAU_Container_proxy@2@XZ 000000014001fb10 f i metadatagram.obj
 0001:0001eb30       ?_Myproxy@?$_Vector_alloc@U?$_Vec_base_types@V?$basic_string@DU?$char_traits@D@std@@V?$allocator@D@2@@std@@V?$allocator@V?$basic_string@DU?$char_traits@D@std@@V?$allocator@D@2@@std@@@2@@std@@@std@@QEAAAEAPEAU_Container_proxy@2@XZ 000000014001fb30 f i metadatagram.obj
 0001:0001eb50       ?_Mysize@?$_Tree_comp_alloc@V?$_Tmap_traits@V?$basic_string@DU?$char_traits@D@std@@V?$allocator@D@2@@std@@V12@U?$less@V?$basic_string@DU?$char_traits@D@std@@V?$allocator@D@2@@std@@@2@V?$allocator@U?$pair@$$CBV?$basic_string@DU?$char_traits@D@std@@V?$allocator@D@2@@std@@V12@@std@@@2@$0A@@std@@@std@@QEAAAEA_KXZ 000000014001fb50 f i metadatagram.obj
 0001:0001eb70       ?_Mysize@?$_Tree_comp_alloc@V?$_Tmap_traits@V?$basic_string@DU?$char_traits@D@std@@V?$allocator@D@2@@std@@V12@U?$less@V?$basic_string@DU?$char_traits@D@std@@V?$allocator@D@2@@std@@@2@V?$allocator@U?$pair@$$CBV?$basic_string@DU?$char_traits@D@std@@V?$allocator@D@2@@std@@V12@@std@@@2@$0A@@std@@@std@@QEBAAEB_KXZ 000000014001fb70 f i metadatagram.obj
 0001:0001eb90       ?_Myval@?$_Tree_comp_alloc@V?$_Tmap_traits@V?$basic_string@DU?$char_traits@D@std@@V?$allocator@D@2@@std@@V12@U?$less@V?$basic_string@DU?$char_traits@D@std@@V?$allocator@D@2@@std@@@2@V?$allocator@U?$pair@$$CBV?$basic_string@DU?$char_traits@D@std@@V?$allocator@D@2@@std@@V12@@std@@@2@$0A@@std@@@std@@SAAEAU?$pair@$$CBV?$basic_string@DU?$char_traits@D@std@@V?$allocator@D@2@@std@@V12@@2@PEAU?$_Tree_node@U?$pair@$$CBV?$basic_string@DU?$char_traits@D@std@@V?$allocator@D@2@@std@@V12@@std@@PEAX@2@@Z 000000014001fb90 f i metadatagram.obj
 0001:0001ebb0       ?_Myval@?$_Tree_val@U?$_Tree_simple_types@U?$pair@$$CBV?$basic_string@DU?$char_traits@D@std@@V?$allocator@D@2@@std@@V12@@std@@@std@@@std@@SAAEAU?$pair@$$CBV?$basic_string@DU?$char_traits@D@std@@V?$allocator@D@2@@std@@V12@@2@PEAU?$_Tree_node@U?$pair@$$CBV?$basic_string@DU?$char_traits@D@std@@V?$allocator@D@2@@std@@V12@@std@@PEAX@2@@Z 000000014001fbb0 f i metadatagram.obj
 0001:0001ebc0       ?_Orphan_all@?$_Tree_comp_alloc@V?$_Tmap_traits@V?$basic_string@DU?$char_traits@D@std@@V?$allocator@D@2@@std@@V12@U?$less@V?$basic_string@DU?$char_traits@D@std@@V?$allocator@D@2@@std@@@2@V?$allocator@U?$pair@$$CBV?$basic_string@DU?$char_traits@D@std@@V?$allocator@D@2@@std@@V12@@std@@@2@$0A@@std@@@std@@QEAAXXZ 000000014001fbc0 f i metadatagram.obj
 0001:0001ebe0       ?_Orphan_all@?$_Vector_alloc@U?$_Vec_base_types@V?$basic_string@DU?$char_traits@D@std@@V?$allocator@D@2@@std@@V?$allocator@V?$basic_string@DU?$char_traits@D@std@@V?$allocator@D@2@@std@@@2@@std@@@std@@QEAAXXZ 000000014001fbe0 f i metadatagram.obj
 0001:0001ec00       ?_Orphan_ptr@?$_Tree@V?$_Tmap_traits@V?$basic_string@DU?$char_traits@D@std@@V?$allocator@D@2@@std@@V12@U?$less@V?$basic_string@DU?$char_traits@D@std@@V?$allocator@D@2@@std@@@2@V?$allocator@U?$pair@$$CBV?$basic_string@DU?$char_traits@D@std@@V?$allocator@D@2@@std@@V12@@std@@@2@$0A@@std@@@std@@IEAAXPEAU?$_Tree_node@U?$pair@$$CBV?$basic_string@DU?$char_traits@D@std@@V?$allocator@D@2@@std@@V12@@std@@PEAX@2@@Z 000000014001fc00 f i metadatagram.obj
 0001:0001ece0       ?_Orphan_range@?$vector@V?$basic_string@DU?$char_traits@D@std@@V?$allocator@D@2@@std@@V?$allocator@V?$basic_string@DU?$char_traits@D@std@@V?$allocator@D@2@@std@@@2@@std@@IEBAXPEAV?$basic_string@DU?$char_traits@D@std@@V?$allocator@D@2@@2@0@Z 000000014001fce0 f i metadatagram.obj
 0001:0001eda0       ?_Parent@?$_Tree_comp_alloc@V?$_Tmap_traits@V?$basic_string@DU?$char_traits@D@std@@V?$allocator@D@2@@std@@V12@U?$less@V?$basic_string@DU?$char_traits@D@std@@V?$allocator@D@2@@std@@@2@V?$allocator@U?$pair@$$CBV?$basic_string@DU?$char_traits@D@std@@V?$allocator@D@2@@std@@V12@@std@@@2@$0A@@std@@@std@@SAAEAPEAU?$_Tree_node@U?$pair@$$CBV?$basic_string@DU?$char_traits@D@std@@V?$allocator@D@2@@std@@V12@@std@@PEAX@2@PEAU32@@Z 000000014001fda0 f i metadatagram.obj
 0001:0001edc0       ?_Parent@?$_Tree_val@U?$_Tree_simple_types@U?$pair@$$CBV?$basic_string@DU?$char_traits@D@std@@V?$allocator@D@2@@std@@V12@@std@@@std@@@std@@SAAEAPEAU?$_Tree_node@U?$pair@$$CBV?$basic_string@DU?$char_traits@D@std@@V?$allocator@D@2@@std@@V12@@std@@PEAX@2@PEAU32@@Z 000000014001fdc0 f i metadatagram.obj
 0001:0001edd0       ?_Reallocate@?$vector@V?$basic_string@DU?$char_traits@D@std@@V?$allocator@D@2@@std@@V?$allocator@V?$basic_string@DU?$char_traits@D@std@@V?$allocator@D@2@@std@@@2@@std@@IEAAX_K@Z 000000014001fdd0 f i metadatagram.obj
 0001:0001efa0       ?_Reserve@?$vector@V?$basic_string@DU?$char_traits@D@std@@V?$allocator@D@2@@std@@V?$allocator@V?$basic_string@DU?$char_traits@D@std@@V?$allocator@D@2@@std@@@2@@std@@IEAAX_K@Z 000000014001ffa0 f i metadatagram.obj
 0001:0001f030       ?_Right@?$_Tree_comp_alloc@V?$_Tmap_traits@V?$basic_string@DU?$char_traits@D@std@@V?$allocator@D@2@@std@@V12@U?$less@V?$basic_string@DU?$char_traits@D@std@@V?$allocator@D@2@@std@@@2@V?$allocator@U?$pair@$$CBV?$basic_string@DU?$char_traits@D@std@@V?$allocator@D@2@@std@@V12@@std@@@2@$0A@@std@@@std@@SAAEAPEAU?$_Tree_node@U?$pair@$$CBV?$basic_string@DU?$char_traits@D@std@@V?$allocator@D@2@@std@@V12@@std@@PEAX@2@PEAU32@@Z 0000000140020030 f i metadatagram.obj
 0001:0001f050       ?_Right@?$_Tree_val@U?$_Tree_simple_types@U?$pair@$$CBV?$basic_string@DU?$char_traits@D@std@@V?$allocator@D@2@@std@@V12@@std@@@std@@@std@@SAAEAPEAU?$_Tree_node@U?$pair@$$CBV?$basic_string@DU?$char_traits@D@std@@V?$allocator@D@2@@std@@V12@@std@@PEAX@2@PEAU32@@Z 0000000140020050 f i metadatagram.obj
 0001:0001f060       ?_Rmost@?$_Tree@V?$_Tmap_traits@V?$basic_string@DU?$char_traits@D@std@@V?$allocator@D@2@@std@@V12@U?$less@V?$basic_string@DU?$char_traits@D@std@@V?$allocator@D@2@@std@@@2@V?$allocator@U?$pair@$$CBV?$basic_string@DU?$char_traits@D@std@@V?$allocator@D@2@@std@@V12@@std@@@2@$0A@@std@@@std@@IEBAAEAPEAU?$_Tree_node@U?$pair@$$CBV?$basic_string@DU?$char_traits@D@std@@V?$allocator@D@2@@std@@V12@@std@@PEAX@2@XZ 0000000140020060 f i metadatagram.obj
 0001:0001f080       ?_Root@?$_Tree@V?$_Tmap_traits@V?$basic_string@DU?$char_traits@D@std@@V?$allocator@D@2@@std@@V12@U?$less@V?$basic_string@DU?$char_traits@D@std@@V?$allocator@D@2@@std@@@2@V?$allocator@U?$pair@$$CBV?$basic_string@DU?$char_traits@D@std@@V?$allocator@D@2@@std@@V12@@std@@@2@$0A@@std@@@std@@IEBAAEAPEAU?$_Tree_node@U?$pair@$$CBV?$basic_string@DU?$char_traits@D@std@@V?$allocator@D@2@@std@@V12@@std@@PEAX@2@XZ 0000000140020080 f i metadatagram.obj
 0001:0001f0a0       ?_Rrotate@?$_Tree@V?$_Tmap_traits@V?$basic_string@DU?$char_traits@D@std@@V?$allocator@D@2@@std@@V12@U?$less@V?$basic_string@DU?$char_traits@D@std@@V?$allocator@D@2@@std@@@2@V?$allocator@U?$pair@$$CBV?$basic_string@DU?$char_traits@D@std@@V?$allocator@D@2@@std@@V12@@std@@@2@$0A@@std@@@std@@IEAAXPEAU?$_Tree_node@U?$pair@$$CBV?$basic_string@DU?$char_traits@D@std@@V?$allocator@D@2@@std@@V12@@std@@PEAX@2@@Z 00000001400200a0 f i metadatagram.obj
 0001:0001f1e0       ?_Swap_all@?$_Vector_alloc@U?$_Vec_base_types@V?$basic_string@DU?$char_traits@D@std@@V?$allocator@D@2@@std@@V?$allocator@V?$basic_string@DU?$char_traits@D@std@@V?$allocator@D@2@@std@@@2@@std@@@std@@QEAAXAEAV12@@Z 00000001400201e0 f i metadatagram.obj
 0001:0001f220       ?_Tidy@?$_Tree@V?$_Tmap_traits@V?$basic_string@DU?$char_traits@D@std@@V?$allocator@D@2@@std@@V12@U?$less@V?$basic_string@DU?$char_traits@D@std@@V?$allocator@D@2@@std@@@2@V?$allocator@U?$pair@$$CBV?$basic_string@DU?$char_traits@D@std@@V?$allocator@D@2@@std@@V12@@std@@@2@$0A@@std@@@std@@IEAAXXZ 0000000140020220 f i metadatagram.obj
 0001:0001f320       ?_Tidy@?$vector@V?$basic_string@DU?$char_traits@D@std@@V?$allocator@D@2@@std@@V?$allocator@V?$basic_string@DU?$char_traits@D@std@@V?$allocator@D@2@@std@@@2@@std@@IEAAXXZ 0000000140020320 f i metadatagram.obj
 0001:0001f420       ?_Traits_compare@?$basic_string@DU?$char_traits@D@std@@V?$allocator@D@2@@std@@SAHQEBD_K01@Z 0000000140020420 f i metadatagram.obj
 0001:0001f4c0       ?_Unchecked@?$_Vector_const_iterator@V?$_Vector_val@U?$_Simple_types@V?$basic_string@DU?$char_traits@D@std@@V?$allocator@D@2@@std@@@std@@@std@@@std@@QEBAPEBV?$basic_string@DU?$char_traits@D@std@@V?$allocator@D@2@@2@XZ 00000001400204c0 f i metadatagram.obj
 0001:0001f4d0       ?_Unused_capacity@?$vector@V?$basic_string@DU?$char_traits@D@std@@V?$allocator@D@2@@std@@V?$allocator@V?$basic_string@DU?$char_traits@D@std@@V?$allocator@D@2@@std@@@2@@std@@QEBA_KXZ 00000001400204d0 f i metadatagram.obj
 0001:0001f520       ?_Xlen@?$vector@V?$basic_string@DU?$char_traits@D@std@@V?$allocator@D@2@@std@@V?$allocator@V?$basic_string@DU?$char_traits@D@std@@V?$allocator@D@2@@std@@@2@@std@@IEBAXXZ 0000000140020520 f i metadatagram.obj
 0001:0001f540       ?_Xran@?$vector@V?$basic_string@DU?$char_traits@D@std@@V?$allocator@D@2@@std@@V?$allocator@V?$basic_string@DU?$char_traits@D@std@@V?$allocator@D@2@@std@@@2@@std@@IEBAXXZ 0000000140020540 f i metadatagram.obj
 0001:0001f560       ?allocate@?$_Wrap_alloc@V?$allocator@U?$_Tree_node@U?$pair@$$CBV?$basic_string@DU?$char_traits@D@std@@V?$allocator@D@2@@std@@V12@@std@@PEAX@std@@@std@@@std@@QEAAPEAU?$_Tree_node@U?$pair@$$CBV?$basic_string@DU?$char_traits@D@std@@V?$allocator@D@2@@std@@V12@@std@@PEAX@2@_K@Z 0000000140020560 f i metadatagram.obj
 0001:0001f590       ?allocate@?$_Wrap_alloc@V?$allocator@V?$basic_string@DU?$char_traits@D@std@@V?$allocator@D@2@@std@@@std@@@std@@QEAAPEAV?$basic_string@DU?$char_traits@D@std@@V?$allocator@D@2@@2@_K@Z 0000000140020590 f i metadatagram.obj
 0001:0001f5c0       ?allocate@?$allocator@U?$_Tree_node@U?$pair@$$CBV?$basic_string@DU?$char_traits@D@std@@V?$allocator@D@2@@std@@V12@@std@@PEAX@std@@@std@@QEAAPEAU?$_Tree_node@U?$pair@$$CBV?$basic_string@DU?$char_traits@D@std@@V?$allocator@D@2@@std@@V12@@std@@PEAX@2@_K@Z 00000001400205c0 f i metadatagram.obj
 0001:0001f5f0       ?allocate@?$allocator@V?$basic_string@DU?$char_traits@D@std@@V?$allocator@D@2@@std@@@std@@QEAAPEAV?$basic_string@DU?$char_traits@D@std@@V?$allocator@D@2@@2@_K@Z 00000001400205f0 f i metadatagram.obj
 0001:0001f620       ?append@?$basic_string@DU?$char_traits@D@std@@V?$allocator@D@2@@std@@QEAAAEAV12@AEBV12@@Z 0000000140020620 f i metadatagram.obj
 0001:0001f650       ?append@?$basic_string@DU?$char_traits@D@std@@V?$allocator@D@2@@std@@QEAAAEAV12@AEBV12@_K1@Z 0000000140020650 f i metadatagram.obj
 0001:0001f760       ?append@?$basic_string@DU?$char_traits@D@std@@V?$allocator@D@2@@std@@QEAAAEAV12@PEBD@Z 0000000140020760 f i metadatagram.obj
 0001:0001f7b0       ?append@?$basic_string@DU?$char_traits@D@std@@V?$allocator@D@2@@std@@QEAAAEAV12@PEBD_K@Z 00000001400207b0 f i metadatagram.obj
 0001:0001f8f0       ?assign@?$basic_string@DU?$char_traits@D@std@@V?$allocator@D@2@@std@@QEAAAEAV12@AEBV12@@Z 00000001400208f0 f i metadatagram.obj
 0001:0001f920       ?at@?$vector@V?$basic_string@DU?$char_traits@D@std@@V?$allocator@D@2@@std@@V?$allocator@V?$basic_string@DU?$char_traits@D@std@@V?$allocator@D@2@@std@@@2@@std@@QEAAAEAV?$basic_string@DU?$char_traits@D@std@@V?$allocator@D@2@@2@_K@Z 0000000140020920 f i metadatagram.obj
 0001:0001f970       ?begin@?$_Tree@V?$_Tmap_traits@V?$basic_string@DU?$char_traits@D@std@@V?$allocator@D@2@@std@@V12@U?$less@V?$basic_string@DU?$char_traits@D@std@@V?$allocator@D@2@@std@@@2@V?$allocator@U?$pair@$$CBV?$basic_string@DU?$char_traits@D@std@@V?$allocator@D@2@@std@@V12@@std@@@2@$0A@@std@@@std@@QEAA?AV?$_Tree_iterator@V?$_Tree_val@U?$_Tree_simple_types@U?$pair@$$CBV?$basic_string@DU?$char_traits@D@std@@V?$allocator@D@2@@std@@V12@@std@@@std@@@std@@@2@XZ 0000000140020970 f i metadatagram.obj
 0001:0001f9d0       ?begin@?$vector@V?$basic_string@DU?$char_traits@D@std@@V?$allocator@D@2@@std@@V?$allocator@V?$basic_string@DU?$char_traits@D@std@@V?$allocator@D@2@@std@@@2@@std@@QEBA?AV?$_Vector_const_iterator@V?$_Vector_val@U?$_Simple_types@V?$basic_string@DU?$char_traits@D@std@@V?$allocator@D@2@@std@@@std@@@std@@@2@XZ 00000001400209d0 f i metadatagram.obj
 0001:0001fa30       ?capacity@?$vector@V?$basic_string@DU?$char_traits@D@std@@V?$allocator@D@2@@std@@V?$allocator@V?$basic_string@DU?$char_traits@D@std@@V?$allocator@D@2@@std@@@2@@std@@QEBA_KXZ 0000000140020a30 f i metadatagram.obj
 0001:0001fa80       ?clear@?$_Tree@V?$_Tmap_traits@V?$basic_string@DU?$char_traits@D@std@@V?$allocator@D@2@@std@@V12@U?$less@V?$basic_string@DU?$char_traits@D@std@@V?$allocator@D@2@@std@@@2@V?$allocator@U?$pair@$$CBV?$basic_string@DU?$char_traits@D@std@@V?$allocator@D@2@@std@@V12@@std@@@2@$0A@@std@@@std@@QEAAXXZ 0000000140020a80 f i metadatagram.obj
 0001:0001fb50       ?compare@?$basic_string@DU?$char_traits@D@std@@V?$allocator@D@2@@std@@QEBAHAEBV12@@Z 0000000140020b50 f i metadatagram.obj
 0001:0001fbd0       ?compare@?$char_traits@D@std@@SAHPEBD0_K@Z 0000000140020bd0 f i metadatagram.obj
 0001:0001fc20       ?deallocate@?$_Wrap_alloc@V?$allocator@U?$_Tree_node@U?$pair@$$CBV?$basic_string@DU?$char_traits@D@std@@V?$allocator@D@2@@std@@V12@@std@@PEAX@std@@@std@@@std@@QEAAXPEAU?$_Tree_node@U?$pair@$$CBV?$basic_string@DU?$char_traits@D@std@@V?$allocator@D@2@@std@@V12@@std@@PEAX@2@_K@Z 0000000140020c20 f i metadatagram.obj
 0001:0001fc50       ?deallocate@?$_Wrap_alloc@V?$allocator@V?$basic_string@DU?$char_traits@D@std@@V?$allocator@D@2@@std@@@std@@@std@@QEAAXPEAV?$basic_string@DU?$char_traits@D@std@@V?$allocator@D@2@@2@_K@Z 0000000140020c50 f i metadatagram.obj
 0001:0001fc80       ?deallocate@?$allocator@U?$_Tree_node@U?$pair@$$CBV?$basic_string@DU?$char_traits@D@std@@V?$allocator@D@2@@std@@V12@@std@@PEAX@std@@@std@@QEAAXPEAU?$_Tree_node@U?$pair@$$CBV?$basic_string@DU?$char_traits@D@std@@V?$allocator@D@2@@std@@V12@@std@@PEAX@2@_K@Z 0000000140020c80 f i metadatagram.obj
 0001:0001fcb0       ?deallocate@?$allocator@V?$basic_string@DU?$char_traits@D@std@@V?$allocator@D@2@@std@@@std@@QEAAXPEAV?$basic_string@DU?$char_traits@D@std@@V?$allocator@D@2@@2@_K@Z 0000000140020cb0 f i metadatagram.obj
 0001:0001fce0       ?end@?$_Tree@V?$_Tmap_traits@V?$basic_string@DU?$char_traits@D@std@@V?$allocator@D@2@@std@@V12@U?$less@V?$basic_string@DU?$char_traits@D@std@@V?$allocator@D@2@@std@@@2@V?$allocator@U?$pair@$$CBV?$basic_string@DU?$char_traits@D@std@@V?$allocator@D@2@@std@@V12@@std@@@2@$0A@@std@@@std@@QEAA?AV?$_Tree_iterator@V?$_Tree_val@U?$_Tree_simple_types@U?$pair@$$CBV?$basic_string@DU?$char_traits@D@std@@V?$allocator@D@2@@std@@V12@@std@@@std@@@std@@@2@XZ 0000000140020ce0 f i metadatagram.obj
 0001:0001fd40       ?end@?$_Tree@V?$_Tmap_traits@V?$basic_string@DU?$char_traits@D@std@@V?$allocator@D@2@@std@@V12@U?$less@V?$basic_string@DU?$char_traits@D@std@@V?$allocator@D@2@@std@@@2@V?$allocator@U?$pair@$$CBV?$basic_string@DU?$char_traits@D@std@@V?$allocator@D@2@@std@@V12@@std@@@2@$0A@@std@@@std@@QEBA?AV?$_Tree_const_iterator@V?$_Tree_val@U?$_Tree_simple_types@U?$pair@$$CBV?$basic_string@DU?$char_traits@D@std@@V?$allocator@D@2@@std@@V12@@std@@@std@@@std@@@2@XZ 0000000140020d40 f i metadatagram.obj
 0001:0001fda0       ?end@?$vector@V?$basic_string@DU?$char_traits@D@std@@V?$allocator@D@2@@std@@V?$allocator@V?$basic_string@DU?$char_traits@D@std@@V?$allocator@D@2@@std@@@2@@std@@QEBA?AV?$_Vector_const_iterator@V?$_Vector_val@U?$_Simple_types@V?$basic_string@DU?$char_traits@D@std@@V?$allocator@D@2@@std@@@std@@@std@@@2@XZ 0000000140020da0 f i metadatagram.obj
 0001:0001fe00       ?erase@?$_Tree@V?$_Tmap_traits@V?$basic_string@DU?$char_traits@D@std@@V?$allocator@D@2@@std@@V12@U?$less@V?$basic_string@DU?$char_traits@D@std@@V?$allocator@D@2@@std@@@2@V?$allocator@U?$pair@$$CBV?$basic_string@DU?$char_traits@D@std@@V?$allocator@D@2@@std@@V12@@std@@@2@$0A@@std@@@std@@QEAA?AV?$_Tree_iterator@V?$_Tree_val@U?$_Tree_simple_types@U?$pair@$$CBV?$basic_string@DU?$char_traits@D@std@@V?$allocator@D@2@@std@@V12@@std@@@std@@@std@@@2@V?$_Tree_const_iterator@V?$_Tree_val@U?$_Tree_simple_types@U?$pair@$$CBV?$basic_string@DU?$char_traits@D@std@@V?$allocator@D@2@@std@@V12@@std@@@std@@@std@@@2@0@Z 0000000140020e00 f i metadatagram.obj
 0001:00020060       ?erase@?$_Tree@V?$_Tmap_traits@V?$basic_string@DU?$char_traits@D@std@@V?$allocator@D@2@@std@@V12@U?$less@V?$basic_string@DU?$char_traits@D@std@@V?$allocator@D@2@@std@@@2@V?$allocator@U?$pair@$$CBV?$basic_string@DU?$char_traits@D@std@@V?$allocator@D@2@@std@@V12@@std@@@2@$0A@@std@@@std@@QEAA?AV?$_Tree_iterator@V?$_Tree_val@U?$_Tree_simple_types@U?$pair@$$CBV?$basic_string@DU?$char_traits@D@std@@V?$allocator@D@2@@std@@V12@@std@@@std@@@std@@@2@V?$_Tree_const_iterator@V?$_Tree_val@U?$_Tree_simple_types@U?$pair@$$CBV?$basic_string@DU?$char_traits@D@std@@V?$allocator@D@2@@std@@V12@@std@@@std@@@std@@@2@@Z 0000000140021060 f i metadatagram.obj
 0001:00020950       ?find@?$_Tree@V?$_Tmap_traits@V?$basic_string@DU?$char_traits@D@std@@V?$allocator@D@2@@std@@V12@U?$less@V?$basic_string@DU?$char_traits@D@std@@V?$allocator@D@2@@std@@@2@V?$allocator@U?$pair@$$CBV?$basic_string@DU?$char_traits@D@std@@V?$allocator@D@2@@std@@V12@@std@@@2@$0A@@std@@@std@@QEBA?AV?$_Tree_const_iterator@V?$_Tree_val@U?$_Tree_simple_types@U?$pair@$$CBV?$basic_string@DU?$char_traits@D@std@@V?$allocator@D@2@@std@@V12@@std@@@std@@@std@@@2@AEBV?$basic_string@DU?$char_traits@D@std@@V?$allocator@D@2@@2@@Z 0000000140021950 f i metadatagram.obj
 0001:00020b60       ?lower_bound@?$_Tree@V?$_Tmap_traits@V?$basic_string@DU?$char_traits@D@std@@V?$allocator@D@2@@std@@V12@U?$less@V?$basic_string@DU?$char_traits@D@std@@V?$allocator@D@2@@std@@@2@V?$allocator@U?$pair@$$CBV?$basic_string@DU?$char_traits@D@std@@V?$allocator@D@2@@std@@V12@@std@@@2@$0A@@std@@@std@@QEBA?AV?$_Tree_const_iterator@V?$_Tree_val@U?$_Tree_simple_types@U?$pair@$$CBV?$basic_string@DU?$char_traits@D@std@@V?$allocator@D@2@@std@@V12@@std@@@std@@@std@@@2@AEBV?$basic_string@DU?$char_traits@D@std@@V?$allocator@D@2@@2@@Z 0000000140021b60 f i metadatagram.obj
 0001:00020bd0       ?max_size@?$_Tree@V?$_Tmap_traits@V?$basic_string@DU?$char_traits@D@std@@V?$allocator@D@2@@std@@V12@U?$less@V?$basic_string@DU?$char_traits@D@std@@V?$allocator@D@2@@std@@@2@V?$allocator@U?$pair@$$CBV?$basic_string@DU?$char_traits@D@std@@V?$allocator@D@2@@std@@V12@@std@@@2@$0A@@std@@@std@@QEBA_KXZ 0000000140021bd0 f i metadatagram.obj
 0001:00020c00       ?max_size@?$_Wrap_alloc@V?$allocator@U?$_Tree_node@U?$pair@$$CBV?$basic_string@DU?$char_traits@D@std@@V?$allocator@D@2@@std@@V12@@std@@PEAX@std@@@std@@@std@@QEBA_KU_Nil@2@@Z 0000000140021c00 f i metadatagram.obj
 0001:00020c20       ?max_size@?$_Wrap_alloc@V?$allocator@V?$basic_string@DU?$char_traits@D@std@@V?$allocator@D@2@@std@@@std@@@std@@QEBA_KU_Nil@2@@Z 0000000140021c20 f i metadatagram.obj
 0001:00020c40       ?max_size@?$allocator@U?$_Tree_node@U?$pair@$$CBV?$basic_string@DU?$char_traits@D@std@@V?$allocator@D@2@@std@@V12@@std@@PEAX@std@@@std@@QEBA_KXZ 0000000140021c40 f i metadatagram.obj
 0001:00020c50       ?max_size@?$allocator@V?$basic_string@DU?$char_traits@D@std@@V?$allocator@D@2@@std@@@std@@QEBA_KXZ 0000000140021c50 f i metadatagram.obj
 0001:00020c60       ?max_size@?$allocator_traits@V?$allocator@U?$_Tree_node@U?$pair@$$CBV?$basic_string@DU?$char_traits@D@std@@V?$allocator@D@2@@std@@V12@@std@@PEAX@std@@@std@@@std@@SA_KAEBV?$allocator@U?$_Tree_node@U?$pair@$$CBV?$basic_string@DU?$char_traits@D@std@@V?$allocator@D@2@@std@@V12@@std@@PEAX@std@@@2@@Z 0000000140021c60 f i metadatagram.obj
 0001:00020c80       ?max_size@?$allocator_traits@V?$allocator@V?$basic_string@DU?$char_traits@D@std@@V?$allocator@D@2@@std@@@std@@@std@@SA_KAEBV?$allocator@V?$basic_string@DU?$char_traits@D@std@@V?$allocator@D@2@@std@@@2@@Z 0000000140021c80 f i metadatagram.obj
 0001:00020ca0       ?max_size@?$vector@V?$basic_string@DU?$char_traits@D@std@@V?$allocator@D@2@@std@@V?$allocator@V?$basic_string@DU?$char_traits@D@std@@V?$allocator@D@2@@std@@@2@@std@@QEBA_KXZ 0000000140021ca0 f i metadatagram.obj
 0001:00020cd0       ?pointer_to@?$pointer_traits@PEBU?$pair@$$CBV?$basic_string@DU?$char_traits@D@std@@V?$allocator@D@2@@std@@V12@@std@@@std@@SAPEBU?$pair@$$CBV?$basic_string@DU?$char_traits@D@std@@V?$allocator@D@2@@std@@V12@@2@AEBU32@@Z 0000000140021cd0 f i metadatagram.obj
 0001:00020cf0       ?push_back@?$vector@V?$basic_string@DU?$char_traits@D@std@@V?$allocator@D@2@@std@@V?$allocator@V?$basic_string@DU?$char_traits@D@std@@V?$allocator@D@2@@std@@@2@@std@@QEAAXAEBV?$basic_string@DU?$char_traits@D@std@@V?$allocator@D@2@@2@@Z 0000000140021cf0 f i metadatagram.obj
 0001:00020f50       ?select_on_container_copy_construction@?$_Wrap_alloc@V?$allocator@V?$basic_string@DU?$char_traits@D@std@@V?$allocator@D@2@@std@@@std@@@std@@QEBA?AU12@U_Nil@2@@Z 0000000140021f50 f i metadatagram.obj
 0001:00020f90       ?select_on_container_copy_construction@?$allocator_traits@V?$allocator@V?$basic_string@DU?$char_traits@D@std@@V?$allocator@D@2@@std@@@std@@@std@@SA?AV?$allocator@V?$basic_string@DU?$char_traits@D@std@@V?$allocator@D@2@@std@@@2@AEBV32@@Z 0000000140021f90 f i metadatagram.obj
 0001:00020fc0       ?size@?$_Tree@V?$_Tmap_traits@V?$basic_string@DU?$char_traits@D@std@@V?$allocator@D@2@@std@@V12@U?$less@V?$basic_string@DU?$char_traits@D@std@@V?$allocator@D@2@@std@@@2@V?$allocator@U?$pair@$$CBV?$basic_string@DU?$char_traits@D@std@@V?$allocator@D@2@@std@@V12@@std@@@2@$0A@@std@@@std@@QEBA_KXZ 0000000140021fc0 f i metadatagram.obj
 0001:00020fe0       ?size@?$vector@V?$basic_string@DU?$char_traits@D@std@@V?$allocator@D@2@@std@@V?$allocator@V?$basic_string@DU?$char_traits@D@std@@V?$allocator@D@2@@std@@@2@@std@@QEBA_KXZ 0000000140021fe0 f i metadatagram.obj
 0001:00021030       ?to_string@std@@YA?AV?$basic_string@DU?$char_traits@D@std@@V?$allocator@D@2@@1@H@Z 0000000140022030 f i metadatagram.obj
 0001:00021070       ??0ParserManager@@QEAA@XZ  0000000140022070 f   parsermanager.obj
 0001:00021090       ??1ParserManager@@QEAA@XZ  0000000140022090 f   parsermanager.obj
 0001:000210a0       ?readDatagram@ParserManager@@QEAAXAEBUXsByteArray@@@Z 00000001400220a0 f   parsermanager.obj
 0001:00021150       ?createDgram@ParserManager@@AEAAPEAVDatagram@@W4StreamingProtocol@@@Z 0000000140022150 f   parsermanager.obj
 0001:000215b0       ??_GDatagram@@QEAAPEAXI@Z  00000001400225b0 f i parsermanager.obj
 0001:000215f0       ??0PositionDatagram@@QEAA@XZ 00000001400225f0 f   positiondatagram.obj
 0001:00021650       ??1PositionDatagram@@UEAA@XZ 0000000140022650 f   positiondatagram.obj
 0001:00021690       ?printData@PositionDatagram@@UEBAXXZ 0000000140022690 f   positiondatagram.obj
 0001:000216b0       ?deserializeData@PositionDatagram@@MEAAXAEAVStreamer@@@Z 00000001400226b0 f   positiondatagram.obj
 0001:000217d0       ?alignData@PositionDatagram@@QEBA?AV?$vector@MV?$allocator@M@std@@@std@@XZ 00000001400227d0 f   positiondatagram.obj
 0001:00021960       ?streamData@PositionDatagram@@QEBAXXZ 0000000140022960 f   positiondatagram.obj
 0001:000219d0       ??$?0$$V@?$_Compressed_pair@U?$_Wrap_alloc@V?$allocator@UVirtualMarkerSet@PositionDatagram@@@std@@@std@@V?$_Vector_val@U?$_Simple_types@UVirtualMarkerSet@PositionDatagram@@@std@@@2@$00@std@@QEAA@U_Zero_then_variadic_args_t@1@@Z 00000001400229d0 f i positiondatagram.obj
 0001:00021a00       ??$?0AEAU?$_Wrap_alloc@V?$allocator@UVirtualMarkerSet@PositionDatagram@@@std@@@std@@@?$_Wrap_alloc@V?$allocator@U_Container_proxy@std@@@std@@@std@@QEAA@AEAU?$_Wrap_alloc@V?$allocator@UVirtualMarkerSet@PositionDatagram@@@std@@@1@@Z 0000000140022a00 f i positiondatagram.obj
 0001:00021a30       ??$?0UVirtualMarkerSet@PositionDatagram@@@?$allocator@U_Container_proxy@std@@@std@@QEAA@AEBV?$allocator@UVirtualMarkerSet@PositionDatagram@@@1@@Z 0000000140022a30 f i positiondatagram.obj
 0001:00021a40       ??$_Copy_memmove@PEAUVirtualMarkerSet@PositionDatagram@@PEAU12@@std@@YAPEAUVirtualMarkerSet@PositionDatagram@@PEAU12@00@Z 0000000140022a40 f i positiondatagram.obj
 0001:00021ab0       ??$_Destroy_range1@V?$allocator@UVirtualMarkerSet@PositionDatagram@@@std@@PEAUVirtualMarkerSet@PositionDatagram@@@std@@YAXPEAUVirtualMarkerSet@PositionDatagram@@0AEAU?$_Wrap_alloc@V?$allocator@UVirtualMarkerSet@PositionDatagram@@@std@@@0@U?$integral_constant@_N$00@0@@Z 0000000140022ab0 f i positiondatagram.obj
 0001:00021ad0       ??$_Destroy_range@V?$allocator@UVirtualMarkerSet@PositionDatagram@@@std@@PEAUVirtualMarkerSet@PositionDatagram@@@std@@YAXPEAUVirtualMarkerSet@PositionDatagram@@0AEAU?$_Wrap_alloc@V?$allocator@UVirtualMarkerSet@PositionDatagram@@@std@@@0@@Z 0000000140022ad0 f i positiondatagram.obj
 0001:00021b10       ??$_Ptr_move_cat@UVirtualMarkerSet@PositionDatagram@@U12@@std@@YA?AU_Really_trivial_ptr_iterator_tag@0@AEBQEAUVirtualMarkerSet@PositionDatagram@@0@Z 0000000140022b10 f i positiondatagram.obj
 0001:00021b30       ??$_Rechecked@PEAUVirtualMarkerSet@PositionDatagram@@PEAU12@@std@@YAAEAPEAUVirtualMarkerSet@PositionDatagram@@AEAPEAU12@PEAU12@@Z 0000000140022b30 f i positiondatagram.obj
 0001:00021b50       ??$_Umove@PEAUVirtualMarkerSet@PositionDatagram@@@?$vector@UVirtualMarkerSet@PositionDatagram@@V?$allocator@UVirtualMarkerSet@PositionDatagram@@@std@@@std@@IEAAPEAUVirtualMarkerSet@PositionDatagram@@PEAU23@00@Z 0000000140022b50 f i positiondatagram.obj
 0001:00021b90       ??$_Unchecked@PEAUVirtualMarkerSet@PositionDatagram@@@std@@YAPEAUVirtualMarkerSet@PositionDatagram@@PEAU12@@Z 0000000140022b90 f i positiondatagram.obj
 0001:00021ba0       ??$_Unfancy@UVirtualMarkerSet@PositionDatagram@@@std@@YAPEAUVirtualMarkerSet@PositionDatagram@@PEAU12@@Z 0000000140022ba0 f i positiondatagram.obj
 0001:00021bb0       ??$_Uninitialized_move@PEAUVirtualMarkerSet@PositionDatagram@@PEAU12@V?$allocator@UVirtualMarkerSet@PositionDatagram@@@std@@@std@@YAPEAUVirtualMarkerSet@PositionDatagram@@PEAU12@00AEAU?$_Wrap_alloc@V?$allocator@UVirtualMarkerSet@PositionDatagram@@@std@@@0@@Z 0000000140022bb0 f i positiondatagram.obj
 0001:00021c30       ??$_Uninitialized_move_al_unchecked1@UVirtualMarkerSet@PositionDatagram@@U12@V?$allocator@UVirtualMarkerSet@PositionDatagram@@@std@@@std@@YAPEAUVirtualMarkerSet@PositionDatagram@@PEAU12@00AEAU?$_Wrap_alloc@V?$allocator@UVirtualMarkerSet@PositionDatagram@@@std@@@0@U_Really_trivial_ptr_iterator_tag@0@U?$integral_constant@_N$00@0@@Z 0000000140022c30 f i positiondatagram.obj
 0001:00021c70       ??$_Uninitialized_move_al_unchecked@PEAUVirtualMarkerSet@PositionDatagram@@PEAU12@V?$allocator@UVirtualMarkerSet@PositionDatagram@@@std@@@std@@YAPEAUVirtualMarkerSet@PositionDatagram@@PEAU12@00AEAU?$_Wrap_alloc@V?$allocator@UVirtualMarkerSet@PositionDatagram@@@std@@@0@@Z 0000000140022c70 f i positiondatagram.obj
 0001:00021cd0       ??$addressof@$$CBUVirtualMarkerSet@PositionDatagram@@@std@@YAPEBUVirtualMarkerSet@PositionDatagram@@AEBU12@@Z 0000000140022cd0 f i positiondatagram.obj
 0001:00021ce0       ??$construct@UVirtualMarkerSet@PositionDatagram@@AEAU12@@?$_Wrap_alloc@V?$allocator@UVirtualMarkerSet@PositionDatagram@@@std@@@std@@QEAAXPEAUVirtualMarkerSet@PositionDatagram@@AEAU23@@Z 0000000140022ce0 f i positiondatagram.obj
 0001:00021d20       ??$construct@UVirtualMarkerSet@PositionDatagram@@AEAU12@@?$allocator@UVirtualMarkerSet@PositionDatagram@@@std@@QEAAXPEAUVirtualMarkerSet@PositionDatagram@@AEAU23@@Z 0000000140022d20 f i positiondatagram.obj
 0001:00021d90       ??$construct@UVirtualMarkerSet@PositionDatagram@@AEAU12@@?$allocator_traits@V?$allocator@UVirtualMarkerSet@PositionDatagram@@@std@@@std@@SAXAEAV?$allocator@UVirtualMarkerSet@PositionDatagram@@@1@PEAUVirtualMarkerSet@PositionDatagram@@AEAU34@@Z 0000000140022d90 f i positiondatagram.obj
 0001:00021dd0       ??$construct@UVirtualMarkerSet@PositionDatagram@@AEBU12@@?$_Wrap_alloc@V?$allocator@UVirtualMarkerSet@PositionDatagram@@@std@@@std@@QEAAXPEAUVirtualMarkerSet@PositionDatagram@@AEBU23@@Z 0000000140022dd0 f i positiondatagram.obj
 0001:00021e10       ??$construct@UVirtualMarkerSet@PositionDatagram@@AEBU12@@?$allocator@UVirtualMarkerSet@PositionDatagram@@@std@@QEAAXPEAUVirtualMarkerSet@PositionDatagram@@AEBU23@@Z 0000000140022e10 f i positiondatagram.obj
 0001:00021e80       ??$construct@UVirtualMarkerSet@PositionDatagram@@AEBU12@@?$allocator_traits@V?$allocator@UVirtualMarkerSet@PositionDatagram@@@std@@@std@@SAXAEAV?$allocator@UVirtualMarkerSet@PositionDatagram@@@1@PEAUVirtualMarkerSet@PositionDatagram@@AEBU34@@Z 0000000140022e80 f i positiondatagram.obj
 0001:00021ec0       ??$forward@AEAU?$_Wrap_alloc@V?$allocator@UVirtualMarkerSet@PositionDatagram@@@std@@@std@@@std@@YAAEAU?$_Wrap_alloc@V?$allocator@UVirtualMarkerSet@PositionDatagram@@@std@@@0@AEAU10@@Z 0000000140022ec0 f i positiondatagram.obj
 0001:00021ed0       ??$forward@AEAUVirtualMarkerSet@PositionDatagram@@@std@@YAAEAUVirtualMarkerSet@PositionDatagram@@AEAU12@@Z 0000000140022ed0 f i positiondatagram.obj
 0001:00021ee0       ??$forward@AEBUVirtualMarkerSet@PositionDatagram@@@std@@YAAEBUVirtualMarkerSet@PositionDatagram@@AEBU12@@Z 0000000140022ee0 f i positiondatagram.obj
 0001:00021ef0       ??0?$_Iterator012@Urandom_access_iterator_tag@std@@UVirtualMarkerSet@PositionDatagram@@_JPEBU34@AEBU34@U_Iterator_base12@2@@std@@QEAA@XZ 0000000140022ef0 f i positiondatagram.obj
 0001:00021f10       ??0?$_Vector_alloc@U?$_Vec_base_types@UVirtualMarkerSet@PositionDatagram@@V?$allocator@UVirtualMarkerSet@PositionDatagram@@@std@@@std@@@std@@QEAA@XZ 0000000140022f10 f i positiondatagram.obj
 0001:00021f50       ??0?$_Vector_const_iterator@V?$_Vector_val@U?$_Simple_types@UVirtualMarkerSet@PositionDatagram@@@std@@@std@@@std@@QEAA@PEAUVirtualMarkerSet@PositionDatagram@@PEBU_Container_base12@1@@Z 0000000140022f50 f i positiondatagram.obj
 0001:00021fa0       ??0?$_Vector_val@U?$_Simple_types@UVirtualMarkerSet@PositionDatagram@@@std@@@std@@QEAA@XZ 0000000140022fa0 f i positiondatagram.obj
 0001:00021ff0       ??0?$_Wrap_alloc@V?$allocator@UVirtualMarkerSet@PositionDatagram@@@std@@@std@@QEAA@XZ 0000000140022ff0 f i positiondatagram.obj
 0001:00022010       ??0?$allocator@UVirtualMarkerSet@PositionDatagram@@@std@@QEAA@XZ 0000000140023010 f i positiondatagram.obj
 0001:00022020       ??0?$vector@UVirtualMarkerSet@PositionDatagram@@V?$allocator@UVirtualMarkerSet@PositionDatagram@@@std@@@std@@QEAA@XZ 0000000140023020 f i positiondatagram.obj
 0001:00022050       ??1?$_Compressed_pair@U?$_Wrap_alloc@V?$allocator@UVirtualMarkerSet@PositionDatagram@@@std@@@std@@V?$_Vector_val@U?$_Simple_types@UVirtualMarkerSet@PositionDatagram@@@std@@@2@$00@std@@QEAA@XZ 0000000140023050 f i positiondatagram.obj
 0001:00022070       ??1?$_Iterator012@Urandom_access_iterator_tag@std@@UVirtualMarkerSet@PositionDatagram@@_JPEBU34@AEBU34@U_Iterator_base12@2@@std@@QEAA@XZ 0000000140023070 f i positiondatagram.obj
 0001:00022090       ??1?$_Vector_alloc@U?$_Vec_base_types@UVirtualMarkerSet@PositionDatagram@@V?$allocator@UVirtualMarkerSet@PositionDatagram@@@std@@@std@@@std@@QEAA@XZ 0000000140023090 f i positiondatagram.obj
 0001:000220c0       ??1?$_Vector_const_iterator@V?$_Vector_val@U?$_Simple_types@UVirtualMarkerSet@PositionDatagram@@@std@@@std@@@std@@QEAA@XZ 00000001400230c0 f i positiondatagram.obj
 0001:000220e0       ??1?$_Vector_val@U?$_Simple_types@UVirtualMarkerSet@PositionDatagram@@@std@@@std@@QEAA@XZ 00000001400230e0 f i positiondatagram.obj
 0001:00022100       ??1?$vector@UVirtualMarkerSet@PositionDatagram@@V?$allocator@UVirtualMarkerSet@PositionDatagram@@@std@@@std@@QEAA@XZ 0000000140023100 f i positiondatagram.obj
 0001:00022130       ??8?$_Vector_const_iterator@V?$_Vector_val@U?$_Simple_types@UVirtualMarkerSet@PositionDatagram@@@std@@@std@@@std@@QEBA_NAEBV01@@Z 0000000140023130 f i positiondatagram.obj
 0001:00022180       ??9?$_Vector_const_iterator@V?$_Vector_val@U?$_Simple_types@UVirtualMarkerSet@PositionDatagram@@@std@@@std@@@std@@QEBA_NAEBV01@@Z 0000000140023180 f i positiondatagram.obj
 0001:000221c0       ??D?$_Vector_const_iterator@V?$_Vector_val@U?$_Simple_types@UVirtualMarkerSet@PositionDatagram@@@std@@@std@@@std@@QEBAAEBUVirtualMarkerSet@PositionDatagram@@XZ 00000001400231c0 f i positiondatagram.obj
 0001:000222c0       ??E?$_Vector_const_iterator@V?$_Vector_val@U?$_Simple_types@UVirtualMarkerSet@PositionDatagram@@@std@@@std@@@std@@QEAAAEAV01@XZ 00000001400232c0 f i positiondatagram.obj
 0001:000223c0       ??_EPositionDatagram@@UEAAPEAXI@Z 00000001400233c0 f i positiondatagram.obj
 0001:000223c0       ??_GPositionDatagram@@UEAAPEAXI@Z 00000001400233c0 f i positiondatagram.obj
 0001:00022400       ?_Alloc_proxy@?$_Vector_alloc@U?$_Vec_base_types@UVirtualMarkerSet@PositionDatagram@@V?$allocator@UVirtualMarkerSet@PositionDatagram@@@std@@@std@@@std@@QEAAXXZ 0000000140023400 f i positiondatagram.obj
 0001:000224b0       ?_Compat@?$_Vector_const_iterator@V?$_Vector_val@U?$_Simple_types@UVirtualMarkerSet@PositionDatagram@@@std@@@std@@@std@@QEBAXAEBV12@@Z 00000001400234b0 f i positiondatagram.obj
 0001:00022580       ?_Destroy@?$vector@UVirtualMarkerSet@PositionDatagram@@V?$allocator@UVirtualMarkerSet@PositionDatagram@@@std@@@std@@IEAAXPEAUVirtualMarkerSet@PositionDatagram@@0@Z 0000000140023580 f i positiondatagram.obj
 0001:000225c0       ?_Free_proxy@?$_Vector_alloc@U?$_Vec_base_types@UVirtualMarkerSet@PositionDatagram@@V?$allocator@UVirtualMarkerSet@PositionDatagram@@@std@@@std@@@std@@QEAAXXZ 00000001400235c0 f i positiondatagram.obj
 0001:00022650       ?_Get_data@?$_Vector_alloc@U?$_Vec_base_types@UVirtualMarkerSet@PositionDatagram@@V?$allocator@UVirtualMarkerSet@PositionDatagram@@@std@@@std@@@std@@QEAAAEAV?$_Vector_val@U?$_Simple_types@UVirtualMarkerSet@PositionDatagram@@@std@@@2@XZ 0000000140023650 f i positiondatagram.obj
 0001:00022670       ?_Get_data@?$_Vector_alloc@U?$_Vec_base_types@UVirtualMarkerSet@PositionDatagram@@V?$allocator@UVirtualMarkerSet@PositionDatagram@@@std@@@std@@@std@@QEBAAEBV?$_Vector_val@U?$_Simple_types@UVirtualMarkerSet@PositionDatagram@@@std@@@2@XZ 0000000140023670 f i positiondatagram.obj
 0001:00022690       ?_Get_first@?$_Compressed_pair@U?$_Wrap_alloc@V?$allocator@UVirtualMarkerSet@PositionDatagram@@@std@@@std@@V?$_Vector_val@U?$_Simple_types@UVirtualMarkerSet@PositionDatagram@@@std@@@2@$00@std@@QEAAAEAU?$_Wrap_alloc@V?$allocator@UVirtualMarkerSet@PositionDatagram@@@std@@@2@XZ 0000000140023690 f i positiondatagram.obj
 0001:000226a0       ?_Get_first@?$_Compressed_pair@U?$_Wrap_alloc@V?$allocator@UVirtualMarkerSet@PositionDatagram@@@std@@@std@@V?$_Vector_val@U?$_Simple_types@UVirtualMarkerSet@PositionDatagram@@@std@@@2@$00@std@@QEBAAEBU?$_Wrap_alloc@V?$allocator@UVirtualMarkerSet@PositionDatagram@@@std@@@2@XZ 00000001400236a0 f i positiondatagram.obj
 0001:000226b0       ?_Get_second@?$_Compressed_pair@U?$_Wrap_alloc@V?$allocator@UVirtualMarkerSet@PositionDatagram@@@std@@@std@@V?$_Vector_val@U?$_Simple_types@UVirtualMarkerSet@PositionDatagram@@@std@@@2@$00@std@@QEAAAEAV?$_Vector_val@U?$_Simple_types@UVirtualMarkerSet@PositionDatagram@@@std@@@2@XZ 00000001400236b0 f i positiondatagram.obj
 0001:000226c0       ?_Get_second@?$_Compressed_pair@U?$_Wrap_alloc@V?$allocator@UVirtualMarkerSet@PositionDatagram@@@std@@@std@@V?$_Vector_val@U?$_Simple_types@UVirtualMarkerSet@PositionDatagram@@@std@@@2@$00@std@@QEBAAEBV?$_Vector_val@U?$_Simple_types@UVirtualMarkerSet@PositionDatagram@@@std@@@2@XZ 00000001400236c0 f i positiondatagram.obj
 0001:000226d0       ?_Getal@?$_Vector_alloc@U?$_Vec_base_types@UVirtualMarkerSet@PositionDatagram@@V?$allocator@UVirtualMarkerSet@PositionDatagram@@@std@@@std@@@std@@QEAAAEAU?$_Wrap_alloc@V?$allocator@UVirtualMarkerSet@PositionDatagram@@@std@@@2@XZ 00000001400236d0 f i positiondatagram.obj
 0001:000226f0       ?_Getal@?$_Vector_alloc@U?$_Vec_base_types@UVirtualMarkerSet@PositionDatagram@@V?$allocator@UVirtualMarkerSet@PositionDatagram@@@std@@@std@@@std@@QEBAAEBU?$_Wrap_alloc@V?$allocator@UVirtualMarkerSet@PositionDatagram@@@std@@@2@XZ 00000001400236f0 f i positiondatagram.obj
 0001:00022710       ?_Getpfirst@?$_Vector_alloc@U?$_Vec_base_types@UVirtualMarkerSet@PositionDatagram@@V?$allocator@UVirtualMarkerSet@PositionDatagram@@@std@@@std@@@std@@QEBAPEAPEAU_Iterator_base12@2@XZ 0000000140023710 f i positiondatagram.obj
 0001:00022730       ?_Grow_to@?$vector@UVirtualMarkerSet@PositionDatagram@@V?$allocator@UVirtualMarkerSet@PositionDatagram@@@std@@@std@@IEBA_K_K@Z 0000000140023730 f i positiondatagram.obj
 0001:000227e0       ?_Inside@?$vector@UVirtualMarkerSet@PositionDatagram@@V?$allocator@UVirtualMarkerSet@PositionDatagram@@@std@@@std@@IEBA_NPEBUVirtualMarkerSet@PositionDatagram@@@Z 00000001400237e0 f i positiondatagram.obj
 0001:00022840       ?_Myend@?$_Vector_alloc@U?$_Vec_base_types@UVirtualMarkerSet@PositionDatagram@@V?$allocator@UVirtualMarkerSet@PositionDatagram@@@std@@@std@@@std@@QEAAAEAPEAUVirtualMarkerSet@PositionDatagram@@XZ 0000000140023840 f i positiondatagram.obj
 0001:00022860       ?_Myend@?$_Vector_alloc@U?$_Vec_base_types@UVirtualMarkerSet@PositionDatagram@@V?$allocator@UVirtualMarkerSet@PositionDatagram@@@std@@@std@@@std@@QEBAAEBQEAUVirtualMarkerSet@PositionDatagram@@XZ 0000000140023860 f i positiondatagram.obj
 0001:00022880       ?_Myfirst@?$_Vector_alloc@U?$_Vec_base_types@UVirtualMarkerSet@PositionDatagram@@V?$allocator@UVirtualMarkerSet@PositionDatagram@@@std@@@std@@@std@@QEAAAEAPEAUVirtualMarkerSet@PositionDatagram@@XZ 0000000140023880 f i positiondatagram.obj
 0001:000228a0       ?_Myfirst@?$_Vector_alloc@U?$_Vec_base_types@UVirtualMarkerSet@PositionDatagram@@V?$allocator@UVirtualMarkerSet@PositionDatagram@@@std@@@std@@@std@@QEBAAEBQEAUVirtualMarkerSet@PositionDatagram@@XZ 00000001400238a0 f i positiondatagram.obj
 0001:000228c0       ?_Mylast@?$_Vector_alloc@U?$_Vec_base_types@UVirtualMarkerSet@PositionDatagram@@V?$allocator@UVirtualMarkerSet@PositionDatagram@@@std@@@std@@@std@@QEAAAEAPEAUVirtualMarkerSet@PositionDatagram@@XZ 00000001400238c0 f i positiondatagram.obj
 0001:000228e0       ?_Mylast@?$_Vector_alloc@U?$_Vec_base_types@UVirtualMarkerSet@PositionDatagram@@V?$allocator@UVirtualMarkerSet@PositionDatagram@@@std@@@std@@@std@@QEBAAEBQEAUVirtualMarkerSet@PositionDatagram@@XZ 00000001400238e0 f i positiondatagram.obj
 0001:00022900       ?_Myproxy@?$_Vector_alloc@U?$_Vec_base_types@UVirtualMarkerSet@PositionDatagram@@V?$allocator@UVirtualMarkerSet@PositionDatagram@@@std@@@std@@@std@@QEAAAEAPEAU_Container_proxy@2@XZ 0000000140023900 f i positiondatagram.obj
 0001:00022920       ?_Orphan_all@?$_Vector_alloc@U?$_Vec_base_types@UVirtualMarkerSet@PositionDatagram@@V?$allocator@UVirtualMarkerSet@PositionDatagram@@@std@@@std@@@std@@QEAAXXZ 0000000140023920 f i positiondatagram.obj
 0001:00022940       ?_Orphan_range@?$vector@UVirtualMarkerSet@PositionDatagram@@V?$allocator@UVirtualMarkerSet@PositionDatagram@@@std@@@std@@IEBAXPEAUVirtualMarkerSet@PositionDatagram@@0@Z 0000000140023940 f i positiondatagram.obj
 0001:00022a00       ?_Reallocate@?$vector@UVirtualMarkerSet@PositionDatagram@@V?$allocator@UVirtualMarkerSet@PositionDatagram@@@std@@@std@@IEAAX_K@Z 0000000140023a00 f i positiondatagram.obj
 0001:00022bd0       ?_Reserve@?$vector@UVirtualMarkerSet@PositionDatagram@@V?$allocator@UVirtualMarkerSet@PositionDatagram@@@std@@@std@@IEAAX_K@Z 0000000140023bd0 f i positiondatagram.obj
 0001:00022c60       ?_Tidy@?$vector@UVirtualMarkerSet@PositionDatagram@@V?$allocator@UVirtualMarkerSet@PositionDatagram@@@std@@@std@@IEAAXXZ 0000000140023c60 f i positiondatagram.obj
 0001:00022d60       ?_Unused_capacity@?$vector@UVirtualMarkerSet@PositionDatagram@@V?$allocator@UVirtualMarkerSet@PositionDatagram@@@std@@@std@@QEBA_KXZ 0000000140023d60 f i positiondatagram.obj
 0001:00022da0       ?_Xlen@?$vector@UVirtualMarkerSet@PositionDatagram@@V?$allocator@UVirtualMarkerSet@PositionDatagram@@@std@@@std@@IEBAXXZ 0000000140023da0 f i positiondatagram.obj
 0001:00022dc0       ?allocate@?$_Wrap_alloc@V?$allocator@UVirtualMarkerSet@PositionDatagram@@@std@@@std@@QEAAPEAUVirtualMarkerSet@PositionDatagram@@_K@Z 0000000140023dc0 f i positiondatagram.obj
 0001:00022df0       ?allocate@?$allocator@UVirtualMarkerSet@PositionDatagram@@@std@@QEAAPEAUVirtualMarkerSet@PositionDatagram@@_K@Z 0000000140023df0 f i positiondatagram.obj
 0001:00022e20       ?begin@?$vector@UVirtualMarkerSet@PositionDatagram@@V?$allocator@UVirtualMarkerSet@PositionDatagram@@@std@@@std@@QEBA?AV?$_Vector_const_iterator@V?$_Vector_val@U?$_Simple_types@UVirtualMarkerSet@PositionDatagram@@@std@@@std@@@2@XZ 0000000140023e20 f i positiondatagram.obj
 0001:00022e80       ?capacity@?$vector@UVirtualMarkerSet@PositionDatagram@@V?$allocator@UVirtualMarkerSet@PositionDatagram@@@std@@@std@@QEBA_KXZ 0000000140023e80 f i positiondatagram.obj
 0001:00022ec0       ?deallocate@?$_Wrap_alloc@V?$allocator@UVirtualMarkerSet@PositionDatagram@@@std@@@std@@QEAAXPEAUVirtualMarkerSet@PositionDatagram@@_K@Z 0000000140023ec0 f i positiondatagram.obj
 0001:00022ef0       ?deallocate@?$allocator@UVirtualMarkerSet@PositionDatagram@@@std@@QEAAXPEAUVirtualMarkerSet@PositionDatagram@@_K@Z 0000000140023ef0 f i positiondatagram.obj
 0001:00022f20       ?end@?$vector@UVirtualMarkerSet@PositionDatagram@@V?$allocator@UVirtualMarkerSet@PositionDatagram@@@std@@@std@@QEBA?AV?$_Vector_const_iterator@V?$_Vector_val@U?$_Simple_types@UVirtualMarkerSet@PositionDatagram@@@std@@@std@@@2@XZ 0000000140023f20 f i positiondatagram.obj
 0001:00022f80       ?max_size@?$_Wrap_alloc@V?$allocator@UVirtualMarkerSet@PositionDatagram@@@std@@@std@@QEBA_KU_Nil@2@@Z 0000000140023f80 f i positiondatagram.obj
 0001:00022fa0       ?max_size@?$allocator@UVirtualMarkerSet@PositionDatagram@@@std@@QEBA_KXZ 0000000140023fa0 f i positiondatagram.obj
 0001:00022fb0       ?max_size@?$allocator_traits@V?$allocator@UVirtualMarkerSet@PositionDatagram@@@std@@@std@@SA_KAEBV?$allocator@UVirtualMarkerSet@PositionDatagram@@@2@@Z 0000000140023fb0 f i positiondatagram.obj
 0001:00022fd0       ?max_size@?$vector@UVirtualMarkerSet@PositionDatagram@@V?$allocator@UVirtualMarkerSet@PositionDatagram@@@std@@@std@@QEBA_KXZ 0000000140023fd0 f i positiondatagram.obj
 0001:00023000       ?push_back@?$vector@UVirtualMarkerSet@PositionDatagram@@V?$allocator@UVirtualMarkerSet@PositionDatagram@@@std@@@std@@QEAAXAEBUVirtualMarkerSet@PositionDatagram@@@Z 0000000140024000 f i positiondatagram.obj
 0001:00023260       ?size@?$vector@UVirtualMarkerSet@PositionDatagram@@V?$allocator@UVirtualMarkerSet@PositionDatagram@@@std@@@std@@QEBA_KXZ 0000000140024260 f i positiondatagram.obj
 0001:000232a0       ??0QuaternionDatagram@@QEAA@XZ 00000001400242a0 f   quaterniondatagram.obj
 0001:00023300       ??1QuaternionDatagram@@UEAA@XZ 0000000140024300 f   quaterniondatagram.obj
 0001:00023340       ?printData@QuaternionDatagram@@UEBAXXZ 0000000140024340 f   quaterniondatagram.obj
 0001:00023360       ?deserializeData@QuaternionDatagram@@MEAAXAEAVStreamer@@@Z 0000000140024360 f   quaterniondatagram.obj
 0001:000234a0       ?alignData@QuaternionDatagram@@QEBA?AV?$vector@MV?$allocator@M@std@@@std@@XZ 00000001400244a0 f   quaterniondatagram.obj
 0001:000236a0       ?streamData@QuaternionDatagram@@QEBAXXZ 00000001400246a0 f   quaterniondatagram.obj
 0001:00023710       ??$?0$$V@?$_Compressed_pair@U?$_Wrap_alloc@V?$allocator@UKinematics@QuaternionDatagram@@@std@@@std@@V?$_Vector_val@U?$_Simple_types@UKinematics@QuaternionDatagram@@@std@@@2@$00@std@@QEAA@U_Zero_then_variadic_args_t@1@@Z 0000000140024710 f i quaterniondatagram.obj
 0001:00023740       ??$?0AEAU?$_Wrap_alloc@V?$allocator@UKinematics@QuaternionDatagram@@@std@@@std@@@?$_Wrap_alloc@V?$allocator@U_Container_proxy@std@@@std@@@std@@QEAA@AEAU?$_Wrap_alloc@V?$allocator@UKinematics@QuaternionDatagram@@@std@@@1@@Z 0000000140024740 f i quaterniondatagram.obj
 0001:00023770       ??$?0UKinematics@QuaternionDatagram@@@?$allocator@U_Container_proxy@std@@@std@@QEAA@AEBV?$allocator@UKinematics@QuaternionDatagram@@@1@@Z 0000000140024770 f i quaterniondatagram.obj
 0001:00023780       ??$_Copy_memmove@PEAUKinematics@QuaternionDatagram@@PEAU12@@std@@YAPEAUKinematics@QuaternionDatagram@@PEAU12@00@Z 0000000140024780 f i quaterniondatagram.obj
 0001:000237f0       ??$_Destroy_range1@V?$allocator@UKinematics@QuaternionDatagram@@@std@@PEAUKinematics@QuaternionDatagram@@@std@@YAXPEAUKinematics@QuaternionDatagram@@0AEAU?$_Wrap_alloc@V?$allocator@UKinematics@QuaternionDatagram@@@std@@@0@U?$integral_constant@_N$00@0@@Z 00000001400247f0 f i quaterniondatagram.obj
 0001:00023810       ??$_Destroy_range@V?$allocator@UKinematics@QuaternionDatagram@@@std@@PEAUKinematics@QuaternionDatagram@@@std@@YAXPEAUKinematics@QuaternionDatagram@@0AEAU?$_Wrap_alloc@V?$allocator@UKinematics@QuaternionDatagram@@@std@@@0@@Z 0000000140024810 f i quaterniondatagram.obj
 0001:00023850       ??$_Ptr_move_cat@UKinematics@QuaternionDatagram@@U12@@std@@YA?AU_Really_trivial_ptr_iterator_tag@0@AEBQEAUKinematics@QuaternionDatagram@@0@Z 0000000140024850 f i quaterniondatagram.obj
 0001:00023870       ??$_Rechecked@PEAUKinematics@QuaternionDatagram@@PEAU12@@std@@YAAEAPEAUKinematics@QuaternionDatagram@@AEAPEAU12@PEAU12@@Z 0000000140024870 f i quaterniondatagram.obj
 0001:00023890       ??$_Umove@PEAUKinematics@QuaternionDatagram@@@?$vector@UKinematics@QuaternionDatagram@@V?$allocator@UKinematics@QuaternionDatagram@@@std@@@std@@IEAAPEAUKinematics@QuaternionDatagram@@PEAU23@00@Z 0000000140024890 f i quaterniondatagram.obj
 0001:000238d0       ??$_Unchecked@PEAUKinematics@QuaternionDatagram@@@std@@YAPEAUKinematics@QuaternionDatagram@@PEAU12@@Z 00000001400248d0 f i quaterniondatagram.obj
 0001:000238e0       ??$_Unfancy@UKinematics@QuaternionDatagram@@@std@@YAPEAUKinematics@QuaternionDatagram@@PEAU12@@Z 00000001400248e0 f i quaterniondatagram.obj
 0001:000238f0       ??$_Uninitialized_move@PEAUKinematics@QuaternionDatagram@@PEAU12@V?$allocator@UKinematics@QuaternionDatagram@@@std@@@std@@YAPEAUKinematics@QuaternionDatagram@@PEAU12@00AEAU?$_Wrap_alloc@V?$allocator@UKinematics@QuaternionDatagram@@@std@@@0@@Z 00000001400248f0 f i quaterniondatagram.obj
 0001:00023970       ??$_Uninitialized_move_al_unchecked1@UKinematics@QuaternionDatagram@@U12@V?$allocator@UKinematics@QuaternionDatagram@@@std@@@std@@YAPEAUKinematics@QuaternionDatagram@@PEAU12@00AEAU?$_Wrap_alloc@V?$allocator@UKinematics@QuaternionDatagram@@@std@@@0@U_Really_trivial_ptr_iterator_tag@0@U?$integral_constant@_N$00@0@@Z 0000000140024970 f i quaterniondatagram.obj
 0001:000239b0       ??$_Uninitialized_move_al_unchecked@PEAUKinematics@QuaternionDatagram@@PEAU12@V?$allocator@UKinematics@QuaternionDatagram@@@std@@@std@@YAPEAUKinematics@QuaternionDatagram@@PEAU12@00AEAU?$_Wrap_alloc@V?$allocator@UKinematics@QuaternionDatagram@@@std@@@0@@Z 00000001400249b0 f i quaterniondatagram.obj
 0001:00023a10       ??$addressof@$$CBUKinematics@QuaternionDatagram@@@std@@YAPEBUKinematics@QuaternionDatagram@@AEBU12@@Z 0000000140024a10 f i quaterniondatagram.obj
 0001:00023a20       ??$construct@UKinematics@QuaternionDatagram@@AEAU12@@?$_Wrap_alloc@V?$allocator@UKinematics@QuaternionDatagram@@@std@@@std@@QEAAXPEAUKinematics@QuaternionDatagram@@AEAU23@@Z 0000000140024a20 f i quaterniondatagram.obj
 0001:00023a60       ??$construct@UKinematics@QuaternionDatagram@@AEAU12@@?$allocator@UKinematics@QuaternionDatagram@@@std@@QEAAXPEAUKinematics@QuaternionDatagram@@AEAU23@@Z 0000000140024a60 f i quaterniondatagram.obj
 0001:00023ad0       ??$construct@UKinematics@QuaternionDatagram@@AEAU12@@?$allocator_traits@V?$allocator@UKinematics@QuaternionDatagram@@@std@@@std@@SAXAEAV?$allocator@UKinematics@QuaternionDatagram@@@1@PEAUKinematics@QuaternionDatagram@@AEAU34@@Z 0000000140024ad0 f i quaterniondatagram.obj
 0001:00023b10       ??$construct@UKinematics@QuaternionDatagram@@AEBU12@@?$_Wrap_alloc@V?$allocator@UKinematics@QuaternionDatagram@@@std@@@std@@QEAAXPEAUKinematics@QuaternionDatagram@@AEBU23@@Z 0000000140024b10 f i quaterniondatagram.obj
 0001:00023b50       ??$construct@UKinematics@QuaternionDatagram@@AEBU12@@?$allocator@UKinematics@QuaternionDatagram@@@std@@QEAAXPEAUKinematics@QuaternionDatagram@@AEBU23@@Z 0000000140024b50 f i quaterniondatagram.obj
 0001:00023bc0       ??$construct@UKinematics@QuaternionDatagram@@AEBU12@@?$allocator_traits@V?$allocator@UKinematics@QuaternionDatagram@@@std@@@std@@SAXAEAV?$allocator@UKinematics@QuaternionDatagram@@@1@PEAUKinematics@QuaternionDatagram@@AEBU34@@Z 0000000140024bc0 f i quaterniondatagram.obj
 0001:00023c00       ??$forward@AEAU?$_Wrap_alloc@V?$allocator@UKinematics@QuaternionDatagram@@@std@@@std@@@std@@YAAEAU?$_Wrap_alloc@V?$allocator@UKinematics@QuaternionDatagram@@@std@@@0@AEAU10@@Z 0000000140024c00 f i quaterniondatagram.obj
 0001:00023c10       ??$forward@AEAUKinematics@QuaternionDatagram@@@std@@YAAEAUKinematics@QuaternionDatagram@@AEAU12@@Z 0000000140024c10 f i quaterniondatagram.obj
 0001:00023c20       ??$forward@AEBUKinematics@QuaternionDatagram@@@std@@YAAEBUKinematics@QuaternionDatagram@@AEBU12@@Z 0000000140024c20 f i quaterniondatagram.obj
 0001:00023c30       ??0?$_Iterator012@Urandom_access_iterator_tag@std@@UKinematics@QuaternionDatagram@@_JPEBU34@AEBU34@U_Iterator_base12@2@@std@@QEAA@XZ 0000000140024c30 f i quaterniondatagram.obj
 0001:00023c50       ??0?$_Vector_alloc@U?$_Vec_base_types@UKinematics@QuaternionDatagram@@V?$allocator@UKinematics@QuaternionDatagram@@@std@@@std@@@std@@QEAA@XZ 0000000140024c50 f i quaterniondatagram.obj
 0001:00023c90       ??0?$_Vector_const_iterator@V?$_Vector_val@U?$_Simple_types@UKinematics@QuaternionDatagram@@@std@@@std@@@std@@QEAA@PEAUKinematics@QuaternionDatagram@@PEBU_Container_base12@1@@Z 0000000140024c90 f i quaterniondatagram.obj
 0001:00023ce0       ??0?$_Vector_val@U?$_Simple_types@UKinematics@QuaternionDatagram@@@std@@@std@@QEAA@XZ 0000000140024ce0 f i quaterniondatagram.obj
 0001:00023d30       ??0?$_Wrap_alloc@V?$allocator@UKinematics@QuaternionDatagram@@@std@@@std@@QEAA@XZ 0000000140024d30 f i quaterniondatagram.obj
 0001:00023d50       ??0?$allocator@UKinematics@QuaternionDatagram@@@std@@QEAA@XZ 0000000140024d50 f i quaterniondatagram.obj
 0001:00023d60       ??0?$vector@UKinematics@QuaternionDatagram@@V?$allocator@UKinematics@QuaternionDatagram@@@std@@@std@@QEAA@XZ 0000000140024d60 f i quaterniondatagram.obj
 0001:00023d90       ??1?$_Compressed_pair@U?$_Wrap_alloc@V?$allocator@UKinematics@QuaternionDatagram@@@std@@@std@@V?$_Vector_val@U?$_Simple_types@UKinematics@QuaternionDatagram@@@std@@@2@$00@std@@QEAA@XZ 0000000140024d90 f i quaterniondatagram.obj
 0001:00023db0       ??1?$_Iterator012@Urandom_access_iterator_tag@std@@UKinematics@QuaternionDatagram@@_JPEBU34@AEBU34@U_Iterator_base12@2@@std@@QEAA@XZ 0000000140024db0 f i quaterniondatagram.obj
 0001:00023dd0       ??1?$_Vector_alloc@U?$_Vec_base_types@UKinematics@QuaternionDatagram@@V?$allocator@UKinematics@QuaternionDatagram@@@std@@@std@@@std@@QEAA@XZ 0000000140024dd0 f i quaterniondatagram.obj
 0001:00023e00       ??1?$_Vector_const_iterator@V?$_Vector_val@U?$_Simple_types@UKinematics@QuaternionDatagram@@@std@@@std@@@std@@QEAA@XZ 0000000140024e00 f i quaterniondatagram.obj
 0001:00023e20       ??1?$_Vector_val@U?$_Simple_types@UKinematics@QuaternionDatagram@@@std@@@std@@QEAA@XZ 0000000140024e20 f i quaterniondatagram.obj
 0001:00023e40       ??1?$vector@UKinematics@QuaternionDatagram@@V?$allocator@UKinematics@QuaternionDatagram@@@std@@@std@@QEAA@XZ 0000000140024e40 f i quaterniondatagram.obj
 0001:00023e70       ??8?$_Vector_const_iterator@V?$_Vector_val@U?$_Simple_types@UKinematics@QuaternionDatagram@@@std@@@std@@@std@@QEBA_NAEBV01@@Z 0000000140024e70 f i quaterniondatagram.obj
 0001:00023ec0       ??9?$_Vector_const_iterator@V?$_Vector_val@U?$_Simple_types@UKinematics@QuaternionDatagram@@@std@@@std@@@std@@QEBA_NAEBV01@@Z 0000000140024ec0 f i quaterniondatagram.obj
 0001:00023f00       ??D?$_Vector_const_iterator@V?$_Vector_val@U?$_Simple_types@UKinematics@QuaternionDatagram@@@std@@@std@@@std@@QEBAAEBUKinematics@QuaternionDatagram@@XZ 0000000140024f00 f i quaterniondatagram.obj
 0001:00024000       ??E?$_Vector_const_iterator@V?$_Vector_val@U?$_Simple_types@UKinematics@QuaternionDatagram@@@std@@@std@@@std@@QEAAAEAV01@XZ 0000000140025000 f i quaterniondatagram.obj
 0001:00024100       ??_GQuaternionDatagram@@UEAAPEAXI@Z 0000000140025100 f i quaterniondatagram.obj
 0001:00024100       ??_EQuaternionDatagram@@UEAAPEAXI@Z 0000000140025100 f i quaterniondatagram.obj
 0001:00024140       ?_Alloc_proxy@?$_Vector_alloc@U?$_Vec_base_types@UKinematics@QuaternionDatagram@@V?$allocator@UKinematics@QuaternionDatagram@@@std@@@std@@@std@@QEAAXXZ 0000000140025140 f i quaterniondatagram.obj
 0001:000241f0       ?_Compat@?$_Vector_const_iterator@V?$_Vector_val@U?$_Simple_types@UKinematics@QuaternionDatagram@@@std@@@std@@@std@@QEBAXAEBV12@@Z 00000001400251f0 f i quaterniondatagram.obj
 0001:000242c0       ?_Destroy@?$vector@UKinematics@QuaternionDatagram@@V?$allocator@UKinematics@QuaternionDatagram@@@std@@@std@@IEAAXPEAUKinematics@QuaternionDatagram@@0@Z 00000001400252c0 f i quaterniondatagram.obj
 0001:00024300       ?_Free_proxy@?$_Vector_alloc@U?$_Vec_base_types@UKinematics@QuaternionDatagram@@V?$allocator@UKinematics@QuaternionDatagram@@@std@@@std@@@std@@QEAAXXZ 0000000140025300 f i quaterniondatagram.obj
 0001:00024390       ?_Get_data@?$_Vector_alloc@U?$_Vec_base_types@UKinematics@QuaternionDatagram@@V?$allocator@UKinematics@QuaternionDatagram@@@std@@@std@@@std@@QEAAAEAV?$_Vector_val@U?$_Simple_types@UKinematics@QuaternionDatagram@@@std@@@2@XZ 0000000140025390 f i quaterniondatagram.obj
 0001:000243b0       ?_Get_data@?$_Vector_alloc@U?$_Vec_base_types@UKinematics@QuaternionDatagram@@V?$allocator@UKinematics@QuaternionDatagram@@@std@@@std@@@std@@QEBAAEBV?$_Vector_val@U?$_Simple_types@UKinematics@QuaternionDatagram@@@std@@@2@XZ 00000001400253b0 f i quaterniondatagram.obj
 0001:000243d0       ?_Get_first@?$_Compressed_pair@U?$_Wrap_alloc@V?$allocator@UKinematics@QuaternionDatagram@@@std@@@std@@V?$_Vector_val@U?$_Simple_types@UKinematics@QuaternionDatagram@@@std@@@2@$00@std@@QEAAAEAU?$_Wrap_alloc@V?$allocator@UKinematics@QuaternionDatagram@@@std@@@2@XZ 00000001400253d0 f i quaterniondatagram.obj
 0001:000243e0       ?_Get_first@?$_Compressed_pair@U?$_Wrap_alloc@V?$allocator@UKinematics@QuaternionDatagram@@@std@@@std@@V?$_Vector_val@U?$_Simple_types@UKinematics@QuaternionDatagram@@@std@@@2@$00@std@@QEBAAEBU?$_Wrap_alloc@V?$allocator@UKinematics@QuaternionDatagram@@@std@@@2@XZ 00000001400253e0 f i quaterniondatagram.obj
 0001:000243f0       ?_Get_second@?$_Compressed_pair@U?$_Wrap_alloc@V?$allocator@UKinematics@QuaternionDatagram@@@std@@@std@@V?$_Vector_val@U?$_Simple_types@UKinematics@QuaternionDatagram@@@std@@@2@$00@std@@QEAAAEAV?$_Vector_val@U?$_Simple_types@UKinematics@QuaternionDatagram@@@std@@@2@XZ 00000001400253f0 f i quaterniondatagram.obj
 0001:00024400       ?_Get_second@?$_Compressed_pair@U?$_Wrap_alloc@V?$allocator@UKinematics@QuaternionDatagram@@@std@@@std@@V?$_Vector_val@U?$_Simple_types@UKinematics@QuaternionDatagram@@@std@@@2@$00@std@@QEBAAEBV?$_Vector_val@U?$_Simple_types@UKinematics@QuaternionDatagram@@@std@@@2@XZ 0000000140025400 f i quaterniondatagram.obj
 0001:00024410       ?_Getal@?$_Vector_alloc@U?$_Vec_base_types@UKinematics@QuaternionDatagram@@V?$allocator@UKinematics@QuaternionDatagram@@@std@@@std@@@std@@QEAAAEAU?$_Wrap_alloc@V?$allocator@UKinematics@QuaternionDatagram@@@std@@@2@XZ 0000000140025410 f i quaterniondatagram.obj
 0001:00024430       ?_Getal@?$_Vector_alloc@U?$_Vec_base_types@UKinematics@QuaternionDatagram@@V?$allocator@UKinematics@QuaternionDatagram@@@std@@@std@@@std@@QEBAAEBU?$_Wrap_alloc@V?$allocator@UKinematics@QuaternionDatagram@@@std@@@2@XZ 0000000140025430 f i quaterniondatagram.obj
 0001:00024450       ?_Getpfirst@?$_Vector_alloc@U?$_Vec_base_types@UKinematics@QuaternionDatagram@@V?$allocator@UKinematics@QuaternionDatagram@@@std@@@std@@@std@@QEBAPEAPEAU_Iterator_base12@2@XZ 0000000140025450 f i quaterniondatagram.obj
 0001:00024470       ?_Grow_to@?$vector@UKinematics@QuaternionDatagram@@V?$allocator@UKinematics@QuaternionDatagram@@@std@@@std@@IEBA_K_K@Z 0000000140025470 f i quaterniondatagram.obj
 0001:00024520       ?_Inside@?$vector@UKinematics@QuaternionDatagram@@V?$allocator@UKinematics@QuaternionDatagram@@@std@@@std@@IEBA_NPEBUKinematics@QuaternionDatagram@@@Z 0000000140025520 f i quaterniondatagram.obj
 0001:00024580       ?_Myend@?$_Vector_alloc@U?$_Vec_base_types@UKinematics@QuaternionDatagram@@V?$allocator@UKinematics@QuaternionDatagram@@@std@@@std@@@std@@QEAAAEAPEAUKinematics@QuaternionDatagram@@XZ 0000000140025580 f i quaterniondatagram.obj
 0001:000245a0       ?_Myend@?$_Vector_alloc@U?$_Vec_base_types@UKinematics@QuaternionDatagram@@V?$allocator@UKinematics@QuaternionDatagram@@@std@@@std@@@std@@QEBAAEBQEAUKinematics@QuaternionDatagram@@XZ 00000001400255a0 f i quaterniondatagram.obj
 0001:000245c0       ?_Myfirst@?$_Vector_alloc@U?$_Vec_base_types@UKinematics@QuaternionDatagram@@V?$allocator@UKinematics@QuaternionDatagram@@@std@@@std@@@std@@QEAAAEAPEAUKinematics@QuaternionDatagram@@XZ 00000001400255c0 f i quaterniondatagram.obj
 0001:000245e0       ?_Myfirst@?$_Vector_alloc@U?$_Vec_base_types@UKinematics@QuaternionDatagram@@V?$allocator@UKinematics@QuaternionDatagram@@@std@@@std@@@std@@QEBAAEBQEAUKinematics@QuaternionDatagram@@XZ 00000001400255e0 f i quaterniondatagram.obj
 0001:00024600       ?_Mylast@?$_Vector_alloc@U?$_Vec_base_types@UKinematics@QuaternionDatagram@@V?$allocator@UKinematics@QuaternionDatagram@@@std@@@std@@@std@@QEAAAEAPEAUKinematics@QuaternionDatagram@@XZ 0000000140025600 f i quaterniondatagram.obj
 0001:00024620       ?_Mylast@?$_Vector_alloc@U?$_Vec_base_types@UKinematics@QuaternionDatagram@@V?$allocator@UKinematics@QuaternionDatagram@@@std@@@std@@@std@@QEBAAEBQEAUKinematics@QuaternionDatagram@@XZ 0000000140025620 f i quaterniondatagram.obj
 0001:00024640       ?_Myproxy@?$_Vector_alloc@U?$_Vec_base_types@UKinematics@QuaternionDatagram@@V?$allocator@UKinematics@QuaternionDatagram@@@std@@@std@@@std@@QEAAAEAPEAU_Container_proxy@2@XZ 0000000140025640 f i quaterniondatagram.obj
 0001:00024660       ?_Orphan_all@?$_Vector_alloc@U?$_Vec_base_types@UKinematics@QuaternionDatagram@@V?$allocator@UKinematics@QuaternionDatagram@@@std@@@std@@@std@@QEAAXXZ 0000000140025660 f i quaterniondatagram.obj
 0001:00024680       ?_Orphan_range@?$vector@UKinematics@QuaternionDatagram@@V?$allocator@UKinematics@QuaternionDatagram@@@std@@@std@@IEBAXPEAUKinematics@QuaternionDatagram@@0@Z 0000000140025680 f i quaterniondatagram.obj
 0001:00024740       ?_Reallocate@?$vector@UKinematics@QuaternionDatagram@@V?$allocator@UKinematics@QuaternionDatagram@@@std@@@std@@IEAAX_K@Z 0000000140025740 f i quaterniondatagram.obj
 0001:00024910       ?_Reserve@?$vector@UKinematics@QuaternionDatagram@@V?$allocator@UKinematics@QuaternionDatagram@@@std@@@std@@IEAAX_K@Z 0000000140025910 f i quaterniondatagram.obj
 0001:000249a0       ?_Tidy@?$vector@UKinematics@QuaternionDatagram@@V?$allocator@UKinematics@QuaternionDatagram@@@std@@@std@@IEAAXXZ 00000001400259a0 f i quaterniondatagram.obj
 0001:00024aa0       ?_Unused_capacity@?$vector@UKinematics@QuaternionDatagram@@V?$allocator@UKinematics@QuaternionDatagram@@@std@@@std@@QEBA_KXZ 0000000140025aa0 f i quaterniondatagram.obj
 0001:00024ae0       ?_Xlen@?$vector@UKinematics@QuaternionDatagram@@V?$allocator@UKinematics@QuaternionDatagram@@@std@@@std@@IEBAXXZ 0000000140025ae0 f i quaterniondatagram.obj
 0001:00024b00       ?allocate@?$_Wrap_alloc@V?$allocator@UKinematics@QuaternionDatagram@@@std@@@std@@QEAAPEAUKinematics@QuaternionDatagram@@_K@Z 0000000140025b00 f i quaterniondatagram.obj
 0001:00024b30       ?allocate@?$allocator@UKinematics@QuaternionDatagram@@@std@@QEAAPEAUKinematics@QuaternionDatagram@@_K@Z 0000000140025b30 f i quaterniondatagram.obj
 0001:00024b60       ?begin@?$vector@UKinematics@QuaternionDatagram@@V?$allocator@UKinematics@QuaternionDatagram@@@std@@@std@@QEBA?AV?$_Vector_const_iterator@V?$_Vector_val@U?$_Simple_types@UKinematics@QuaternionDatagram@@@std@@@std@@@2@XZ 0000000140025b60 f i quaterniondatagram.obj
 0001:00024bc0       ?capacity@?$vector@UKinematics@QuaternionDatagram@@V?$allocator@UKinematics@QuaternionDatagram@@@std@@@std@@QEBA_KXZ 0000000140025bc0 f i quaterniondatagram.obj
 0001:00024c00       ?deallocate@?$_Wrap_alloc@V?$allocator@UKinematics@QuaternionDatagram@@@std@@@std@@QEAAXPEAUKinematics@QuaternionDatagram@@_K@Z 0000000140025c00 f i quaterniondatagram.obj
 0001:00024c30       ?deallocate@?$allocator@UKinematics@QuaternionDatagram@@@std@@QEAAXPEAUKinematics@QuaternionDatagram@@_K@Z 0000000140025c30 f i quaterniondatagram.obj
 0001:00024c60       ?end@?$vector@UKinematics@QuaternionDatagram@@V?$allocator@UKinematics@QuaternionDatagram@@@std@@@std@@QEBA?AV?$_Vector_const_iterator@V?$_Vector_val@U?$_Simple_types@UKinematics@QuaternionDatagram@@@std@@@std@@@2@XZ 0000000140025c60 f i quaterniondatagram.obj
 0001:00024cc0       ?max_size@?$_Wrap_alloc@V?$allocator@UKinematics@QuaternionDatagram@@@std@@@std@@QEBA_KU_Nil@2@@Z 0000000140025cc0 f i quaterniondatagram.obj
 0001:00024ce0       ?max_size@?$allocator@UKinematics@QuaternionDatagram@@@std@@QEBA_KXZ 0000000140025ce0 f i quaterniondatagram.obj
 0001:00024cf0       ?max_size@?$allocator_traits@V?$allocator@UKinematics@QuaternionDatagram@@@std@@@std@@SA_KAEBV?$allocator@UKinematics@QuaternionDatagram@@@2@@Z 0000000140025cf0 f i quaterniondatagram.obj
 0001:00024d10       ?max_size@?$vector@UKinematics@QuaternionDatagram@@V?$allocator@UKinematics@QuaternionDatagram@@@std@@@std@@QEBA_KXZ 0000000140025d10 f i quaterniondatagram.obj
 0001:00024d40       ?push_back@?$vector@UKinematics@QuaternionDatagram@@V?$allocator@UKinematics@QuaternionDatagram@@@std@@@std@@QEAAXAEBUKinematics@QuaternionDatagram@@@Z 0000000140025d40 f i quaterniondatagram.obj
 0001:00024fa0       ?size@?$vector@UKinematics@QuaternionDatagram@@V?$allocator@UKinematics@QuaternionDatagram@@@std@@@std@@QEBA_KXZ 0000000140025fa0 f i quaterniondatagram.obj
 0001:00024fe0       ??0ScaleDatagram@@QEAA@XZ  0000000140025fe0 f   scaledatagram.obj
 0001:00025050       ??1ScaleDatagram@@UEAA@XZ  0000000140026050 f   scaledatagram.obj
 0001:000250a0       ?printData@ScaleDatagram@@UEBAXXZ 00000001400260a0 f   scaledatagram.obj
 0001:000250b0       ?deserializeData@ScaleDatagram@@MEAAXAEAVStreamer@@@Z 00000001400260b0 f   scaledatagram.obj
 0001:00025360       ??$?0$$V@?$_Compressed_pair@U?$_Wrap_alloc@V?$allocator@UNullPoseDefinition@ScaleDatagram@@@std@@@std@@V?$_Vector_val@U?$_Simple_types@UNullPoseDefinition@ScaleDatagram@@@std@@@2@$00@std@@QEAA@U_Zero_then_variadic_args_t@1@@Z 0000000140026360 f i scaledatagram.obj
 0001:00025390       ??$?0$$V@?$_Compressed_pair@U?$_Wrap_alloc@V?$allocator@UPointDefinition@ScaleDatagram@@@std@@@std@@V?$_Vector_val@U?$_Simple_types@UPointDefinition@ScaleDatagram@@@std@@@2@$00@std@@QEAA@U_Zero_then_variadic_args_t@1@@Z 0000000140026390 f i scaledatagram.obj
 0001:000253c0       ??$?0AEAU?$_Wrap_alloc@V?$allocator@UNullPoseDefinition@ScaleDatagram@@@std@@@std@@@?$_Wrap_alloc@V?$allocator@U_Container_proxy@std@@@std@@@std@@QEAA@AEAU?$_Wrap_alloc@V?$allocator@UNullPoseDefinition@ScaleDatagram@@@std@@@1@@Z 00000001400263c0 f i scaledatagram.obj
 0001:000253f0       ??$?0AEAU?$_Wrap_alloc@V?$allocator@UPointDefinition@ScaleDatagram@@@std@@@std@@@?$_Wrap_alloc@V?$allocator@U_Container_proxy@std@@@std@@@std@@QEAA@AEAU?$_Wrap_alloc@V?$allocator@UPointDefinition@ScaleDatagram@@@std@@@1@@Z 00000001400263f0 f i scaledatagram.obj
 0001:00025420       ??$?0UNullPoseDefinition@ScaleDatagram@@@?$allocator@U_Container_proxy@std@@@std@@QEAA@AEBV?$allocator@UNullPoseDefinition@ScaleDatagram@@@1@@Z 0000000140026420 f i scaledatagram.obj
 0001:00025430       ??$?0UPointDefinition@ScaleDatagram@@@?$allocator@U_Container_proxy@std@@@std@@QEAA@AEBV?$allocator@UPointDefinition@ScaleDatagram@@@1@@Z 0000000140026430 f i scaledatagram.obj
 0001:00025440       ??$_Destroy_range1@V?$allocator@UNullPoseDefinition@ScaleDatagram@@@std@@PEAUNullPoseDefinition@ScaleDatagram@@@std@@YAXPEAUNullPoseDefinition@ScaleDatagram@@0AEAU?$_Wrap_alloc@V?$allocator@UNullPoseDefinition@ScaleDatagram@@@std@@@0@U?$integral_constant@_N$0A@@0@@Z 0000000140026440 f i scaledatagram.obj
 0001:000254a0       ??$_Destroy_range1@V?$allocator@UPointDefinition@ScaleDatagram@@@std@@PEAUPointDefinition@ScaleDatagram@@@std@@YAXPEAUPointDefinition@ScaleDatagram@@0AEAU?$_Wrap_alloc@V?$allocator@UPointDefinition@ScaleDatagram@@@std@@@0@U?$integral_constant@_N$0A@@0@@Z 00000001400264a0 f i scaledatagram.obj
 0001:00025500       ??$_Destroy_range@V?$allocator@UNullPoseDefinition@ScaleDatagram@@@std@@PEAUNullPoseDefinition@ScaleDatagram@@@std@@YAXPEAUNullPoseDefinition@ScaleDatagram@@0AEAU?$_Wrap_alloc@V?$allocator@UNullPoseDefinition@ScaleDatagram@@@std@@@0@@Z 0000000140026500 f i scaledatagram.obj
 0001:00025540       ??$_Destroy_range@V?$allocator@UPointDefinition@ScaleDatagram@@@std@@PEAUPointDefinition@ScaleDatagram@@@std@@YAXPEAUPointDefinition@ScaleDatagram@@0AEAU?$_Wrap_alloc@V?$allocator@UPointDefinition@ScaleDatagram@@@std@@@0@@Z 0000000140026540 f i scaledatagram.obj
 0001:00025580       ??$_Ptr_move_cat@UNullPoseDefinition@ScaleDatagram@@U12@@std@@YA?AU_General_ptr_iterator_tag@0@AEBQEAUNullPoseDefinition@ScaleDatagram@@0@Z 0000000140026580 f i scaledatagram.obj
 0001:000255b0       ??$_Ptr_move_cat@UPointDefinition@ScaleDatagram@@U12@@std@@YA?AU_General_ptr_iterator_tag@0@AEBQEAUPointDefinition@ScaleDatagram@@0@Z 00000001400265b0 f i scaledatagram.obj
 0001:000255e0       ??$_Rechecked@PEAUNullPoseDefinition@ScaleDatagram@@PEAU12@@std@@YAAEAPEAUNullPoseDefinition@ScaleDatagram@@AEAPEAU12@PEAU12@@Z 00000001400265e0 f i scaledatagram.obj
 0001:00025600       ??$_Rechecked@PEAUPointDefinition@ScaleDatagram@@PEAU12@@std@@YAAEAPEAUPointDefinition@ScaleDatagram@@AEAPEAU12@PEAU12@@Z 0000000140026600 f i scaledatagram.obj
 0001:00025620       ??$_Umove@PEAUNullPoseDefinition@ScaleDatagram@@@?$vector@UNullPoseDefinition@ScaleDatagram@@V?$allocator@UNullPoseDefinition@ScaleDatagram@@@std@@@std@@IEAAPEAUNullPoseDefinition@ScaleDatagram@@PEAU23@00@Z 0000000140026620 f i scaledatagram.obj
 0001:00025660       ??$_Umove@PEAUPointDefinition@ScaleDatagram@@@?$vector@UPointDefinition@ScaleDatagram@@V?$allocator@UPointDefinition@ScaleDatagram@@@std@@@std@@IEAAPEAUPointDefinition@ScaleDatagram@@PEAU23@00@Z 0000000140026660 f i scaledatagram.obj
 0001:000256a0       ??$_Unchecked@PEAUNullPoseDefinition@ScaleDatagram@@@std@@YAPEAUNullPoseDefinition@ScaleDatagram@@PEAU12@@Z 00000001400266a0 f i scaledatagram.obj
 0001:000256b0       ??$_Unchecked@PEAUPointDefinition@ScaleDatagram@@@std@@YAPEAUPointDefinition@ScaleDatagram@@PEAU12@@Z 00000001400266b0 f i scaledatagram.obj
 0001:000256c0       ??$_Unfancy@UNullPoseDefinition@ScaleDatagram@@@std@@YAPEAUNullPoseDefinition@ScaleDatagram@@PEAU12@@Z 00000001400266c0 f i scaledatagram.obj
 0001:000256d0       ??$_Unfancy@UPointDefinition@ScaleDatagram@@@std@@YAPEAUPointDefinition@ScaleDatagram@@PEAU12@@Z 00000001400266d0 f i scaledatagram.obj
 0001:000256e0       ??$_Uninitialized_move@PEAUNullPoseDefinition@ScaleDatagram@@PEAU12@V?$allocator@UNullPoseDefinition@ScaleDatagram@@@std@@@std@@YAPEAUNullPoseDefinition@ScaleDatagram@@PEAU12@00AEAU?$_Wrap_alloc@V?$allocator@UNullPoseDefinition@ScaleDatagram@@@std@@@0@@Z 00000001400266e0 f i scaledatagram.obj
 0001:00025760       ??$_Uninitialized_move@PEAUPointDefinition@ScaleDatagram@@PEAU12@V?$allocator@UPointDefinition@ScaleDatagram@@@std@@@std@@YAPEAUPointDefinition@ScaleDatagram@@PEAU12@00AEAU?$_Wrap_alloc@V?$allocator@UPointDefinition@ScaleDatagram@@@std@@@0@@Z 0000000140026760 f i scaledatagram.obj
 0001:000257e0       ??$_Uninitialized_move_al_unchecked1@PEAUNullPoseDefinition@ScaleDatagram@@PEAU12@V?$allocator@UNullPoseDefinition@ScaleDatagram@@@std@@@std@@YAPEAUNullPoseDefinition@ScaleDatagram@@PEAU12@00AEAU?$_Wrap_alloc@V?$allocator@UNullPoseDefinition@ScaleDatagram@@@std@@@0@U_General_ptr_iterator_tag@0@U_Any_tag@0@@Z 00000001400267e0 f i scaledatagram.obj
 0001:00025870       ??$_Uninitialized_move_al_unchecked1@PEAUPointDefinition@ScaleDatagram@@PEAU12@V?$allocator@UPointDefinition@ScaleDatagram@@@std@@@std@@YAPEAUPointDefinition@ScaleDatagram@@PEAU12@00AEAU?$_Wrap_alloc@V?$allocator@UPointDefinition@ScaleDatagram@@@std@@@0@U_General_ptr_iterator_tag@0@U_Any_tag@0@@Z 0000000140026870 f i scaledatagram.obj
 0001:00025900       ??$_Uninitialized_move_al_unchecked@PEAUNullPoseDefinition@ScaleDatagram@@PEAU12@V?$allocator@UNullPoseDefinition@ScaleDatagram@@@std@@@std@@YAPEAUNullPoseDefinition@ScaleDatagram@@PEAU12@00AEAU?$_Wrap_alloc@V?$allocator@UNullPoseDefinition@ScaleDatagram@@@std@@@0@@Z 0000000140026900 f i scaledatagram.obj
 0001:00025980       ??$_Uninitialized_move_al_unchecked@PEAUPointDefinition@ScaleDatagram@@PEAU12@V?$allocator@UPointDefinition@ScaleDatagram@@@std@@@std@@YAPEAUPointDefinition@ScaleDatagram@@PEAU12@00AEAU?$_Wrap_alloc@V?$allocator@UPointDefinition@ScaleDatagram@@@std@@@0@@Z 0000000140026980 f i scaledatagram.obj
 0001:00025a00       ??$addressof@$$CBUNullPoseDefinition@ScaleDatagram@@@std@@YAPEBUNullPoseDefinition@ScaleDatagram@@AEBU12@@Z 0000000140026a00 f i scaledatagram.obj
 0001:00025a10       ??$addressof@$$CBUPointDefinition@ScaleDatagram@@@std@@YAPEBUPointDefinition@ScaleDatagram@@AEBU12@@Z 0000000140026a10 f i scaledatagram.obj
 0001:00025a20       ??$construct@UNullPoseDefinition@ScaleDatagram@@AEAU12@@?$_Wrap_alloc@V?$allocator@UNullPoseDefinition@ScaleDatagram@@@std@@@std@@QEAAXPEAUNullPoseDefinition@ScaleDatagram@@AEAU23@@Z 0000000140026a20 f i scaledatagram.obj
 0001:00025a60       ??$construct@UNullPoseDefinition@ScaleDatagram@@AEAU12@@?$allocator@UNullPoseDefinition@ScaleDatagram@@@std@@QEAAXPEAUNullPoseDefinition@ScaleDatagram@@AEAU23@@Z 0000000140026a60 f i scaledatagram.obj
 0001:00025ad0       ??$construct@UNullPoseDefinition@ScaleDatagram@@AEAU12@@?$allocator_traits@V?$allocator@UNullPoseDefinition@ScaleDatagram@@@std@@@std@@SAXAEAV?$allocator@UNullPoseDefinition@ScaleDatagram@@@1@PEAUNullPoseDefinition@ScaleDatagram@@AEAU34@@Z 0000000140026ad0 f i scaledatagram.obj
 0001:00025b10       ??$construct@UNullPoseDefinition@ScaleDatagram@@AEBU12@@?$_Wrap_alloc@V?$allocator@UNullPoseDefinition@ScaleDatagram@@@std@@@std@@QEAAXPEAUNullPoseDefinition@ScaleDatagram@@AEBU23@@Z 0000000140026b10 f i scaledatagram.obj
 0001:00025b50       ??$construct@UNullPoseDefinition@ScaleDatagram@@AEBU12@@?$allocator@UNullPoseDefinition@ScaleDatagram@@@std@@QEAAXPEAUNullPoseDefinition@ScaleDatagram@@AEBU23@@Z 0000000140026b50 f i scaledatagram.obj
 0001:00025bc0       ??$construct@UNullPoseDefinition@ScaleDatagram@@AEBU12@@?$allocator_traits@V?$allocator@UNullPoseDefinition@ScaleDatagram@@@std@@@std@@SAXAEAV?$allocator@UNullPoseDefinition@ScaleDatagram@@@1@PEAUNullPoseDefinition@ScaleDatagram@@AEBU34@@Z 0000000140026bc0 f i scaledatagram.obj
 0001:00025c00       ??$construct@UNullPoseDefinition@ScaleDatagram@@U12@@?$_Wrap_alloc@V?$allocator@UNullPoseDefinition@ScaleDatagram@@@std@@@std@@QEAAXPEAUNullPoseDefinition@ScaleDatagram@@$$QEAU23@@Z 0000000140026c00 f i scaledatagram.obj
 0001:00025c40       ??$construct@UNullPoseDefinition@ScaleDatagram@@U12@@?$allocator@UNullPoseDefinition@ScaleDatagram@@@std@@QEAAXPEAUNullPoseDefinition@ScaleDatagram@@$$QEAU23@@Z 0000000140026c40 f i scaledatagram.obj
 0001:00025ca0       ??$construct@UNullPoseDefinition@ScaleDatagram@@U12@@?$allocator_traits@V?$allocator@UNullPoseDefinition@ScaleDatagram@@@std@@@std@@SAXAEAV?$allocator@UNullPoseDefinition@ScaleDatagram@@@1@PEAUNullPoseDefinition@ScaleDatagram@@$$QEAU34@@Z 0000000140026ca0 f i scaledatagram.obj
 0001:00025ce0       ??$construct@UPointDefinition@ScaleDatagram@@AEAU12@@?$_Wrap_alloc@V?$allocator@UPointDefinition@ScaleDatagram@@@std@@@std@@QEAAXPEAUPointDefinition@ScaleDatagram@@AEAU23@@Z 0000000140026ce0 f i scaledatagram.obj
 0001:00025d20       ??$construct@UPointDefinition@ScaleDatagram@@AEAU12@@?$allocator@UPointDefinition@ScaleDatagram@@@std@@QEAAXPEAUPointDefinition@ScaleDatagram@@AEAU23@@Z 0000000140026d20 f i scaledatagram.obj
 0001:00025d90       ??$construct@UPointDefinition@ScaleDatagram@@AEAU12@@?$allocator_traits@V?$allocator@UPointDefinition@ScaleDatagram@@@std@@@std@@SAXAEAV?$allocator@UPointDefinition@ScaleDatagram@@@1@PEAUPointDefinition@ScaleDatagram@@AEAU34@@Z 0000000140026d90 f i scaledatagram.obj
 0001:00025dd0       ??$construct@UPointDefinition@ScaleDatagram@@AEBU12@@?$_Wrap_alloc@V?$allocator@UPointDefinition@ScaleDatagram@@@std@@@std@@QEAAXPEAUPointDefinition@ScaleDatagram@@AEBU23@@Z 0000000140026dd0 f i scaledatagram.obj
 0001:00025e10       ??$construct@UPointDefinition@ScaleDatagram@@AEBU12@@?$allocator@UPointDefinition@ScaleDatagram@@@std@@QEAAXPEAUPointDefinition@ScaleDatagram@@AEBU23@@Z 0000000140026e10 f i scaledatagram.obj
 0001:00025e80       ??$construct@UPointDefinition@ScaleDatagram@@AEBU12@@?$allocator_traits@V?$allocator@UPointDefinition@ScaleDatagram@@@std@@@std@@SAXAEAV?$allocator@UPointDefinition@ScaleDatagram@@@1@PEAUPointDefinition@ScaleDatagram@@AEBU34@@Z 0000000140026e80 f i scaledatagram.obj
 0001:00025ec0       ??$construct@UPointDefinition@ScaleDatagram@@U12@@?$_Wrap_alloc@V?$allocator@UPointDefinition@ScaleDatagram@@@std@@@std@@QEAAXPEAUPointDefinition@ScaleDatagram@@$$QEAU23@@Z 0000000140026ec0 f i scaledatagram.obj
 0001:00025f00       ??$construct@UPointDefinition@ScaleDatagram@@U12@@?$allocator@UPointDefinition@ScaleDatagram@@@std@@QEAAXPEAUPointDefinition@ScaleDatagram@@$$QEAU23@@Z 0000000140026f00 f i scaledatagram.obj
 0001:00025f60       ??$construct@UPointDefinition@ScaleDatagram@@U12@@?$allocator_traits@V?$allocator@UPointDefinition@ScaleDatagram@@@std@@@std@@SAXAEAV?$allocator@UPointDefinition@ScaleDatagram@@@1@PEAUPointDefinition@ScaleDatagram@@$$QEAU34@@Z 0000000140026f60 f i scaledatagram.obj
 0001:00025fa0       ??$destroy@UNullPoseDefinition@ScaleDatagram@@@?$_Wrap_alloc@V?$allocator@UNullPoseDefinition@ScaleDatagram@@@std@@@std@@QEAAXPEAUNullPoseDefinition@ScaleDatagram@@@Z 0000000140026fa0 f i scaledatagram.obj
 0001:00025fd0       ??$destroy@UNullPoseDefinition@ScaleDatagram@@@?$allocator@UNullPoseDefinition@ScaleDatagram@@@std@@QEAAXPEAUNullPoseDefinition@ScaleDatagram@@@Z 0000000140026fd0 f i scaledatagram.obj
 0001:00025ff0       ??$destroy@UNullPoseDefinition@ScaleDatagram@@@?$allocator_traits@V?$allocator@UNullPoseDefinition@ScaleDatagram@@@std@@@std@@SAXAEAV?$allocator@UNullPoseDefinition@ScaleDatagram@@@1@PEAUNullPoseDefinition@ScaleDatagram@@@Z 0000000140026ff0 f i scaledatagram.obj
 0001:00026020       ??$destroy@UPointDefinition@ScaleDatagram@@@?$_Wrap_alloc@V?$allocator@UPointDefinition@ScaleDatagram@@@std@@@std@@QEAAXPEAUPointDefinition@ScaleDatagram@@@Z 0000000140027020 f i scaledatagram.obj
 0001:00026050       ??$destroy@UPointDefinition@ScaleDatagram@@@?$allocator@UPointDefinition@ScaleDatagram@@@std@@QEAAXPEAUPointDefinition@ScaleDatagram@@@Z 0000000140027050 f i scaledatagram.obj
 0001:00026070       ??$destroy@UPointDefinition@ScaleDatagram@@@?$allocator_traits@V?$allocator@UPointDefinition@ScaleDatagram@@@std@@@std@@SAXAEAV?$allocator@UPointDefinition@ScaleDatagram@@@1@PEAUPointDefinition@ScaleDatagram@@@Z 0000000140027070 f i scaledatagram.obj
 0001:000260a0       ??$forward@AEAU?$_Wrap_alloc@V?$allocator@UNullPoseDefinition@ScaleDatagram@@@std@@@std@@@std@@YAAEAU?$_Wrap_alloc@V?$allocator@UNullPoseDefinition@ScaleDatagram@@@std@@@0@AEAU10@@Z 00000001400270a0 f i scaledatagram.obj
 0001:000260b0       ??$forward@AEAU?$_Wrap_alloc@V?$allocator@UPointDefinition@ScaleDatagram@@@std@@@std@@@std@@YAAEAU?$_Wrap_alloc@V?$allocator@UPointDefinition@ScaleDatagram@@@std@@@0@AEAU10@@Z 00000001400270b0 f i scaledatagram.obj
 0001:000260c0       ??$forward@AEAUNullPoseDefinition@ScaleDatagram@@@std@@YAAEAUNullPoseDefinition@ScaleDatagram@@AEAU12@@Z 00000001400270c0 f i scaledatagram.obj
 0001:000260d0       ??$forward@AEAUPointDefinition@ScaleDatagram@@@std@@YAAEAUPointDefinition@ScaleDatagram@@AEAU12@@Z 00000001400270d0 f i scaledatagram.obj
 0001:000260e0       ??$forward@AEBUNullPoseDefinition@ScaleDatagram@@@std@@YAAEBUNullPoseDefinition@ScaleDatagram@@AEBU12@@Z 00000001400270e0 f i scaledatagram.obj
 0001:000260f0       ??$forward@AEBUPointDefinition@ScaleDatagram@@@std@@YAAEBUPointDefinition@ScaleDatagram@@AEBU12@@Z 00000001400270f0 f i scaledatagram.obj
 0001:00026100       ??$forward@UNullPoseDefinition@ScaleDatagram@@@std@@YA$$QEAUNullPoseDefinition@ScaleDatagram@@AEAU12@@Z 0000000140027100 f i scaledatagram.obj
 0001:00026110       ??$forward@UPointDefinition@ScaleDatagram@@@std@@YA$$QEAUPointDefinition@ScaleDatagram@@AEAU12@@Z 0000000140027110 f i scaledatagram.obj
 0001:00026120       ??$move@AEAUNullPoseDefinition@ScaleDatagram@@@std@@YA$$QEAUNullPoseDefinition@ScaleDatagram@@AEAU12@@Z 0000000140027120 f i scaledatagram.obj
 0001:00026130       ??$move@AEAUPointDefinition@ScaleDatagram@@@std@@YA$$QEAUPointDefinition@ScaleDatagram@@AEAU12@@Z 0000000140027130 f i scaledatagram.obj
 0001:00026140       ??0?$_Vector_alloc@U?$_Vec_base_types@UNullPoseDefinition@ScaleDatagram@@V?$allocator@UNullPoseDefinition@ScaleDatagram@@@std@@@std@@@std@@QEAA@XZ 0000000140027140 f i scaledatagram.obj
 0001:00026180       ??0?$_Vector_alloc@U?$_Vec_base_types@UPointDefinition@ScaleDatagram@@V?$allocator@UPointDefinition@ScaleDatagram@@@std@@@std@@@std@@QEAA@XZ 0000000140027180 f i scaledatagram.obj
 0001:000261c0       ??0?$_Vector_val@U?$_Simple_types@UNullPoseDefinition@ScaleDatagram@@@std@@@std@@QEAA@XZ 00000001400271c0 f i scaledatagram.obj
 0001:00026210       ??0?$_Vector_val@U?$_Simple_types@UPointDefinition@ScaleDatagram@@@std@@@std@@QEAA@XZ 0000000140027210 f i scaledatagram.obj
 0001:00026260       ??0?$_Wrap_alloc@V?$allocator@UNullPoseDefinition@ScaleDatagram@@@std@@@std@@QEAA@XZ 0000000140027260 f i scaledatagram.obj
 0001:00026280       ??0?$_Wrap_alloc@V?$allocator@UPointDefinition@ScaleDatagram@@@std@@@std@@QEAA@XZ 0000000140027280 f i scaledatagram.obj
 0001:000262a0       ??0?$allocator@UNullPoseDefinition@ScaleDatagram@@@std@@QEAA@XZ 00000001400272a0 f i scaledatagram.obj
 0001:000262b0       ??0?$allocator@UPointDefinition@ScaleDatagram@@@std@@QEAA@XZ 00000001400272b0 f i scaledatagram.obj
 0001:000262c0       ??0?$vector@UNullPoseDefinition@ScaleDatagram@@V?$allocator@UNullPoseDefinition@ScaleDatagram@@@std@@@std@@QEAA@XZ 00000001400272c0 f i scaledatagram.obj
 0001:000262f0       ??0?$vector@UPointDefinition@ScaleDatagram@@V?$allocator@UPointDefinition@ScaleDatagram@@@std@@@std@@QEAA@XZ 00000001400272f0 f i scaledatagram.obj
 0001:00026320       ??0NullPoseDefinition@ScaleDatagram@@QEAA@$$QEAU01@@Z 0000000140027320 f i scaledatagram.obj
 0001:00026370       ??0NullPoseDefinition@ScaleDatagram@@QEAA@AEBU01@@Z 0000000140027370 f i scaledatagram.obj
 0001:000263c0       ??0NullPoseDefinition@ScaleDatagram@@QEAA@XZ 00000001400273c0 f i scaledatagram.obj
 0001:000263e0       ??0PointDefinition@ScaleDatagram@@QEAA@$$QEAU01@@Z 00000001400273e0 f i scaledatagram.obj
 0001:00026470       ??0PointDefinition@ScaleDatagram@@QEAA@AEBU01@@Z 0000000140027470 f i scaledatagram.obj
 0001:00026500       ??0PointDefinition@ScaleDatagram@@QEAA@XZ 0000000140027500 f i scaledatagram.obj
 0001:00026530       ??1?$_Compressed_pair@U?$_Wrap_alloc@V?$allocator@UNullPoseDefinition@ScaleDatagram@@@std@@@std@@V?$_Vector_val@U?$_Simple_types@UNullPoseDefinition@ScaleDatagram@@@std@@@2@$00@std@@QEAA@XZ 0000000140027530 f i scaledatagram.obj
 0001:00026550       ??1?$_Compressed_pair@U?$_Wrap_alloc@V?$allocator@UPointDefinition@ScaleDatagram@@@std@@@std@@V?$_Vector_val@U?$_Simple_types@UPointDefinition@ScaleDatagram@@@std@@@2@$00@std@@QEAA@XZ 0000000140027550 f i scaledatagram.obj
 0001:00026570       ??1?$_Vector_alloc@U?$_Vec_base_types@UNullPoseDefinition@ScaleDatagram@@V?$allocator@UNullPoseDefinition@ScaleDatagram@@@std@@@std@@@std@@QEAA@XZ 0000000140027570 f i scaledatagram.obj
 0001:000265a0       ??1?$_Vector_alloc@U?$_Vec_base_types@UPointDefinition@ScaleDatagram@@V?$allocator@UPointDefinition@ScaleDatagram@@@std@@@std@@@std@@QEAA@XZ 00000001400275a0 f i scaledatagram.obj
 0001:000265d0       ??1?$_Vector_val@U?$_Simple_types@UNullPoseDefinition@ScaleDatagram@@@std@@@std@@QEAA@XZ 00000001400275d0 f i scaledatagram.obj
 0001:000265f0       ??1?$_Vector_val@U?$_Simple_types@UPointDefinition@ScaleDatagram@@@std@@@std@@QEAA@XZ 00000001400275f0 f i scaledatagram.obj
 0001:00026610       ??1?$vector@UNullPoseDefinition@ScaleDatagram@@V?$allocator@UNullPoseDefinition@ScaleDatagram@@@std@@@std@@QEAA@XZ 0000000140027610 f i scaledatagram.obj
 0001:00026640       ??1?$vector@UPointDefinition@ScaleDatagram@@V?$allocator@UPointDefinition@ScaleDatagram@@@std@@@std@@QEAA@XZ 0000000140027640 f i scaledatagram.obj
 0001:00026670       ??1NullPoseDefinition@ScaleDatagram@@QEAA@XZ 0000000140027670 f i scaledatagram.obj
 0001:00026690       ??1PointDefinition@ScaleDatagram@@QEAA@XZ 0000000140027690 f i scaledatagram.obj
 0001:000266b0       ??_GNullPoseDefinition@ScaleDatagram@@QEAAPEAXI@Z 00000001400276b0 f i scaledatagram.obj
 0001:000266f0       ??_GPointDefinition@ScaleDatagram@@QEAAPEAXI@Z 00000001400276f0 f i scaledatagram.obj
 0001:00026730       ??_EScaleDatagram@@UEAAPEAXI@Z 0000000140027730 f i scaledatagram.obj
 0001:00026730       ??_GScaleDatagram@@UEAAPEAXI@Z 0000000140027730 f i scaledatagram.obj
 0001:00026770       ?_Alloc_proxy@?$_Vector_alloc@U?$_Vec_base_types@UNullPoseDefinition@ScaleDatagram@@V?$allocator@UNullPoseDefinition@ScaleDatagram@@@std@@@std@@@std@@QEAAXXZ 0000000140027770 f i scaledatagram.obj
 0001:00026820       ?_Alloc_proxy@?$_Vector_alloc@U?$_Vec_base_types@UPointDefinition@ScaleDatagram@@V?$allocator@UPointDefinition@ScaleDatagram@@@std@@@std@@@std@@QEAAXXZ 0000000140027820 f i scaledatagram.obj
 0001:000268d0       ?_Destroy@?$vector@UNullPoseDefinition@ScaleDatagram@@V?$allocator@UNullPoseDefinition@ScaleDatagram@@@std@@@std@@IEAAXPEAUNullPoseDefinition@ScaleDatagram@@0@Z 00000001400278d0 f i scaledatagram.obj
 0001:00026910       ?_Destroy@?$vector@UPointDefinition@ScaleDatagram@@V?$allocator@UPointDefinition@ScaleDatagram@@@std@@@std@@IEAAXPEAUPointDefinition@ScaleDatagram@@0@Z 0000000140027910 f i scaledatagram.obj
 0001:00026950       ?_Free_proxy@?$_Vector_alloc@U?$_Vec_base_types@UNullPoseDefinition@ScaleDatagram@@V?$allocator@UNullPoseDefinition@ScaleDatagram@@@std@@@std@@@std@@QEAAXXZ 0000000140027950 f i scaledatagram.obj
 0001:000269e0       ?_Free_proxy@?$_Vector_alloc@U?$_Vec_base_types@UPointDefinition@ScaleDatagram@@V?$allocator@UPointDefinition@ScaleDatagram@@@std@@@std@@@std@@QEAAXXZ 00000001400279e0 f i scaledatagram.obj
 0001:00026a70       ?_Get_data@?$_Vector_alloc@U?$_Vec_base_types@UNullPoseDefinition@ScaleDatagram@@V?$allocator@UNullPoseDefinition@ScaleDatagram@@@std@@@std@@@std@@QEAAAEAV?$_Vector_val@U?$_Simple_types@UNullPoseDefinition@ScaleDatagram@@@std@@@2@XZ 0000000140027a70 f i scaledatagram.obj
 0001:00026a90       ?_Get_data@?$_Vector_alloc@U?$_Vec_base_types@UNullPoseDefinition@ScaleDatagram@@V?$allocator@UNullPoseDefinition@ScaleDatagram@@@std@@@std@@@std@@QEBAAEBV?$_Vector_val@U?$_Simple_types@UNullPoseDefinition@ScaleDatagram@@@std@@@2@XZ 0000000140027a90 f i scaledatagram.obj
 0001:00026ab0       ?_Get_data@?$_Vector_alloc@U?$_Vec_base_types@UPointDefinition@ScaleDatagram@@V?$allocator@UPointDefinition@ScaleDatagram@@@std@@@std@@@std@@QEAAAEAV?$_Vector_val@U?$_Simple_types@UPointDefinition@ScaleDatagram@@@std@@@2@XZ 0000000140027ab0 f i scaledatagram.obj
 0001:00026ad0       ?_Get_data@?$_Vector_alloc@U?$_Vec_base_types@UPointDefinition@ScaleDatagram@@V?$allocator@UPointDefinition@ScaleDatagram@@@std@@@std@@@std@@QEBAAEBV?$_Vector_val@U?$_Simple_types@UPointDefinition@ScaleDatagram@@@std@@@2@XZ 0000000140027ad0 f i scaledatagram.obj
 0001:00026af0       ?_Get_first@?$_Compressed_pair@U?$_Wrap_alloc@V?$allocator@UNullPoseDefinition@ScaleDatagram@@@std@@@std@@V?$_Vector_val@U?$_Simple_types@UNullPoseDefinition@ScaleDatagram@@@std@@@2@$00@std@@QEAAAEAU?$_Wrap_alloc@V?$allocator@UNullPoseDefinition@ScaleDatagram@@@std@@@2@XZ 0000000140027af0 f i scaledatagram.obj
 0001:00026b00       ?_Get_first@?$_Compressed_pair@U?$_Wrap_alloc@V?$allocator@UNullPoseDefinition@ScaleDatagram@@@std@@@std@@V?$_Vector_val@U?$_Simple_types@UNullPoseDefinition@ScaleDatagram@@@std@@@2@$00@std@@QEBAAEBU?$_Wrap_alloc@V?$allocator@UNullPoseDefinition@ScaleDatagram@@@std@@@2@XZ 0000000140027b00 f i scaledatagram.obj
 0001:00026b10       ?_Get_first@?$_Compressed_pair@U?$_Wrap_alloc@V?$allocator@UPointDefinition@ScaleDatagram@@@std@@@std@@V?$_Vector_val@U?$_Simple_types@UPointDefinition@ScaleDatagram@@@std@@@2@$00@std@@QEAAAEAU?$_Wrap_alloc@V?$allocator@UPointDefinition@ScaleDatagram@@@std@@@2@XZ 0000000140027b10 f i scaledatagram.obj
 0001:00026b20       ?_Get_first@?$_Compressed_pair@U?$_Wrap_alloc@V?$allocator@UPointDefinition@ScaleDatagram@@@std@@@std@@V?$_Vector_val@U?$_Simple_types@UPointDefinition@ScaleDatagram@@@std@@@2@$00@std@@QEBAAEBU?$_Wrap_alloc@V?$allocator@UPointDefinition@ScaleDatagram@@@std@@@2@XZ 0000000140027b20 f i scaledatagram.obj
 0001:00026b30       ?_Get_second@?$_Compressed_pair@U?$_Wrap_alloc@V?$allocator@UNullPoseDefinition@ScaleDatagram@@@std@@@std@@V?$_Vector_val@U?$_Simple_types@UNullPoseDefinition@ScaleDatagram@@@std@@@2@$00@std@@QEAAAEAV?$_Vector_val@U?$_Simple_types@UNullPoseDefinition@ScaleDatagram@@@std@@@2@XZ 0000000140027b30 f i scaledatagram.obj
 0001:00026b40       ?_Get_second@?$_Compressed_pair@U?$_Wrap_alloc@V?$allocator@UNullPoseDefinition@ScaleDatagram@@@std@@@std@@V?$_Vector_val@U?$_Simple_types@UNullPoseDefinition@ScaleDatagram@@@std@@@2@$00@std@@QEBAAEBV?$_Vector_val@U?$_Simple_types@UNullPoseDefinition@ScaleDatagram@@@std@@@2@XZ 0000000140027b40 f i scaledatagram.obj
 0001:00026b50       ?_Get_second@?$_Compressed_pair@U?$_Wrap_alloc@V?$allocator@UPointDefinition@ScaleDatagram@@@std@@@std@@V?$_Vector_val@U?$_Simple_types@UPointDefinition@ScaleDatagram@@@std@@@2@$00@std@@QEAAAEAV?$_Vector_val@U?$_Simple_types@UPointDefinition@ScaleDatagram@@@std@@@2@XZ 0000000140027b50 f i scaledatagram.obj
 0001:00026b60       ?_Get_second@?$_Compressed_pair@U?$_Wrap_alloc@V?$allocator@UPointDefinition@ScaleDatagram@@@std@@@std@@V?$_Vector_val@U?$_Simple_types@UPointDefinition@ScaleDatagram@@@std@@@2@$00@std@@QEBAAEBV?$_Vector_val@U?$_Simple_types@UPointDefinition@ScaleDatagram@@@std@@@2@XZ 0000000140027b60 f i scaledatagram.obj
 0001:00026b70       ?_Getal@?$_Vector_alloc@U?$_Vec_base_types@UNullPoseDefinition@ScaleDatagram@@V?$allocator@UNullPoseDefinition@ScaleDatagram@@@std@@@std@@@std@@QEAAAEAU?$_Wrap_alloc@V?$allocator@UNullPoseDefinition@ScaleDatagram@@@std@@@2@XZ 0000000140027b70 f i scaledatagram.obj
 0001:00026b90       ?_Getal@?$_Vector_alloc@U?$_Vec_base_types@UNullPoseDefinition@ScaleDatagram@@V?$allocator@UNullPoseDefinition@ScaleDatagram@@@std@@@std@@@std@@QEBAAEBU?$_Wrap_alloc@V?$allocator@UNullPoseDefinition@ScaleDatagram@@@std@@@2@XZ 0000000140027b90 f i scaledatagram.obj
 0001:00026bb0       ?_Getal@?$_Vector_alloc@U?$_Vec_base_types@UPointDefinition@ScaleDatagram@@V?$allocator@UPointDefinition@ScaleDatagram@@@std@@@std@@@std@@QEAAAEAU?$_Wrap_alloc@V?$allocator@UPointDefinition@ScaleDatagram@@@std@@@2@XZ 0000000140027bb0 f i scaledatagram.obj
 0001:00026bd0       ?_Getal@?$_Vector_alloc@U?$_Vec_base_types@UPointDefinition@ScaleDatagram@@V?$allocator@UPointDefinition@ScaleDatagram@@@std@@@std@@@std@@QEBAAEBU?$_Wrap_alloc@V?$allocator@UPointDefinition@ScaleDatagram@@@std@@@2@XZ 0000000140027bd0 f i scaledatagram.obj
 0001:00026bf0       ?_Getpfirst@?$_Vector_alloc@U?$_Vec_base_types@UNullPoseDefinition@ScaleDatagram@@V?$allocator@UNullPoseDefinition@ScaleDatagram@@@std@@@std@@@std@@QEBAPEAPEAU_Iterator_base12@2@XZ 0000000140027bf0 f i scaledatagram.obj
 0001:00026c10       ?_Getpfirst@?$_Vector_alloc@U?$_Vec_base_types@UPointDefinition@ScaleDatagram@@V?$allocator@UPointDefinition@ScaleDatagram@@@std@@@std@@@std@@QEBAPEAPEAU_Iterator_base12@2@XZ 0000000140027c10 f i scaledatagram.obj
 0001:00026c30       ?_Grow_to@?$vector@UNullPoseDefinition@ScaleDatagram@@V?$allocator@UNullPoseDefinition@ScaleDatagram@@@std@@@std@@IEBA_K_K@Z 0000000140027c30 f i scaledatagram.obj
 0001:00026ce0       ?_Grow_to@?$vector@UPointDefinition@ScaleDatagram@@V?$allocator@UPointDefinition@ScaleDatagram@@@std@@@std@@IEBA_K_K@Z 0000000140027ce0 f i scaledatagram.obj
 0001:00026d90       ?_Inside@?$vector@UNullPoseDefinition@ScaleDatagram@@V?$allocator@UNullPoseDefinition@ScaleDatagram@@@std@@@std@@IEBA_NPEBUNullPoseDefinition@ScaleDatagram@@@Z 0000000140027d90 f i scaledatagram.obj
 0001:00026df0       ?_Inside@?$vector@UPointDefinition@ScaleDatagram@@V?$allocator@UPointDefinition@ScaleDatagram@@@std@@@std@@IEBA_NPEBUPointDefinition@ScaleDatagram@@@Z 0000000140027df0 f i scaledatagram.obj
 0001:00026e50       ?_Myend@?$_Vector_alloc@U?$_Vec_base_types@UNullPoseDefinition@ScaleDatagram@@V?$allocator@UNullPoseDefinition@ScaleDatagram@@@std@@@std@@@std@@QEAAAEAPEAUNullPoseDefinition@ScaleDatagram@@XZ 0000000140027e50 f i scaledatagram.obj
 0001:00026e70       ?_Myend@?$_Vector_alloc@U?$_Vec_base_types@UNullPoseDefinition@ScaleDatagram@@V?$allocator@UNullPoseDefinition@ScaleDatagram@@@std@@@std@@@std@@QEBAAEBQEAUNullPoseDefinition@ScaleDatagram@@XZ 0000000140027e70 f i scaledatagram.obj
 0001:00026e90       ?_Myend@?$_Vector_alloc@U?$_Vec_base_types@UPointDefinition@ScaleDatagram@@V?$allocator@UPointDefinition@ScaleDatagram@@@std@@@std@@@std@@QEAAAEAPEAUPointDefinition@ScaleDatagram@@XZ 0000000140027e90 f i scaledatagram.obj
 0001:00026eb0       ?_Myend@?$_Vector_alloc@U?$_Vec_base_types@UPointDefinition@ScaleDatagram@@V?$allocator@UPointDefinition@ScaleDatagram@@@std@@@std@@@std@@QEBAAEBQEAUPointDefinition@ScaleDatagram@@XZ 0000000140027eb0 f i scaledatagram.obj
 0001:00026ed0       ?_Myfirst@?$_Vector_alloc@U?$_Vec_base_types@UNullPoseDefinition@ScaleDatagram@@V?$allocator@UNullPoseDefinition@ScaleDatagram@@@std@@@std@@@std@@QEAAAEAPEAUNullPoseDefinition@ScaleDatagram@@XZ 0000000140027ed0 f i scaledatagram.obj
 0001:00026ef0       ?_Myfirst@?$_Vector_alloc@U?$_Vec_base_types@UNullPoseDefinition@ScaleDatagram@@V?$allocator@UNullPoseDefinition@ScaleDatagram@@@std@@@std@@@std@@QEBAAEBQEAUNullPoseDefinition@ScaleDatagram@@XZ 0000000140027ef0 f i scaledatagram.obj
 0001:00026f10       ?_Myfirst@?$_Vector_alloc@U?$_Vec_base_types@UPointDefinition@ScaleDatagram@@V?$allocator@UPointDefinition@ScaleDatagram@@@std@@@std@@@std@@QEAAAEAPEAUPointDefinition@ScaleDatagram@@XZ 0000000140027f10 f i scaledatagram.obj
 0001:00026f30       ?_Myfirst@?$_Vector_alloc@U?$_Vec_base_types@UPointDefinition@ScaleDatagram@@V?$allocator@UPointDefinition@ScaleDatagram@@@std@@@std@@@std@@QEBAAEBQEAUPointDefinition@ScaleDatagram@@XZ 0000000140027f30 f i scaledatagram.obj
 0001:00026f50       ?_Mylast@?$_Vector_alloc@U?$_Vec_base_types@UNullPoseDefinition@ScaleDatagram@@V?$allocator@UNullPoseDefinition@ScaleDatagram@@@std@@@std@@@std@@QEAAAEAPEAUNullPoseDefinition@ScaleDatagram@@XZ 0000000140027f50 f i scaledatagram.obj
 0001:00026f70       ?_Mylast@?$_Vector_alloc@U?$_Vec_base_types@UNullPoseDefinition@ScaleDatagram@@V?$allocator@UNullPoseDefinition@ScaleDatagram@@@std@@@std@@@std@@QEBAAEBQEAUNullPoseDefinition@ScaleDatagram@@XZ 0000000140027f70 f i scaledatagram.obj
 0001:00026f90       ?_Mylast@?$_Vector_alloc@U?$_Vec_base_types@UPointDefinition@ScaleDatagram@@V?$allocator@UPointDefinition@ScaleDatagram@@@std@@@std@@@std@@QEAAAEAPEAUPointDefinition@ScaleDatagram@@XZ 0000000140027f90 f i scaledatagram.obj
 0001:00026fb0       ?_Mylast@?$_Vector_alloc@U?$_Vec_base_types@UPointDefinition@ScaleDatagram@@V?$allocator@UPointDefinition@ScaleDatagram@@@std@@@std@@@std@@QEBAAEBQEAUPointDefinition@ScaleDatagram@@XZ 0000000140027fb0 f i scaledatagram.obj
 0001:00026fd0       ?_Myproxy@?$_Vector_alloc@U?$_Vec_base_types@UNullPoseDefinition@ScaleDatagram@@V?$allocator@UNullPoseDefinition@ScaleDatagram@@@std@@@std@@@std@@QEAAAEAPEAU_Container_proxy@2@XZ 0000000140027fd0 f i scaledatagram.obj
 0001:00026ff0       ?_Myproxy@?$_Vector_alloc@U?$_Vec_base_types@UPointDefinition@ScaleDatagram@@V?$allocator@UPointDefinition@ScaleDatagram@@@std@@@std@@@std@@QEAAAEAPEAU_Container_proxy@2@XZ 0000000140027ff0 f i scaledatagram.obj
 0001:00027010       ?_Orphan_all@?$_Vector_alloc@U?$_Vec_base_types@UNullPoseDefinition@ScaleDatagram@@V?$allocator@UNullPoseDefinition@ScaleDatagram@@@std@@@std@@@std@@QEAAXXZ 0000000140028010 f i scaledatagram.obj
 0001:00027030       ?_Orphan_all@?$_Vector_alloc@U?$_Vec_base_types@UPointDefinition@ScaleDatagram@@V?$allocator@UPointDefinition@ScaleDatagram@@@std@@@std@@@std@@QEAAXXZ 0000000140028030 f i scaledatagram.obj
 0001:00027050       ?_Orphan_range@?$vector@UNullPoseDefinition@ScaleDatagram@@V?$allocator@UNullPoseDefinition@ScaleDatagram@@@std@@@std@@IEBAXPEAUNullPoseDefinition@ScaleDatagram@@0@Z 0000000140028050 f i scaledatagram.obj
 0001:00027110       ?_Orphan_range@?$vector@UPointDefinition@ScaleDatagram@@V?$allocator@UPointDefinition@ScaleDatagram@@@std@@@std@@IEBAXPEAUPointDefinition@ScaleDatagram@@0@Z 0000000140028110 f i scaledatagram.obj
 0001:000271d0       ?_Reallocate@?$vector@UNullPoseDefinition@ScaleDatagram@@V?$allocator@UNullPoseDefinition@ScaleDatagram@@@std@@@std@@IEAAX_K@Z 00000001400281d0 f i scaledatagram.obj
 0001:000273a0       ?_Reallocate@?$vector@UPointDefinition@ScaleDatagram@@V?$allocator@UPointDefinition@ScaleDatagram@@@std@@@std@@IEAAX_K@Z 00000001400283a0 f i scaledatagram.obj
 0001:00027570       ?_Reserve@?$vector@UNullPoseDefinition@ScaleDatagram@@V?$allocator@UNullPoseDefinition@ScaleDatagram@@@std@@@std@@IEAAX_K@Z 0000000140028570 f i scaledatagram.obj
 0001:00027600       ?_Reserve@?$vector@UPointDefinition@ScaleDatagram@@V?$allocator@UPointDefinition@ScaleDatagram@@@std@@@std@@IEAAX_K@Z 0000000140028600 f i scaledatagram.obj
 0001:00027690       ?_Tidy@?$vector@UNullPoseDefinition@ScaleDatagram@@V?$allocator@UNullPoseDefinition@ScaleDatagram@@@std@@@std@@IEAAXXZ 0000000140028690 f i scaledatagram.obj
 0001:00027790       ?_Tidy@?$vector@UPointDefinition@ScaleDatagram@@V?$allocator@UPointDefinition@ScaleDatagram@@@std@@@std@@IEAAXXZ 0000000140028790 f i scaledatagram.obj
 0001:00027890       ?_Unused_capacity@?$vector@UNullPoseDefinition@ScaleDatagram@@V?$allocator@UNullPoseDefinition@ScaleDatagram@@@std@@@std@@QEBA_KXZ 0000000140028890 f i scaledatagram.obj
 0001:000278e0       ?_Unused_capacity@?$vector@UPointDefinition@ScaleDatagram@@V?$allocator@UPointDefinition@ScaleDatagram@@@std@@@std@@QEBA_KXZ 00000001400288e0 f i scaledatagram.obj
 0001:00027920       ?_Xlen@?$vector@UNullPoseDefinition@ScaleDatagram@@V?$allocator@UNullPoseDefinition@ScaleDatagram@@@std@@@std@@IEBAXXZ 0000000140028920 f i scaledatagram.obj
 0001:00027940       ?_Xlen@?$vector@UPointDefinition@ScaleDatagram@@V?$allocator@UPointDefinition@ScaleDatagram@@@std@@@std@@IEBAXXZ 0000000140028940 f i scaledatagram.obj
 0001:00027960       ?allocate@?$_Wrap_alloc@V?$allocator@UNullPoseDefinition@ScaleDatagram@@@std@@@std@@QEAAPEAUNullPoseDefinition@ScaleDatagram@@_K@Z 0000000140028960 f i scaledatagram.obj
 0001:00027990       ?allocate@?$_Wrap_alloc@V?$allocator@UPointDefinition@ScaleDatagram@@@std@@@std@@QEAAPEAUPointDefinition@ScaleDatagram@@_K@Z 0000000140028990 f i scaledatagram.obj
 0001:000279c0       ?allocate@?$allocator@UNullPoseDefinition@ScaleDatagram@@@std@@QEAAPEAUNullPoseDefinition@ScaleDatagram@@_K@Z 00000001400289c0 f i scaledatagram.obj
 0001:000279f0       ?allocate@?$allocator@UPointDefinition@ScaleDatagram@@@std@@QEAAPEAUPointDefinition@ScaleDatagram@@_K@Z 00000001400289f0 f i scaledatagram.obj
 0001:00027a20       ?capacity@?$vector@UNullPoseDefinition@ScaleDatagram@@V?$allocator@UNullPoseDefinition@ScaleDatagram@@@std@@@std@@QEBA_KXZ 0000000140028a20 f i scaledatagram.obj
 0001:00027a70       ?capacity@?$vector@UPointDefinition@ScaleDatagram@@V?$allocator@UPointDefinition@ScaleDatagram@@@std@@@std@@QEBA_KXZ 0000000140028a70 f i scaledatagram.obj
 0001:00027ab0       ?deallocate@?$_Wrap_alloc@V?$allocator@UNullPoseDefinition@ScaleDatagram@@@std@@@std@@QEAAXPEAUNullPoseDefinition@ScaleDatagram@@_K@Z 0000000140028ab0 f i scaledatagram.obj
 0001:00027ae0       ?deallocate@?$_Wrap_alloc@V?$allocator@UPointDefinition@ScaleDatagram@@@std@@@std@@QEAAXPEAUPointDefinition@ScaleDatagram@@_K@Z 0000000140028ae0 f i scaledatagram.obj
 0001:00027b10       ?deallocate@?$allocator@UNullPoseDefinition@ScaleDatagram@@@std@@QEAAXPEAUNullPoseDefinition@ScaleDatagram@@_K@Z 0000000140028b10 f i scaledatagram.obj
 0001:00027b40       ?deallocate@?$allocator@UPointDefinition@ScaleDatagram@@@std@@QEAAXPEAUPointDefinition@ScaleDatagram@@_K@Z 0000000140028b40 f i scaledatagram.obj
 0001:00027b70       ?max_size@?$_Wrap_alloc@V?$allocator@UNullPoseDefinition@ScaleDatagram@@@std@@@std@@QEBA_KU_Nil@2@@Z 0000000140028b70 f i scaledatagram.obj
 0001:00027b90       ?max_size@?$_Wrap_alloc@V?$allocator@UPointDefinition@ScaleDatagram@@@std@@@std@@QEBA_KU_Nil@2@@Z 0000000140028b90 f i scaledatagram.obj
 0001:00027bb0       ?max_size@?$allocator@UNullPoseDefinition@ScaleDatagram@@@std@@QEBA_KXZ 0000000140028bb0 f i scaledatagram.obj
 0001:00027bc0       ?max_size@?$allocator@UPointDefinition@ScaleDatagram@@@std@@QEBA_KXZ 0000000140028bc0 f i scaledatagram.obj
 0001:00027bd0       ?max_size@?$allocator_traits@V?$allocator@UNullPoseDefinition@ScaleDatagram@@@std@@@std@@SA_KAEBV?$allocator@UNullPoseDefinition@ScaleDatagram@@@2@@Z 0000000140028bd0 f i scaledatagram.obj
 0001:00027bf0       ?max_size@?$allocator_traits@V?$allocator@UPointDefinition@ScaleDatagram@@@std@@@std@@SA_KAEBV?$allocator@UPointDefinition@ScaleDatagram@@@2@@Z 0000000140028bf0 f i scaledatagram.obj
 0001:00027c10       ?max_size@?$vector@UNullPoseDefinition@ScaleDatagram@@V?$allocator@UNullPoseDefinition@ScaleDatagram@@@std@@@std@@QEBA_KXZ 0000000140028c10 f i scaledatagram.obj
 0001:00027c40       ?max_size@?$vector@UPointDefinition@ScaleDatagram@@V?$allocator@UPointDefinition@ScaleDatagram@@@std@@@std@@QEBA_KXZ 0000000140028c40 f i scaledatagram.obj
 0001:00027c70       ?push_back@?$vector@UNullPoseDefinition@ScaleDatagram@@V?$allocator@UNullPoseDefinition@ScaleDatagram@@@std@@@std@@QEAAXAEBUNullPoseDefinition@ScaleDatagram@@@Z 0000000140028c70 f i scaledatagram.obj
 0001:00027ed0       ?push_back@?$vector@UPointDefinition@ScaleDatagram@@V?$allocator@UPointDefinition@ScaleDatagram@@@std@@@std@@QEAAXAEBUPointDefinition@ScaleDatagram@@@Z 0000000140028ed0 f i scaledatagram.obj
 0001:00028130       ?size@?$vector@UNullPoseDefinition@ScaleDatagram@@V?$allocator@UNullPoseDefinition@ScaleDatagram@@@std@@@std@@QEBA_KXZ 0000000140029130 f i scaledatagram.obj
 0001:00028180       ?size@?$vector@UPointDefinition@ScaleDatagram@@V?$allocator@UPointDefinition@ScaleDatagram@@@std@@@std@@QEBA_KXZ 0000000140029180 f i scaledatagram.obj
 0001:000281c0       ??0Streamer@@QEAA@AEBUXsByteArray@@@Z 00000001400291c0 f   streamer.obj
 0001:00028230       ??1Streamer@@QEAA@XZ       0000000140029230 f   streamer.obj
 0001:00028240       ?read@Streamer@@QEAAXAEAH@Z 0000000140029240 f   streamer.obj
 0001:00028370       ?read@Streamer@@QEAAXAEAC@Z 0000000140029370 f   streamer.obj
 0001:000283e0       ?read@Streamer@@QEAAXAEAF@Z 00000001400293e0 f   streamer.obj
 0001:000284b0       ?read@Streamer@@QEAAXAEAE@Z 00000001400294b0 f   streamer.obj
 0001:00028520       ?read@Streamer@@QEAAXAEAM@Z 0000000140029520 f   streamer.obj
 0001:00028630       ?read@Streamer@@QEAAXAEAV?$basic_string@DU?$char_traits@D@std@@V?$allocator@D@2@@std@@H@Z 0000000140029630 f   streamer.obj
 0001:000286f0       ??0?$IteratorImplBase@$00$$CBEU?$IteratorImplConst@$00@?$XsArrayImpl@E$1?g_xsByteArrayDescriptor@@3UXsArrayDescriptor@@BUXsByteArray@@@@@?$XsArrayImpl@E$1?g_xsByteArrayDescriptor@@3UXsArrayDescriptor@@BUXsByteArray@@@@IEAA@PEAX@Z 00000001400296f0 f i streamer.obj
 0001:00028710       ??0?$IteratorImplConst@$00@?$XsArrayImpl@E$1?g_xsByteArrayDescriptor@@3UXsArrayDescriptor@@BUXsByteArray@@@@QEAA@PEAX@Z 0000000140029710 f i streamer.obj
 0001:00028740       ??C?$IteratorImplBase@$00$$CBEU?$IteratorImplConst@$00@?$XsArrayImpl@E$1?g_xsByteArrayDescriptor@@3UXsArrayDescriptor@@BUXsByteArray@@@@@?$XsArrayImpl@E$1?g_xsByteArrayDescriptor@@3UXsArrayDescriptor@@BUXsByteArray@@@@QEBAPEBEXZ 0000000140029740 f i streamer.obj
 0001:00028760       ?begin@?$XsArrayImpl@E$1?g_xsByteArrayDescriptor@@3UXsArrayDescriptor@@BUXsByteArray@@@@QEBA?AU?$IteratorImplConst@$00@1@XZ 0000000140029760 f i streamer.obj
 0001:00028790       ?data@XsByteArray@@QEBAPEBEXZ 0000000140029790 f i streamer.obj
 0001:000287c0       ?ptr@?$IteratorImplBase@$00$$CBEU?$IteratorImplConst@$00@?$XsArrayImpl@E$1?g_xsByteArrayDescriptor@@3UXsArrayDescriptor@@BUXsByteArray@@@@@?$XsArrayImpl@E$1?g_xsByteArrayDescriptor@@3UXsArrayDescriptor@@BUXsByteArray@@@@QEBAPEAEXZ 00000001400297c0 f i streamer.obj
 0001:000287d0       ??0TimeCodeDatagram@@QEAA@XZ 00000001400297d0 f   timecodedatagram.obj
 0001:00028820       ??1TimeCodeDatagram@@UEAA@XZ 0000000140029820 f   timecodedatagram.obj
 0001:00028850       ?printData@TimeCodeDatagram@@UEBAXXZ 0000000140029850 f   timecodedatagram.obj
 0001:00028860       ?deserializeData@TimeCodeDatagram@@MEAAXAEAVStreamer@@@Z 0000000140029860 f   timecodedatagram.obj
 0001:00028970       ??$__vcrt_va_start_verify_argument_type@QEBD@@YAXXZ 0000000140029970 f i timecodedatagram.obj
 0001:00028980       ??_ETimeCodeDatagram@@UEAAPEAXI@Z 0000000140029980 f i timecodedatagram.obj
 0001:00028980       ??_GTimeCodeDatagram@@UEAAPEAXI@Z 0000000140029980 f i timecodedatagram.obj
 0001:000289c0       __local_stdio_scanf_options 00000001400299c0 f i timecodedatagram.obj
 0001:000289d0       _vsscanf_l                 00000001400299d0 f i timecodedatagram.obj
 0001:00028a20       sscanf                     0000000140029a20 f i timecodedatagram.obj
 0001:00028a80       ??0TrackerKinematicsDatagram@@QEAA@XZ 0000000140029a80 f   trackerkinematicsdatagram.obj
 0001:00028ae0       ??1TrackerKinematicsDatagram@@UEAA@XZ 0000000140029ae0 f   trackerkinematicsdatagram.obj
 0001:00028b20       ?printData@TrackerKinematicsDatagram@@UEBAXXZ 0000000140029b20 f   trackerkinematicsdatagram.obj
 0001:00028b40       ?deserializeData@TrackerKinematicsDatagram@@MEAAXAEAVStreamer@@@Z 0000000140029b40 f   trackerkinematicsdatagram.obj
 0001:00028cf0       ?alignData@TrackerKinematicsDatagram@@QEBA?AV?$vector@MV?$allocator@M@std@@@std@@XZ 0000000140029cf0 f   trackerkinematicsdatagram.obj
 0001:00029070       ?streamData@TrackerKinematicsDatagram@@QEBAXXZ 000000014002a070 f   trackerkinematicsdatagram.obj
 0001:000290e0       ??$?0$$V@?$_Compressed_pair@U?$_Wrap_alloc@V?$allocator@UKinematics@TrackerKinematicsDatagram@@@std@@@std@@V?$_Vector_val@U?$_Simple_types@UKinematics@TrackerKinematicsDatagram@@@std@@@2@$00@std@@QEAA@U_Zero_then_variadic_args_t@1@@Z 000000014002a0e0 f i trackerkinematicsdatagram.obj
 0001:00029110       ??$?0AEAU?$_Wrap_alloc@V?$allocator@UKinematics@TrackerKinematicsDatagram@@@std@@@std@@@?$_Wrap_alloc@V?$allocator@U_Container_proxy@std@@@std@@@std@@QEAA@AEAU?$_Wrap_alloc@V?$allocator@UKinematics@TrackerKinematicsDatagram@@@std@@@1@@Z 000000014002a110 f i trackerkinematicsdatagram.obj
 0001:00029140       ??$?0UKinematics@TrackerKinematicsDatagram@@@?$allocator@U_Container_proxy@std@@@std@@QEAA@AEBV?$allocator@UKinematics@TrackerKinematicsDatagram@@@1@@Z 000000014002a140 f i trackerkinematicsdatagram.obj
 0001:00029150       ??$_Copy_memmove@PEAUKinematics@TrackerKinematicsDatagram@@PEAU12@@std@@YAPEAUKinematics@TrackerKinematicsDatagram@@PEAU12@00@Z 000000014002a150 f i trackerkinematicsdatagram.obj
 0001:000291c0       ??$_Destroy_range1@V?$allocator@UKinematics@TrackerKinematicsDatagram@@@std@@PEAUKinematics@TrackerKinematicsDatagram@@@std@@YAXPEAUKinematics@TrackerKinematicsDatagram@@0AEAU?$_Wrap_alloc@V?$allocator@UKinematics@TrackerKinematicsDatagram@@@std@@@0@U?$integral_constant@_N$00@0@@Z 000000014002a1c0 f i trackerkinematicsdatagram.obj
 0001:000291e0       ??$_Destroy_range@V?$allocator@UKinematics@TrackerKinematicsDatagram@@@std@@PEAUKinematics@TrackerKinematicsDatagram@@@std@@YAXPEAUKinematics@TrackerKinematicsDatagram@@0AEAU?$_Wrap_alloc@V?$allocator@UKinematics@TrackerKinematicsDatagram@@@std@@@0@@Z 000000014002a1e0 f i trackerkinematicsdatagram.obj
 0001:00029220       ??$_Ptr_move_cat@UKinematics@TrackerKinematicsDatagram@@U12@@std@@YA?AU_Really_trivial_ptr_iterator_tag@0@AEBQEAUKinematics@TrackerKinematicsDatagram@@0@Z 000000014002a220 f i trackerkinematicsdatagram.obj
 0001:00029240       ??$_Rechecked@PEAUKinematics@TrackerKinematicsDatagram@@PEAU12@@std@@YAAEAPEAUKinematics@TrackerKinematicsDatagram@@AEAPEAU12@PEAU12@@Z 000000014002a240 f i trackerkinematicsdatagram.obj
 0001:00029260       ??$_Umove@PEAUKinematics@TrackerKinematicsDatagram@@@?$vector@UKinematics@TrackerKinematicsDatagram@@V?$allocator@UKinematics@TrackerKinematicsDatagram@@@std@@@std@@IEAAPEAUKinematics@TrackerKinematicsDatagram@@PEAU23@00@Z 000000014002a260 f i trackerkinematicsdatagram.obj
 0001:000292a0       ??$_Unchecked@PEAUKinematics@TrackerKinematicsDatagram@@@std@@YAPEAUKinematics@TrackerKinematicsDatagram@@PEAU12@@Z 000000014002a2a0 f i trackerkinematicsdatagram.obj
 0001:000292b0       ??$_Unfancy@UKinematics@TrackerKinematicsDatagram@@@std@@YAPEAUKinematics@TrackerKinematicsDatagram@@PEAU12@@Z 000000014002a2b0 f i trackerkinematicsdatagram.obj
 0001:000292c0       ??$_Uninitialized_move@PEAUKinematics@TrackerKinematicsDatagram@@PEAU12@V?$allocator@UKinematics@TrackerKinematicsDatagram@@@std@@@std@@YAPEAUKinematics@TrackerKinematicsDatagram@@PEAU12@00AEAU?$_Wrap_alloc@V?$allocator@UKinematics@TrackerKinematicsDatagram@@@std@@@0@@Z 000000014002a2c0 f i trackerkinematicsdatagram.obj
 0001:00029340       ??$_Uninitialized_move_al_unchecked1@UKinematics@TrackerKinematicsDatagram@@U12@V?$allocator@UKinematics@TrackerKinematicsDatagram@@@std@@@std@@YAPEAUKinematics@TrackerKinematicsDatagram@@PEAU12@00AEAU?$_Wrap_alloc@V?$allocator@UKinematics@TrackerKinematicsDatagram@@@std@@@0@U_Really_trivial_ptr_iterator_tag@0@U?$integral_constant@_N$00@0@@Z 000000014002a340 f i trackerkinematicsdatagram.obj
 0001:00029380       ??$_Uninitialized_move_al_unchecked@PEAUKinematics@TrackerKinematicsDatagram@@PEAU12@V?$allocator@UKinematics@TrackerKinematicsDatagram@@@std@@@std@@YAPEAUKinematics@TrackerKinematicsDatagram@@PEAU12@00AEAU?$_Wrap_alloc@V?$allocator@UKinematics@TrackerKinematicsDatagram@@@std@@@0@@Z 000000014002a380 f i trackerkinematicsdatagram.obj
 0001:000293e0       ??$addressof@$$CBUKinematics@TrackerKinematicsDatagram@@@std@@YAPEBUKinematics@TrackerKinematicsDatagram@@AEBU12@@Z 000000014002a3e0 f i trackerkinematicsdatagram.obj
 0001:000293f0       ??$construct@UKinematics@TrackerKinematicsDatagram@@AEAU12@@?$_Wrap_alloc@V?$allocator@UKinematics@TrackerKinematicsDatagram@@@std@@@std@@QEAAXPEAUKinematics@TrackerKinematicsDatagram@@AEAU23@@Z 000000014002a3f0 f i trackerkinematicsdatagram.obj
 0001:00029430       ??$construct@UKinematics@TrackerKinematicsDatagram@@AEAU12@@?$allocator@UKinematics@TrackerKinematicsDatagram@@@std@@QEAAXPEAUKinematics@TrackerKinematicsDatagram@@AEAU23@@Z 000000014002a430 f i trackerkinematicsdatagram.obj
 0001:000294a0       ??$construct@UKinematics@TrackerKinematicsDatagram@@AEAU12@@?$allocator_traits@V?$allocator@UKinematics@TrackerKinematicsDatagram@@@std@@@std@@SAXAEAV?$allocator@UKinematics@TrackerKinematicsDatagram@@@1@PEAUKinematics@TrackerKinematicsDatagram@@AEAU34@@Z 000000014002a4a0 f i trackerkinematicsdatagram.obj
 0001:000294e0       ??$construct@UKinematics@TrackerKinematicsDatagram@@AEBU12@@?$_Wrap_alloc@V?$allocator@UKinematics@TrackerKinematicsDatagram@@@std@@@std@@QEAAXPEAUKinematics@TrackerKinematicsDatagram@@AEBU23@@Z 000000014002a4e0 f i trackerkinematicsdatagram.obj
 0001:00029520       ??$construct@UKinematics@TrackerKinematicsDatagram@@AEBU12@@?$allocator@UKinematics@TrackerKinematicsDatagram@@@std@@QEAAXPEAUKinematics@TrackerKinematicsDatagram@@AEBU23@@Z 000000014002a520 f i trackerkinematicsdatagram.obj
 0001:00029590       ??$construct@UKinematics@TrackerKinematicsDatagram@@AEBU12@@?$allocator_traits@V?$allocator@UKinematics@TrackerKinematicsDatagram@@@std@@@std@@SAXAEAV?$allocator@UKinematics@TrackerKinematicsDatagram@@@1@PEAUKinematics@TrackerKinematicsDatagram@@AEBU34@@Z 000000014002a590 f i trackerkinematicsdatagram.obj
 0001:000295d0       ??$forward@AEAU?$_Wrap_alloc@V?$allocator@UKinematics@TrackerKinematicsDatagram@@@std@@@std@@@std@@YAAEAU?$_Wrap_alloc@V?$allocator@UKinematics@TrackerKinematicsDatagram@@@std@@@0@AEAU10@@Z 000000014002a5d0 f i trackerkinematicsdatagram.obj
 0001:000295e0       ??$forward@AEAUKinematics@TrackerKinematicsDatagram@@@std@@YAAEAUKinematics@TrackerKinematicsDatagram@@AEAU12@@Z 000000014002a5e0 f i trackerkinematicsdatagram.obj
 0001:000295f0       ??$forward@AEBUKinematics@TrackerKinematicsDatagram@@@std@@YAAEBUKinematics@TrackerKinematicsDatagram@@AEBU12@@Z 000000014002a5f0 f i trackerkinematicsdatagram.obj
 0001:00029600       ??0?$_Iterator012@Urandom_access_iterator_tag@std@@UKinematics@TrackerKinematicsDatagram@@_JPEBU34@AEBU34@U_Iterator_base12@2@@std@@QEAA@XZ 000000014002a600 f i trackerkinematicsdatagram.obj
 0001:00029620       ??0?$_Vector_alloc@U?$_Vec_base_types@UKinematics@TrackerKinematicsDatagram@@V?$allocator@UKinematics@TrackerKinematicsDatagram@@@std@@@std@@@std@@QEAA@XZ 000000014002a620 f i trackerkinematicsdatagram.obj
 0001:00029660       ??0?$_Vector_const_iterator@V?$_Vector_val@U?$_Simple_types@UKinematics@TrackerKinematicsDatagram@@@std@@@std@@@std@@QEAA@PEAUKinematics@TrackerKinematicsDatagram@@PEBU_Container_base12@1@@Z 000000014002a660 f i trackerkinematicsdatagram.obj
 0001:000296b0       ??0?$_Vector_val@U?$_Simple_types@UKinematics@TrackerKinematicsDatagram@@@std@@@std@@QEAA@XZ 000000014002a6b0 f i trackerkinematicsdatagram.obj
 0001:00029700       ??0?$_Wrap_alloc@V?$allocator@UKinematics@TrackerKinematicsDatagram@@@std@@@std@@QEAA@XZ 000000014002a700 f i trackerkinematicsdatagram.obj
 0001:00029720       ??0?$allocator@UKinematics@TrackerKinematicsDatagram@@@std@@QEAA@XZ 000000014002a720 f i trackerkinematicsdatagram.obj
 0001:00029730       ??0?$vector@UKinematics@TrackerKinematicsDatagram@@V?$allocator@UKinematics@TrackerKinematicsDatagram@@@std@@@std@@QEAA@XZ 000000014002a730 f i trackerkinematicsdatagram.obj
 0001:00029760       ??1?$_Compressed_pair@U?$_Wrap_alloc@V?$allocator@UKinematics@TrackerKinematicsDatagram@@@std@@@std@@V?$_Vector_val@U?$_Simple_types@UKinematics@TrackerKinematicsDatagram@@@std@@@2@$00@std@@QEAA@XZ 000000014002a760 f i trackerkinematicsdatagram.obj
 0001:00029780       ??1?$_Iterator012@Urandom_access_iterator_tag@std@@UKinematics@TrackerKinematicsDatagram@@_JPEBU34@AEBU34@U_Iterator_base12@2@@std@@QEAA@XZ 000000014002a780 f i trackerkinematicsdatagram.obj
 0001:000297a0       ??1?$_Vector_alloc@U?$_Vec_base_types@UKinematics@TrackerKinematicsDatagram@@V?$allocator@UKinematics@TrackerKinematicsDatagram@@@std@@@std@@@std@@QEAA@XZ 000000014002a7a0 f i trackerkinematicsdatagram.obj
 0001:000297d0       ??1?$_Vector_const_iterator@V?$_Vector_val@U?$_Simple_types@UKinematics@TrackerKinematicsDatagram@@@std@@@std@@@std@@QEAA@XZ 000000014002a7d0 f i trackerkinematicsdatagram.obj
 0001:000297f0       ??1?$_Vector_val@U?$_Simple_types@UKinematics@TrackerKinematicsDatagram@@@std@@@std@@QEAA@XZ 000000014002a7f0 f i trackerkinematicsdatagram.obj
 0001:00029810       ??1?$vector@UKinematics@TrackerKinematicsDatagram@@V?$allocator@UKinematics@TrackerKinematicsDatagram@@@std@@@std@@QEAA@XZ 000000014002a810 f i trackerkinematicsdatagram.obj
 0001:00029840       ??8?$_Vector_const_iterator@V?$_Vector_val@U?$_Simple_types@UKinematics@TrackerKinematicsDatagram@@@std@@@std@@@std@@QEBA_NAEBV01@@Z 000000014002a840 f i trackerkinematicsdatagram.obj
 0001:00029890       ??9?$_Vector_const_iterator@V?$_Vector_val@U?$_Simple_types@UKinematics@TrackerKinematicsDatagram@@@std@@@std@@@std@@QEBA_NAEBV01@@Z 000000014002a890 f i trackerkinematicsdatagram.obj
 0001:000298d0       ??D?$_Vector_const_iterator@V?$_Vector_val@U?$_Simple_types@UKinematics@TrackerKinematicsDatagram@@@std@@@std@@@std@@QEBAAEBUKinematics@TrackerKinematicsDatagram@@XZ 000000014002a8d0 f i trackerkinematicsdatagram.obj
 0001:000299d0       ??E?$_Vector_const_iterator@V?$_Vector_val@U?$_Simple_types@UKinematics@TrackerKinematicsDatagram@@@std@@@std@@@std@@QEAAAEAV01@XZ 000000014002a9d0 f i trackerkinematicsdatagram.obj
 0001:00029ad0       ??_GTrackerKinematicsDatagram@@UEAAPEAXI@Z 000000014002aad0 f i trackerkinematicsdatagram.obj
 0001:00029ad0       ??_ETrackerKinematicsDatagram@@UEAAPEAXI@Z 000000014002aad0 f i trackerkinematicsdatagram.obj
 0001:00029b10       ?_Alloc_proxy@?$_Vector_alloc@U?$_Vec_base_types@UKinematics@TrackerKinematicsDatagram@@V?$allocator@UKinematics@TrackerKinematicsDatagram@@@std@@@std@@@std@@QEAAXXZ 000000014002ab10 f i trackerkinematicsdatagram.obj
 0001:00029bc0       ?_Compat@?$_Vector_const_iterator@V?$_Vector_val@U?$_Simple_types@UKinematics@TrackerKinematicsDatagram@@@std@@@std@@@std@@QEBAXAEBV12@@Z 000000014002abc0 f i trackerkinematicsdatagram.obj
 0001:00029c90       ?_Destroy@?$vector@UKinematics@TrackerKinematicsDatagram@@V?$allocator@UKinematics@TrackerKinematicsDatagram@@@std@@@std@@IEAAXPEAUKinematics@TrackerKinematicsDatagram@@0@Z 000000014002ac90 f i trackerkinematicsdatagram.obj
 0001:00029cd0       ?_Free_proxy@?$_Vector_alloc@U?$_Vec_base_types@UKinematics@TrackerKinematicsDatagram@@V?$allocator@UKinematics@TrackerKinematicsDatagram@@@std@@@std@@@std@@QEAAXXZ 000000014002acd0 f i trackerkinematicsdatagram.obj
 0001:00029d60       ?_Get_data@?$_Vector_alloc@U?$_Vec_base_types@UKinematics@TrackerKinematicsDatagram@@V?$allocator@UKinematics@TrackerKinematicsDatagram@@@std@@@std@@@std@@QEAAAEAV?$_Vector_val@U?$_Simple_types@UKinematics@TrackerKinematicsDatagram@@@std@@@2@XZ 000000014002ad60 f i trackerkinematicsdatagram.obj
 0001:00029d80       ?_Get_data@?$_Vector_alloc@U?$_Vec_base_types@UKinematics@TrackerKinematicsDatagram@@V?$allocator@UKinematics@TrackerKinematicsDatagram@@@std@@@std@@@std@@QEBAAEBV?$_Vector_val@U?$_Simple_types@UKinematics@TrackerKinematicsDatagram@@@std@@@2@XZ 000000014002ad80 f i trackerkinematicsdatagram.obj
 0001:00029da0       ?_Get_first@?$_Compressed_pair@U?$_Wrap_alloc@V?$allocator@UKinematics@TrackerKinematicsDatagram@@@std@@@std@@V?$_Vector_val@U?$_Simple_types@UKinematics@TrackerKinematicsDatagram@@@std@@@2@$00@std@@QEAAAEAU?$_Wrap_alloc@V?$allocator@UKinematics@TrackerKinematicsDatagram@@@std@@@2@XZ 000000014002ada0 f i trackerkinematicsdatagram.obj
 0001:00029db0       ?_Get_first@?$_Compressed_pair@U?$_Wrap_alloc@V?$allocator@UKinematics@TrackerKinematicsDatagram@@@std@@@std@@V?$_Vector_val@U?$_Simple_types@UKinematics@TrackerKinematicsDatagram@@@std@@@2@$00@std@@QEBAAEBU?$_Wrap_alloc@V?$allocator@UKinematics@TrackerKinematicsDatagram@@@std@@@2@XZ 000000014002adb0 f i trackerkinematicsdatagram.obj
 0001:00029dc0       ?_Get_second@?$_Compressed_pair@U?$_Wrap_alloc@V?$allocator@UKinematics@TrackerKinematicsDatagram@@@std@@@std@@V?$_Vector_val@U?$_Simple_types@UKinematics@TrackerKinematicsDatagram@@@std@@@2@$00@std@@QEAAAEAV?$_Vector_val@U?$_Simple_types@UKinematics@TrackerKinematicsDatagram@@@std@@@2@XZ 000000014002adc0 f i trackerkinematicsdatagram.obj
 0001:00029dd0       ?_Get_second@?$_Compressed_pair@U?$_Wrap_alloc@V?$allocator@UKinematics@TrackerKinematicsDatagram@@@std@@@std@@V?$_Vector_val@U?$_Simple_types@UKinematics@TrackerKinematicsDatagram@@@std@@@2@$00@std@@QEBAAEBV?$_Vector_val@U?$_Simple_types@UKinematics@TrackerKinematicsDatagram@@@std@@@2@XZ 000000014002add0 f i trackerkinematicsdatagram.obj
 0001:00029de0       ?_Getal@?$_Vector_alloc@U?$_Vec_base_types@UKinematics@TrackerKinematicsDatagram@@V?$allocator@UKinematics@TrackerKinematicsDatagram@@@std@@@std@@@std@@QEAAAEAU?$_Wrap_alloc@V?$allocator@UKinematics@TrackerKinematicsDatagram@@@std@@@2@XZ 000000014002ade0 f i trackerkinematicsdatagram.obj
 0001:00029e00       ?_Getal@?$_Vector_alloc@U?$_Vec_base_types@UKinematics@TrackerKinematicsDatagram@@V?$allocator@UKinematics@TrackerKinematicsDatagram@@@std@@@std@@@std@@QEBAAEBU?$_Wrap_alloc@V?$allocator@UKinematics@TrackerKinematicsDatagram@@@std@@@2@XZ 000000014002ae00 f i trackerkinematicsdatagram.obj
 0001:00029e20       ?_Getpfirst@?$_Vector_alloc@U?$_Vec_base_types@UKinematics@TrackerKinematicsDatagram@@V?$allocator@UKinematics@TrackerKinematicsDatagram@@@std@@@std@@@std@@QEBAPEAPEAU_Iterator_base12@2@XZ 000000014002ae20 f i trackerkinematicsdatagram.obj
 0001:00029e40       ?_Grow_to@?$vector@UKinematics@TrackerKinematicsDatagram@@V?$allocator@UKinematics@TrackerKinematicsDatagram@@@std@@@std@@IEBA_K_K@Z 000000014002ae40 f i trackerkinematicsdatagram.obj
 0001:00029ef0       ?_Inside@?$vector@UKinematics@TrackerKinematicsDatagram@@V?$allocator@UKinematics@TrackerKinematicsDatagram@@@std@@@std@@IEBA_NPEBUKinematics@TrackerKinematicsDatagram@@@Z 000000014002aef0 f i trackerkinematicsdatagram.obj
 0001:00029f50       ?_Myend@?$_Vector_alloc@U?$_Vec_base_types@UKinematics@TrackerKinematicsDatagram@@V?$allocator@UKinematics@TrackerKinematicsDatagram@@@std@@@std@@@std@@QEAAAEAPEAUKinematics@TrackerKinematicsDatagram@@XZ 000000014002af50 f i trackerkinematicsdatagram.obj
 0001:00029f70       ?_Myend@?$_Vector_alloc@U?$_Vec_base_types@UKinematics@TrackerKinematicsDatagram@@V?$allocator@UKinematics@TrackerKinematicsDatagram@@@std@@@std@@@std@@QEBAAEBQEAUKinematics@TrackerKinematicsDatagram@@XZ 000000014002af70 f i trackerkinematicsdatagram.obj
 0001:00029f90       ?_Myfirst@?$_Vector_alloc@U?$_Vec_base_types@UKinematics@TrackerKinematicsDatagram@@V?$allocator@UKinematics@TrackerKinematicsDatagram@@@std@@@std@@@std@@QEAAAEAPEAUKinematics@TrackerKinematicsDatagram@@XZ 000000014002af90 f i trackerkinematicsdatagram.obj
 0001:00029fb0       ?_Myfirst@?$_Vector_alloc@U?$_Vec_base_types@UKinematics@TrackerKinematicsDatagram@@V?$allocator@UKinematics@TrackerKinematicsDatagram@@@std@@@std@@@std@@QEBAAEBQEAUKinematics@TrackerKinematicsDatagram@@XZ 000000014002afb0 f i trackerkinematicsdatagram.obj
 0001:00029fd0       ?_Mylast@?$_Vector_alloc@U?$_Vec_base_types@UKinematics@TrackerKinematicsDatagram@@V?$allocator@UKinematics@TrackerKinematicsDatagram@@@std@@@std@@@std@@QEAAAEAPEAUKinematics@TrackerKinematicsDatagram@@XZ 000000014002afd0 f i trackerkinematicsdatagram.obj
 0001:00029ff0       ?_Mylast@?$_Vector_alloc@U?$_Vec_base_types@UKinematics@TrackerKinematicsDatagram@@V?$allocator@UKinematics@TrackerKinematicsDatagram@@@std@@@std@@@std@@QEBAAEBQEAUKinematics@TrackerKinematicsDatagram@@XZ 000000014002aff0 f i trackerkinematicsdatagram.obj
 0001:0002a010       ?_Myproxy@?$_Vector_alloc@U?$_Vec_base_types@UKinematics@TrackerKinematicsDatagram@@V?$allocator@UKinematics@TrackerKinematicsDatagram@@@std@@@std@@@std@@QEAAAEAPEAU_Container_proxy@2@XZ 000000014002b010 f i trackerkinematicsdatagram.obj
 0001:0002a030       ?_Orphan_all@?$_Vector_alloc@U?$_Vec_base_types@UKinematics@TrackerKinematicsDatagram@@V?$allocator@UKinematics@TrackerKinematicsDatagram@@@std@@@std@@@std@@QEAAXXZ 000000014002b030 f i trackerkinematicsdatagram.obj
 0001:0002a050       ?_Orphan_range@?$vector@UKinematics@TrackerKinematicsDatagram@@V?$allocator@UKinematics@TrackerKinematicsDatagram@@@std@@@std@@IEBAXPEAUKinematics@TrackerKinematicsDatagram@@0@Z 000000014002b050 f i trackerkinematicsdatagram.obj
 0001:0002a110       ?_Reallocate@?$vector@UKinematics@TrackerKinematicsDatagram@@V?$allocator@UKinematics@TrackerKinematicsDatagram@@@std@@@std@@IEAAX_K@Z 000000014002b110 f i trackerkinematicsdatagram.obj
 0001:0002a2e0       ?_Reserve@?$vector@UKinematics@TrackerKinematicsDatagram@@V?$allocator@UKinematics@TrackerKinematicsDatagram@@@std@@@std@@IEAAX_K@Z 000000014002b2e0 f i trackerkinematicsdatagram.obj
 0001:0002a370       ?_Tidy@?$vector@UKinematics@TrackerKinematicsDatagram@@V?$allocator@UKinematics@TrackerKinematicsDatagram@@@std@@@std@@IEAAXXZ 000000014002b370 f i trackerkinematicsdatagram.obj
 0001:0002a470       ?_Unused_capacity@?$vector@UKinematics@TrackerKinematicsDatagram@@V?$allocator@UKinematics@TrackerKinematicsDatagram@@@std@@@std@@QEBA_KXZ 000000014002b470 f i trackerkinematicsdatagram.obj
 0001:0002a4c0       ?_Xlen@?$vector@UKinematics@TrackerKinematicsDatagram@@V?$allocator@UKinematics@TrackerKinematicsDatagram@@@std@@@std@@IEBAXXZ 000000014002b4c0 f i trackerkinematicsdatagram.obj
 0001:0002a4e0       ?allocate@?$_Wrap_alloc@V?$allocator@UKinematics@TrackerKinematicsDatagram@@@std@@@std@@QEAAPEAUKinematics@TrackerKinematicsDatagram@@_K@Z 000000014002b4e0 f i trackerkinematicsdatagram.obj
 0001:0002a510       ?allocate@?$allocator@UKinematics@TrackerKinematicsDatagram@@@std@@QEAAPEAUKinematics@TrackerKinematicsDatagram@@_K@Z 000000014002b510 f i trackerkinematicsdatagram.obj
 0001:0002a540       ?begin@?$vector@UKinematics@TrackerKinematicsDatagram@@V?$allocator@UKinematics@TrackerKinematicsDatagram@@@std@@@std@@QEBA?AV?$_Vector_const_iterator@V?$_Vector_val@U?$_Simple_types@UKinematics@TrackerKinematicsDatagram@@@std@@@std@@@2@XZ 000000014002b540 f i trackerkinematicsdatagram.obj
 0001:0002a5a0       ?capacity@?$vector@UKinematics@TrackerKinematicsDatagram@@V?$allocator@UKinematics@TrackerKinematicsDatagram@@@std@@@std@@QEBA_KXZ 000000014002b5a0 f i trackerkinematicsdatagram.obj
 0001:0002a5f0       ?deallocate@?$_Wrap_alloc@V?$allocator@UKinematics@TrackerKinematicsDatagram@@@std@@@std@@QEAAXPEAUKinematics@TrackerKinematicsDatagram@@_K@Z 000000014002b5f0 f i trackerkinematicsdatagram.obj
 0001:0002a620       ?deallocate@?$allocator@UKinematics@TrackerKinematicsDatagram@@@std@@QEAAXPEAUKinematics@TrackerKinematicsDatagram@@_K@Z 000000014002b620 f i trackerkinematicsdatagram.obj
 0001:0002a650       ?end@?$vector@UKinematics@TrackerKinematicsDatagram@@V?$allocator@UKinematics@TrackerKinematicsDatagram@@@std@@@std@@QEBA?AV?$_Vector_const_iterator@V?$_Vector_val@U?$_Simple_types@UKinematics@TrackerKinematicsDatagram@@@std@@@std@@@2@XZ 000000014002b650 f i trackerkinematicsdatagram.obj
 0001:0002a6b0       ?max_size@?$_Wrap_alloc@V?$allocator@UKinematics@TrackerKinematicsDatagram@@@std@@@std@@QEBA_KU_Nil@2@@Z 000000014002b6b0 f i trackerkinematicsdatagram.obj
 0001:0002a6d0       ?max_size@?$allocator@UKinematics@TrackerKinematicsDatagram@@@std@@QEBA_KXZ 000000014002b6d0 f i trackerkinematicsdatagram.obj
 0001:0002a6e0       ?max_size@?$allocator_traits@V?$allocator@UKinematics@TrackerKinematicsDatagram@@@std@@@std@@SA_KAEBV?$allocator@UKinematics@TrackerKinematicsDatagram@@@2@@Z 000000014002b6e0 f i trackerkinematicsdatagram.obj
 0001:0002a700       ?max_size@?$vector@UKinematics@TrackerKinematicsDatagram@@V?$allocator@UKinematics@TrackerKinematicsDatagram@@@std@@@std@@QEBA_KXZ 000000014002b700 f i trackerkinematicsdatagram.obj
 0001:0002a730       ?push_back@?$vector@UKinematics@TrackerKinematicsDatagram@@V?$allocator@UKinematics@TrackerKinematicsDatagram@@@std@@@std@@QEAAXAEBUKinematics@TrackerKinematicsDatagram@@@Z 000000014002b730 f i trackerkinematicsdatagram.obj
 0001:0002a990       ?size@?$vector@UKinematics@TrackerKinematicsDatagram@@V?$allocator@UKinematics@TrackerKinematicsDatagram@@@std@@@std@@QEBA_KXZ 000000014002b990 f i trackerkinematicsdatagram.obj
 0001:0002a9e0       ??0UdpServer@@QEAA@UXsString@@G@Z 000000014002b9e0 f   udpserver.obj
 0001:0002abb0       ??1UdpServer@@QEAA@XZ      000000014002bbb0 f   udpserver.obj
 0001:0002ac10       ?readMessages@UdpServer@@QEAAXXZ 000000014002bc10 f   udpserver.obj
 0001:0002ad30       ?startThread@UdpServer@@QEAAXXZ 000000014002bd30 f   udpserver.obj
 0001:0002ad90       ?stopThread@UdpServer@@QEAAXXZ 000000014002bd90 f   udpserver.obj
 0001:0002ade0       ?udpThreadFunc@@YAKPEAX@Z  000000014002bde0 f   udpserver.obj
 0001:0002ae10       ??$?0AEAPEAUXsSocket@@@?$_Compressed_pair@U?$default_delete@UXsSocket@@@std@@PEAUXsSocket@@$00@std@@QEAA@U_Zero_then_variadic_args_t@1@AEAPEAUXsSocket@@@Z 000000014002be10 f i udpserver.obj
 0001:0002ae50       ??$?0AEAPEAVParserManager@@@?$_Compressed_pair@U?$default_delete@VParserManager@@@std@@PEAVParserManager@@$00@std@@QEAA@U_Zero_then_variadic_args_t@1@AEAPEAVParserManager@@@Z 000000014002be50 f i udpserver.obj
 0001:0002ae90       ??$?0PEAUXsSocket@@@?$_Unique_ptr_base@UXsSocket@@U?$default_delete@UXsSocket@@@std@@@std@@QEAA@PEAUXsSocket@@@Z 000000014002be90 f i udpserver.obj
 0001:0002aec0       ??$?0PEAVParserManager@@@?$_Unique_ptr_base@VParserManager@@U?$default_delete@VParserManager@@@std@@@std@@QEAA@PEAVParserManager@@@Z 000000014002bec0 f i udpserver.obj
 0001:0002aef0       ??$addressof@UXsSocket@@@std@@YAPEAUXsSocket@@AEAU1@@Z 000000014002bef0 f i udpserver.obj
 0001:0002af00       ??$addressof@VParserManager@@@std@@YAPEAVParserManager@@AEAV1@@Z 000000014002bf00 f i udpserver.obj
 0001:0002af10       ??$forward@AEAPEAUXsSocket@@@std@@YAAEAPEAUXsSocket@@AEAPEAU1@@Z 000000014002bf10 f i udpserver.obj
 0001:0002af20       ??$forward@AEAPEAVParserManager@@@std@@YAAEAPEAVParserManager@@AEAPEAV1@@Z 000000014002bf20 f i udpserver.obj
 0001:0002af30       ??0?$IteratorImpl@$00@?$XsArrayImpl@E$1?g_xsByteArrayDescriptor@@3UXsArrayDescriptor@@BUXsByteArray@@@@QEAA@PEAX@Z 000000014002bf30 f i udpserver.obj
 0001:0002af60       ??0?$IteratorImplBase@$00EU?$IteratorImpl@$00@?$XsArrayImpl@E$1?g_xsByteArrayDescriptor@@3UXsArrayDescriptor@@BUXsByteArray@@@@@?$XsArrayImpl@E$1?g_xsByteArrayDescriptor@@3UXsArrayDescriptor@@BUXsByteArray@@@@IEAA@PEAX@Z 000000014002bf60 f i udpserver.obj
 0001:0002af80       ??0?$XsArrayImpl@E$1?g_xsByteArrayDescriptor@@3UXsArrayDescriptor@@BUXsByteArray@@@@QEAA@_KPEBE@Z 000000014002bf80 f i udpserver.obj
 0001:0002afc0       ??0?$unique_ptr@UXsSocket@@U?$default_delete@UXsSocket@@@std@@@std@@QEAA@XZ 000000014002bfc0 f i udpserver.obj
 0001:0002aff0       ??0?$unique_ptr@VParserManager@@U?$default_delete@VParserManager@@@std@@@std@@QEAA@XZ 000000014002bff0 f i udpserver.obj
 0001:0002b020       ??0XsByteArray@@QEAA@_KPEBE@Z 000000014002c020 f i udpserver.obj
 0001:0002b060       ??0XsSocket@@QEAA@W4IpProtocol@@W4NetworkLayerProtocol@@@Z 000000014002c060 f i udpserver.obj
 0001:0002b0a0       ??0XsString@@QEAA@_KPEBD@Z 000000014002c0a0 f i udpserver.obj
 0001:0002b100       ??0bad_alloc@std@@QEAA@AEBV01@@Z 000000014002c100 f i udpserver.obj
 0001:0002b140       ??0bad_alloc@std@@QEAA@XZ  000000014002c140 f i udpserver.obj
 0001:0002b180       ??1?$XsArrayImpl@D$1?g_xsStringDescriptor@@3UXsArrayDescriptor@@BUXsString@@@@QEAA@XZ 000000014002c180 f i udpserver.obj
 0001:0002b1b0       ??1?$XsArrayImpl@E$1?g_xsByteArrayDescriptor@@3UXsArrayDescriptor@@BUXsByteArray@@@@QEAA@XZ 000000014002c1b0 f i udpserver.obj
 0001:0002b1e0       ??1?$unique_ptr@UXsSocket@@U?$default_delete@UXsSocket@@@std@@@std@@QEAA@XZ 000000014002c1e0 f i udpserver.obj
 0001:0002b230       ??1?$unique_ptr@VParserManager@@U?$default_delete@VParserManager@@@std@@@std@@QEAA@XZ 000000014002c230 f i udpserver.obj
 0001:0002b280       ??1XsArray@@QEAA@XZ        000000014002c280 f i udpserver.obj
 0001:0002b2a0       ??1XsByteArray@@QEAA@XZ    000000014002c2a0 f i udpserver.obj
 0001:0002b2c0       ??1XsSocket@@QEAA@XZ       000000014002c2c0 f i udpserver.obj
 0001:0002b2e0       ??1XsString@@QEAA@XZ       000000014002c2e0 f i udpserver.obj
 0001:0002b300       ??1bad_alloc@std@@UEAA@XZ  000000014002c300 f i udpserver.obj
 0001:0002b320       ??2XsSocket@@SAPEAX_K@Z    000000014002c320 f i udpserver.obj
 0001:0002b370       ??3XsSocket@@SAXPEAX@Z     000000014002c370 f i udpserver.obj
 0001:0002b390       ??4?$XsArrayImpl@D$1?g_xsStringDescriptor@@3UXsArrayDescriptor@@BUXsString@@@@QEAAAEAU0@AEBU0@@Z 000000014002c390 f i udpserver.obj
 0001:0002b3d0       ??4XsString@@QEAAAEAU0@AEBU0@@Z 000000014002c3d0 f i udpserver.obj
 0001:0002b400       ??C?$IteratorImplBase@$00EU?$IteratorImpl@$00@?$XsArrayImpl@E$1?g_xsByteArrayDescriptor@@3UXsArrayDescriptor@@BUXsByteArray@@@@@?$XsArrayImpl@E$1?g_xsByteArrayDescriptor@@3UXsArrayDescriptor@@BUXsByteArray@@@@QEBAPEAEXZ 000000014002c400 f i udpserver.obj
 0001:0002b420       ??C?$unique_ptr@UXsSocket@@U?$default_delete@UXsSocket@@@std@@@std@@QEBAPEAUXsSocket@@XZ 000000014002c420 f i udpserver.obj
 0001:0002b450       ??C?$unique_ptr@VParserManager@@U?$default_delete@VParserManager@@@std@@@std@@QEBAPEAVParserManager@@XZ 000000014002c450 f i udpserver.obj
 0001:0002b480       ??D?$unique_ptr@UXsSocket@@U?$default_delete@UXsSocket@@@std@@@std@@QEBAAEAUXsSocket@@XZ 000000014002c480 f i udpserver.obj
 0001:0002b4a0       ??D?$unique_ptr@VParserManager@@U?$default_delete@VParserManager@@@std@@@std@@QEBAAEAVParserManager@@XZ 000000014002c4a0 f i udpserver.obj
 0001:0002b4c0       ??R?$default_delete@UXsSocket@@@std@@QEBAXPEAUXsSocket@@@Z 000000014002c4c0 f i udpserver.obj
 0001:0002b510       ??R?$default_delete@VParserManager@@@std@@QEBAXPEAVParserManager@@@Z 000000014002c510 f i udpserver.obj
 0001:0002b560       ??_GParserManager@@QEAAPEAXI@Z 000000014002c560 f i udpserver.obj
 0001:0002b5a0       ??_GXsSocket@@QEAAPEAXI@Z  000000014002c5a0 f i udpserver.obj
 0001:0002b600       ??_Gbad_alloc@std@@UEAAPEAXI@Z 000000014002c600 f i udpserver.obj
 0001:0002b600       ??_Ebad_alloc@std@@UEAAPEAXI@Z 000000014002c600 f i udpserver.obj
 0001:0002b640       ?_Get_first@?$_Compressed_pair@U?$default_delete@UXsSocket@@@std@@PEAUXsSocket@@$00@std@@QEAAAEAU?$default_delete@UXsSocket@@@2@XZ 000000014002c640 f i udpserver.obj
 0001:0002b650       ?_Get_first@?$_Compressed_pair@U?$default_delete@VParserManager@@@std@@PEAVParserManager@@$00@std@@QEAAAEAU?$default_delete@VParserManager@@@2@XZ 000000014002c650 f i udpserver.obj
 0001:0002b660       ?_Get_second@?$_Compressed_pair@U?$default_delete@UXsSocket@@@std@@PEAUXsSocket@@$00@std@@QEAAAEAPEAUXsSocket@@XZ 000000014002c660 f i udpserver.obj
 0001:0002b670       ?_Get_second@?$_Compressed_pair@U?$default_delete@UXsSocket@@@std@@PEAUXsSocket@@$00@std@@QEBAAEBQEAUXsSocket@@XZ 000000014002c670 f i udpserver.obj
 0001:0002b680       ?_Get_second@?$_Compressed_pair@U?$default_delete@VParserManager@@@std@@PEAVParserManager@@$00@std@@QEAAAEAPEAVParserManager@@XZ 000000014002c680 f i udpserver.obj
 0001:0002b690       ?_Get_second@?$_Compressed_pair@U?$default_delete@VParserManager@@@std@@PEAVParserManager@@$00@std@@QEBAAEBQEAVParserManager@@XZ 000000014002c690 f i udpserver.obj
 0001:0002b6a0       ?_Myptr@?$_Unique_ptr_base@UXsSocket@@U?$default_delete@UXsSocket@@@std@@@std@@QEAAAEAPEAUXsSocket@@XZ 000000014002c6a0 f i udpserver.obj
 0001:0002b6c0       ?_Myptr@?$_Unique_ptr_base@UXsSocket@@U?$default_delete@UXsSocket@@@std@@@std@@QEBAAEBQEAUXsSocket@@XZ 000000014002c6c0 f i udpserver.obj
 0001:0002b6e0       ?_Myptr@?$_Unique_ptr_base@VParserManager@@U?$default_delete@VParserManager@@@std@@@std@@QEAAAEAPEAVParserManager@@XZ 000000014002c6e0 f i udpserver.obj
 0001:0002b700       ?_Myptr@?$_Unique_ptr_base@VParserManager@@U?$default_delete@VParserManager@@@std@@@std@@QEBAAEBQEAVParserManager@@XZ 000000014002c700 f i udpserver.obj
 0001:0002b720       ?begin@?$XsArrayImpl@E$1?g_xsByteArrayDescriptor@@3UXsArrayDescriptor@@BUXsByteArray@@@@QEAA?AU?$IteratorImpl@$00@1@XZ 000000014002c720 f i udpserver.obj
 0001:0002b750       ?bind@XsSocket@@QEAA?AW4XsResultValue@@AEBUXsString@@G@Z 000000014002c750 f i udpserver.obj
 0001:0002b780       ?clear@?$XsArrayImpl@E$1?g_xsByteArrayDescriptor@@3UXsArrayDescriptor@@BUXsByteArray@@@@QEAAXXZ 000000014002c780 f i udpserver.obj
 0001:0002b7a0       ?data@XsByteArray@@QEAAPEAEXZ 000000014002c7a0 f i udpserver.obj
 0001:0002b7d0       ?get@?$unique_ptr@UXsSocket@@U?$default_delete@UXsSocket@@@std@@@std@@QEBAPEAUXsSocket@@XZ 000000014002c7d0 f i udpserver.obj
 0001:0002b7f0       ?get@?$unique_ptr@VParserManager@@U?$default_delete@VParserManager@@@std@@@std@@QEBAPEAVParserManager@@XZ 000000014002c7f0 f i udpserver.obj
 0001:0002b810       ?get_deleter@?$_Unique_ptr_base@UXsSocket@@U?$default_delete@UXsSocket@@@std@@@std@@QEAAAEAU?$default_delete@UXsSocket@@@2@XZ 000000014002c810 f i udpserver.obj
 0001:0002b830       ?get_deleter@?$_Unique_ptr_base@VParserManager@@U?$default_delete@VParserManager@@@std@@@std@@QEAAAEAU?$default_delete@VParserManager@@@2@XZ 000000014002c830 f i udpserver.obj
 0001:0002b850       ?pointer_to@?$pointer_traits@PEAUXsSocket@@@std@@SAPEAUXsSocket@@AEAU3@@Z 000000014002c850 f i udpserver.obj
 0001:0002b870       ?pointer_to@?$pointer_traits@PEAVParserManager@@@std@@SAPEAVParserManager@@AEAV3@@Z 000000014002c870 f i udpserver.obj
 0001:0002b890       ?ptr@?$IteratorImplBase@$00EU?$IteratorImpl@$00@?$XsArrayImpl@E$1?g_xsByteArrayDescriptor@@3UXsArrayDescriptor@@BUXsByteArray@@@@@?$XsArrayImpl@E$1?g_xsByteArrayDescriptor@@3UXsArrayDescriptor@@BUXsByteArray@@@@QEBAPEAEXZ 000000014002c890 f i udpserver.obj
 0001:0002b8a0       ?read@XsSocket@@QEAAHAEAUXsByteArray@@H@Z 000000014002c8a0 f i udpserver.obj
 0001:0002b920       ?read@XsSocket@@QEAAHPEAX_KH@Z 000000014002c920 f i udpserver.obj
 0001:0002b960       ?reset@?$unique_ptr@UXsSocket@@U?$default_delete@UXsSocket@@@std@@@std@@QEAAXPEAUXsSocket@@@Z 000000014002c960 f i udpserver.obj
 0001:0002b9c0       ?reset@?$unique_ptr@VParserManager@@U?$default_delete@VParserManager@@@std@@@std@@QEAAXPEAVParserManager@@@Z 000000014002c9c0 f i udpserver.obj
 0001:0002ba20       ?resize@?$XsArrayImpl@E$1?g_xsByteArrayDescriptor@@3UXsArrayDescriptor@@BUXsByteArray@@@@QEAAX_K@Z 000000014002ca20 f i udpserver.obj
 0001:0002ba50       ?size@?$XsArrayImpl@E$1?g_xsByteArrayDescriptor@@3UXsArrayDescriptor@@BUXsByteArray@@@@QEBA_KXZ 000000014002ca50 f i udpserver.obj
 0001:0002ba60       XsMath_rad2deg             000000014002ca60 f   xstypes64:xstypes64.dll
 0001:0002ba66       XsQuaternion_fromEulerAngles 000000014002ca66 f   xstypes64:xstypes64.dll
 0001:0002ba6c       XsEuler_fromQuaternion     000000014002ca6c f   xstypes64:xstypes64.dll
 0001:0002ba72       XsArray_construct          000000014002ca72 f   xstypes64:xstypes64.dll
 0001:0002ba78       XsString_assign            000000014002ca78 f   xstypes64:xstypes64.dll
 0001:0002ba7e       XsTime_msleep              000000014002ca7e f   xstypes64:xstypes64.dll
 0001:0002ba84       XsArray_destruct           000000014002ca84 f   xstypes64:xstypes64.dll
 0001:0002ba8a       XsArray_resize             000000014002ca8a f   xstypes64:xstypes64.dll
 0001:0002ba90       XsArray_copy               000000014002ca90 f   xstypes64:xstypes64.dll
 0001:0002ba96       XsSocket_create            000000014002ca96 f   xstypes64:xstypes64.dll
 0001:0002ba9c       XsSocket_destroy           000000014002ca9c f   xstypes64:xstypes64.dll
 0001:0002baa2       XsSocket_read              000000014002caa2 f   xstypes64:xstypes64.dll
 0001:0002baa8       XsSocket_allocate          000000014002caa8 f   xstypes64:xstypes64.dll
 0001:0002baae       XsSocket_free              000000014002caae f   xstypes64:xstypes64.dll
 0001:0002bab4       XsSocket_bind              000000014002cab4 f   xstypes64:xstypes64.dll
 0001:0002baba       CreateThread               000000014002caba f   kernel32:KERNEL32.dll
 0001:0002bac0       lsl_create_streaminfo      000000014002cac0 f   liblsl64:liblsl64.dll
 0001:0002bac6       lsl_destroy_streaminfo     000000014002cac6 f   liblsl64:liblsl64.dll
 0001:0002bacc       lsl_get_channel_count      000000014002cacc f   liblsl64:liblsl64.dll
 0001:0002bad2       lsl_create_outlet          000000014002cad2 f   liblsl64:liblsl64.dll
 0001:0002bad8       lsl_destroy_outlet         000000014002cad8 f   liblsl64:liblsl64.dll
 0001:0002bade       lsl_push_sample_ftp        000000014002cade f   liblsl64:liblsl64.dll
 0001:0002bae4       ??0_Lockit@std@@QEAA@H@Z   000000014002cae4 f   msvcprtd:MSVCP140D.dll
 0001:0002baea       ??1_Lockit@std@@QEAA@XZ    000000014002caea f   msvcprtd:MSVCP140D.dll
 0001:0002baf0       ?_Debug_message@std@@YAXPEB_W0I@Z 000000014002caf0 f   msvcprtd:MSVCP140D.dll
 0001:0002baf6       ?_Xbad_alloc@std@@YAXXZ    000000014002caf6 f   msvcprtd:MSVCP140D.dll
 0001:0002bafc       ?_Xlength_error@std@@YAXPEBD@Z 000000014002cafc f   msvcprtd:MSVCP140D.dll
 0001:0002bb02       ?_Xout_of_range@std@@YAXPEBD@Z 000000014002cb02 f   msvcprtd:MSVCP140D.dll
 0001:0002bb08       ?uncaught_exception@std@@YA_NXZ 000000014002cb08 f   msvcprtd:MSVCP140D.dll
 0001:0002bb0e       ?_Xinvalid_argument@std@@YAXPEBD@Z 000000014002cb0e f   msvcprtd:MSVCP140D.dll
 0001:0002bb20       ??0_Fac_node@std@@QEAA@PEAU01@PEAV_Facet_base@1@@Z 000000014002cb20 f i msvcprtd:locale0_implib.obj
 0001:0002bb50       ??1_Fac_node@std@@QEAA@XZ  000000014002cb50 f i msvcprtd:locale0_implib.obj
 0001:0002bc00       ??1_Fac_tidy_reg_t@std@@QEAA@XZ 000000014002cc00 f i msvcprtd:locale0_implib.obj
 0001:0002bc70       ??2_Fac_node@std@@SAPEAX_K@Z 000000014002cc70 f i msvcprtd:locale0_implib.obj
 0001:0002bcd0       ??3_Fac_node@std@@SAXPEAX@Z 000000014002ccd0 f i msvcprtd:locale0_implib.obj
 0001:0002bcf0       ??_G_Fac_node@std@@QEAAPEAXI@Z 000000014002ccf0 f i msvcprtd:locale0_implib.obj
 0001:0002bd50       ?_Facet_Register@std@@YAXPEAV_Facet_base@1@@Z 000000014002cd50 f   msvcprtd:locale0_implib.obj
 0001:0002bdba       ??Bid@locale@std@@QEAA_KXZ 000000014002cdba f   msvcprtd:MSVCP140D.dll
 0001:0002bdc0       ?_Getgloballocale@locale@std@@CAPEAV_Locimp@12@XZ 000000014002cdc0 f   msvcprtd:MSVCP140D.dll
 0001:0002bdc6       ?is@?$ctype@D@std@@QEBA_NFD@Z 000000014002cdc6 f   msvcprtd:MSVCP140D.dll
 0001:0002bdcc       ?_Getcat@?$ctype@D@std@@SA_KPEAPEBVfacet@locale@2@PEBV42@@Z 000000014002cdcc f   msvcprtd:MSVCP140D.dll
 0001:0002bdd2       ?good@ios_base@std@@QEBA_NXZ 000000014002cdd2 f   msvcprtd:MSVCP140D.dll
 0001:0002bdd8       ?flags@ios_base@std@@QEBAHXZ 000000014002cdd8 f   msvcprtd:MSVCP140D.dll
 0001:0002bdde       ?setf@ios_base@std@@QEAAHHH@Z 000000014002cdde f   msvcprtd:MSVCP140D.dll
 0001:0002bde4       ?width@ios_base@std@@QEBA_JXZ 000000014002cde4 f   msvcprtd:MSVCP140D.dll
 0001:0002bdea       ?width@ios_base@std@@QEAA_J_J@Z 000000014002cdea f   msvcprtd:MSVCP140D.dll
 0001:0002bdf0       ?getloc@ios_base@std@@QEBA?AVlocale@2@XZ 000000014002cdf0 f   msvcprtd:MSVCP140D.dll
 0001:0002bdf6       ??0?$basic_streambuf@DU?$char_traits@D@std@@@std@@IEAA@XZ 000000014002cdf6 f   msvcprtd:MSVCP140D.dll
 0001:0002bdfc       ??1?$basic_streambuf@DU?$char_traits@D@std@@@std@@UEAA@XZ 000000014002cdfc f   msvcprtd:MSVCP140D.dll
 0001:0002be02       ?sgetc@?$basic_streambuf@DU?$char_traits@D@std@@@std@@QEAAHXZ 000000014002ce02 f   msvcprtd:MSVCP140D.dll
 0001:0002be08       ?snextc@?$basic_streambuf@DU?$char_traits@D@std@@@std@@QEAAHXZ 000000014002ce08 f   msvcprtd:MSVCP140D.dll
 0001:0002be0e       ?sputc@?$basic_streambuf@DU?$char_traits@D@std@@@std@@QEAAHD@Z 000000014002ce0e f   msvcprtd:MSVCP140D.dll
 0001:0002be14       ?eback@?$basic_streambuf@DU?$char_traits@D@std@@@std@@IEBAPEADXZ 000000014002ce14 f   msvcprtd:MSVCP140D.dll
 0001:0002be1a       ?gptr@?$basic_streambuf@DU?$char_traits@D@std@@@std@@IEBAPEADXZ 000000014002ce1a f   msvcprtd:MSVCP140D.dll
 0001:0002be20       ?pbase@?$basic_streambuf@DU?$char_traits@D@std@@@std@@IEBAPEADXZ 000000014002ce20 f   msvcprtd:MSVCP140D.dll
 0001:0002be26       ?pptr@?$basic_streambuf@DU?$char_traits@D@std@@@std@@IEBAPEADXZ 000000014002ce26 f   msvcprtd:MSVCP140D.dll
 0001:0002be2c       ?egptr@?$basic_streambuf@DU?$char_traits@D@std@@@std@@IEBAPEADXZ 000000014002ce2c f   msvcprtd:MSVCP140D.dll
 0001:0002be32       ?gbump@?$basic_streambuf@DU?$char_traits@D@std@@@std@@IEAAXH@Z 000000014002ce32 f   msvcprtd:MSVCP140D.dll
 0001:0002be38       ?setg@?$basic_streambuf@DU?$char_traits@D@std@@@std@@IEAAXPEAD00@Z 000000014002ce38 f   msvcprtd:MSVCP140D.dll
 0001:0002be3e       ?epptr@?$basic_streambuf@DU?$char_traits@D@std@@@std@@IEBAPEADXZ 000000014002ce3e f   msvcprtd:MSVCP140D.dll
 0001:0002be44       ?pbump@?$basic_streambuf@DU?$char_traits@D@std@@@std@@IEAAXH@Z 000000014002ce44 f   msvcprtd:MSVCP140D.dll
 0001:0002be4a       ?setp@?$basic_streambuf@DU?$char_traits@D@std@@@std@@IEAAXPEAD0@Z 000000014002ce4a f   msvcprtd:MSVCP140D.dll
 0001:0002be50       ?setp@?$basic_streambuf@DU?$char_traits@D@std@@@std@@IEAAXPEAD00@Z 000000014002ce50 f   msvcprtd:MSVCP140D.dll
 0001:0002be56       ?_Pninc@?$basic_streambuf@DU?$char_traits@D@std@@@std@@IEAAPEADXZ 000000014002ce56 f   msvcprtd:MSVCP140D.dll
 0001:0002be5c       ??1?$basic_ios@DU?$char_traits@D@std@@@std@@UEAA@XZ 000000014002ce5c f   msvcprtd:MSVCP140D.dll
 0001:0002be62       ?setstate@?$basic_ios@DU?$char_traits@D@std@@@std@@QEAAXH_N@Z 000000014002ce62 f   msvcprtd:MSVCP140D.dll
 0001:0002be68       ?tie@?$basic_ios@DU?$char_traits@D@std@@@std@@QEBAPEAV?$basic_ostream@DU?$char_traits@D@std@@@2@XZ 000000014002ce68 f   msvcprtd:MSVCP140D.dll
 0001:0002be6e       ?rdbuf@?$basic_ios@DU?$char_traits@D@std@@@std@@QEBAPEAV?$basic_streambuf@DU?$char_traits@D@std@@@2@XZ 000000014002ce6e f   msvcprtd:MSVCP140D.dll
 0001:0002be74       ?fill@?$basic_ios@DU?$char_traits@D@std@@@std@@QEBADXZ 000000014002ce74 f   msvcprtd:MSVCP140D.dll
 0001:0002be7a       ?fill@?$basic_ios@DU?$char_traits@D@std@@@std@@QEAADD@Z 000000014002ce7a f   msvcprtd:MSVCP140D.dll
 0001:0002be80       ??0?$basic_ios@DU?$char_traits@D@std@@@std@@IEAA@XZ 000000014002ce80 f   msvcprtd:MSVCP140D.dll
 0001:0002be86       ?_Osfx@?$basic_ostream@DU?$char_traits@D@std@@@std@@QEAAXXZ 000000014002ce86 f   msvcprtd:MSVCP140D.dll
 0001:0002be8c       ??6?$basic_ostream@DU?$char_traits@D@std@@@std@@QEAAAEAV01@P6AAEAVios_base@1@AEAV21@@Z@Z 000000014002ce8c f   msvcprtd:MSVCP140D.dll
 0001:0002be92       ??6?$basic_ostream@DU?$char_traits@D@std@@@std@@QEAAAEAV01@H@Z 000000014002ce92 f   msvcprtd:MSVCP140D.dll
 0001:0002be98       ?flush@?$basic_ostream@DU?$char_traits@D@std@@@std@@QEAAAEAV12@XZ 000000014002ce98 f   msvcprtd:MSVCP140D.dll
 0001:0002be9e       ?_Ipfx@?$basic_istream@DU?$char_traits@D@std@@@std@@QEAA_N_N@Z 000000014002ce9e f   msvcprtd:MSVCP140D.dll
 0001:0002bea4       ??0?$basic_iostream@DU?$char_traits@D@std@@@std@@QEAA@PEAV?$basic_streambuf@DU?$char_traits@D@std@@@1@@Z 000000014002cea4 f   msvcprtd:MSVCP140D.dll
 0001:0002beaa       ??1?$basic_iostream@DU?$char_traits@D@std@@@std@@UEAA@XZ 000000014002ceaa f   msvcprtd:MSVCP140D.dll
 0001:0002beb0       ?_Lock@?$basic_streambuf@DU?$char_traits@D@std@@@std@@UEAAXXZ 000000014002ceb0 f   msvcprtd:MSVCP140D.dll
 0001:0002beb6       ?_Unlock@?$basic_streambuf@DU?$char_traits@D@std@@@std@@UEAAXXZ 000000014002ceb6 f   msvcprtd:MSVCP140D.dll
 0001:0002bebc       ?imbue@?$basic_streambuf@DU?$char_traits@D@std@@@std@@MEAAXAEBVlocale@2@@Z 000000014002cebc f   msvcprtd:MSVCP140D.dll
 0001:0002bec2       ?setbuf@?$basic_streambuf@DU?$char_traits@D@std@@@std@@MEAAPEAV12@PEAD_J@Z 000000014002cec2 f   msvcprtd:MSVCP140D.dll
 0001:0002bec8       ?showmanyc@?$basic_streambuf@DU?$char_traits@D@std@@@std@@MEAA_JXZ 000000014002cec8 f   msvcprtd:MSVCP140D.dll
 0001:0002bece       ?sync@?$basic_streambuf@DU?$char_traits@D@std@@@std@@MEAAHXZ 000000014002cece f   msvcprtd:MSVCP140D.dll
 0001:0002bed4       ?uflow@?$basic_streambuf@DU?$char_traits@D@std@@@std@@MEAAHXZ 000000014002ced4 f   msvcprtd:MSVCP140D.dll
 0001:0002beda       ?xsgetn@?$basic_streambuf@DU?$char_traits@D@std@@@std@@MEAA_JPEAD_J@Z 000000014002ceda f   msvcprtd:MSVCP140D.dll
 0001:0002bee0       ?xsputn@?$basic_streambuf@DU?$char_traits@D@std@@@std@@MEAA_JPEBD_J@Z 000000014002cee0 f   msvcprtd:MSVCP140D.dll
 0001:0002bee6       ??Bios_base@std@@QEBA_NXZ  000000014002cee6 f   msvcprtd:MSVCP140D.dll
 0001:0002beec       ?sbumpc@?$basic_streambuf@DU?$char_traits@D@std@@@std@@QEAAHXZ 000000014002ceec f   msvcprtd:MSVCP140D.dll
 0001:0002bef2       ?sputn@?$basic_streambuf@DU?$char_traits@D@std@@@std@@QEAA_JPEBD_J@Z 000000014002cef2 f   msvcprtd:MSVCP140D.dll
 0001:0002bef8       ?widen@?$basic_ios@DU?$char_traits@D@std@@@std@@QEBADD@Z 000000014002cef8 f   msvcprtd:MSVCP140D.dll
 0001:0002befe       ??6?$basic_ostream@DU?$char_traits@D@std@@@std@@QEAAAEAV01@P6AAEAV01@AEAV01@@Z@Z 000000014002cefe f   msvcprtd:MSVCP140D.dll
 0001:0002bf04       ?put@?$basic_ostream@DU?$char_traits@D@std@@@std@@QEAAAEAV12@D@Z 000000014002cf04 f   msvcprtd:MSVCP140D.dll
 0001:0002bf10       ??_M@YAXPEAX_K1P6AX0@Z@Z   000000014002cf10 f   MSVCRTD:ehvecdtr.obj
 0001:0002bfd0       ??_M@YAXPEAX_KHP6AX0@Z@Z   000000014002cfd0 f   MSVCRTD:ehvecdtr.obj
 0001:0002c050       ?__ArrayUnwind@@YAXPEAX_K1P6AX0@Z@Z 000000014002d050 f   MSVCRTD:ehvecdtr.obj
 0001:0002c0d0       ??2@YAPEAX_K@Z             000000014002d0d0 f   MSVCRTD:new_scalar.obj
 0001:0002c120       ??3@YAXPEAX@Z              000000014002d120 f   MSVCRTD:delete_scalar.obj
 0001:0002c140       ??3@YAXPEAX_K@Z            000000014002d140 f   MSVCRTD:delete_scalar_size.obj
 0001:0002c160       ??$__crt_fast_decode_pointer@PEAP6AXXZ@@YAPEAP6AXXZQEAP6AXXZ@Z 000000014002d160 f i MSVCRTD:utility.obj
 0001:0002c1a0       ??$__crt_fast_encode_pointer@PEAP6AXXZ@@YAPEAP6AXXZQEAP6AXXZ@Z 000000014002d1a0 f i MSVCRTD:utility.obj
 0001:0002c1e0       ?__crt_rotate_pointer_value@@YA_K_KH@Z 000000014002d1e0 f i MSVCRTD:utility.obj
 0001:0002c200       ?configure_argv@__scrt_narrow_argv_policy@@SAHXZ 000000014002d200 f i MSVCRTD:utility.obj
 0001:0002c380       NtCurrentTeb               000000014002d380 f i MSVCRTD:utility.obj
 0001:0002c390       __scrt_acquire_startup_lock 000000014002d390 f   MSVCRTD:utility.obj
 0001:0002c400       __scrt_dllmain_after_initialize_c 000000014002d400 f   MSVCRTD:utility.obj
 0001:0002c430       __scrt_dllmain_before_initialize_c 000000014002d430 f   MSVCRTD:utility.obj
 0001:0002c450       __scrt_dllmain_crt_thread_attach 000000014002d450 f   MSVCRTD:utility.obj
 0001:0002c480       __scrt_dllmain_crt_thread_detach 000000014002d480 f   MSVCRTD:utility.obj
 0001:0002c4a0       __scrt_dllmain_exception_filter 000000014002d4a0 f   MSVCRTD:utility.obj
 0001:0002c500       __scrt_dllmain_uninitialize_c 000000014002d500 f   MSVCRTD:utility.obj
 0001:0002c530       __scrt_dllmain_uninitialize_critical 000000014002d530 f   MSVCRTD:utility.obj
 0001:0002c550       __scrt_initialize_crt      000000014002d550 f   MSVCRTD:utility.obj
 0001:0002c5a0       __scrt_initialize_onexit_tables 000000014002d5a0 f   MSVCRTD:utility.obj
 0001:0002c6a0       __scrt_is_nonwritable_in_current_image 000000014002d6a0 f   MSVCRTD:utility.obj
 0001:0002c730       __scrt_release_startup_lock 000000014002d730 f   MSVCRTD:utility.obj
 0001:0002c760       __scrt_uninitialize_crt    000000014002d760 f   MSVCRTD:utility.obj
 0001:0002c7a0       _onexit                    000000014002d7a0 f   MSVCRTD:utility.obj
 0001:0002c830       at_quick_exit              000000014002d830 f   MSVCRTD:utility.obj
 0001:0002c880       atexit                     000000014002d880 f   MSVCRTD:utility.obj
 0001:0002c8c0       __GSHandlerCheck           000000014002d8c0 f   MSVCRTD:_gshandler_.obj
 0001:0002c900       __GSHandlerCheckCommon     000000014002d900 f   MSVCRTD:_gshandler_.obj
 0001:0002ca00       __GSHandlerCheck_EH        000000014002da00 f   MSVCRTD:gshandlereh.obj
 0001:0002cac0       __security_check_cookie    000000014002dac0 f   MSVCRTD:_amdsecgs_.obj
 0001:0002caf0       ??1type_info@@UEAA@XZ      000000014002daf0 f   MSVCRTD:std_type_info_static.obj
 0001:0002cb10       ??_Etype_info@@UEAAPEAXI@Z 000000014002db10 f i MSVCRTD:std_type_info_static.obj
 0001:0002cb10       ??_Gtype_info@@UEAAPEAXI@Z 000000014002db10 f i MSVCRTD:std_type_info_static.obj
 0001:0002cb50       ??_U@YAPEAX_K@Z            000000014002db50 f   MSVCRTD:new_array.obj
 0001:0002cb70       ??_V@YAXPEAX@Z             000000014002db70 f   MSVCRTD:delete_array.obj
 0001:0002ce40       ?get_app_type@__scrt_main_policy@@SA?AW4_crt_app_type@@XZ 000000014002de40 f i MSVCRTD:exe_main.obj
 0001:0002cea0       mainCRTStartup             000000014002dea0 f   MSVCRTD:exe_main.obj
 0001:0002ceb0       _guard_check_icall         000000014002deb0 f i MSVCRTD:checkcfg.obj
 0001:0002ced0       ??0bad_alloc@std@@AEAA@QEBD@Z 000000014002ded0 f i MSVCRTD:throw_bad_alloc.obj
 0001:0002cf10       ??0bad_array_new_length@std@@QEAA@AEBV01@@Z 000000014002df10 f i MSVCRTD:throw_bad_alloc.obj
 0001:0002cf50       ??0bad_array_new_length@std@@QEAA@XZ 000000014002df50 f i MSVCRTD:throw_bad_alloc.obj
 0001:0002cf90       ??1bad_array_new_length@std@@UEAA@XZ 000000014002df90 f i MSVCRTD:throw_bad_alloc.obj
 0001:0002cfb0       ??_Ebad_array_new_length@std@@UEAAPEAXI@Z 000000014002dfb0 f i MSVCRTD:throw_bad_alloc.obj
 0001:0002cfb0       ??_Gbad_array_new_length@std@@UEAAPEAXI@Z 000000014002dfb0 f i MSVCRTD:throw_bad_alloc.obj
 0001:0002cff0       ?__scrt_throw_std_bad_alloc@@YAXXZ 000000014002dff0 f   MSVCRTD:throw_bad_alloc.obj
 0001:0002d020       ?__scrt_throw_std_bad_array_new_length@@YAXXZ 000000014002e020 f   MSVCRTD:throw_bad_alloc.obj
 0001:0002d050       __isa_available_init       000000014002e050 f   MSVCRTD:_cpu_disp_.obj
 0001:0002d3d0       _get_startup_argv_mode     000000014002e3d0 f   MSVCRTD:argv_mode.obj
 0001:0002d3e0       __scrt_is_ucrt_dll_in_use  000000014002e3e0 f   MSVCRTD:ucrt_detection.obj
 0001:0002d410       __crt_debugger_hook        000000014002e410 f   MSVCRTD:utility_desktop.obj
 0001:0002d420       __scrt_fastfail            000000014002e420 f   MSVCRTD:utility_desktop.obj
 0001:0002d5c0       __scrt_get_show_window_mode 000000014002e5c0 f   MSVCRTD:utility_desktop.obj
 0001:0002d620       __scrt_initialize_winrt    000000014002e620 f   MSVCRTD:utility_desktop.obj
 0001:0002d630       __scrt_is_managed_app      000000014002e630 f   MSVCRTD:utility_desktop.obj
 0001:0002d6e0       __scrt_set_unhandled_exception_filter 000000014002e6e0 f   MSVCRTD:utility_desktop.obj
 0001:0002d700       __scrt_unhandled_exception_filter 000000014002e700 f   MSVCRTD:utility_desktop.obj
 0001:0002d780       __raise_securityfailure    000000014002e780 f   MSVCRTD:gs_report.obj
 0001:0002d7c0       __report_gsfailure         000000014002e7c0 f   MSVCRTD:gs_report.obj
 0001:0002d8a0       __report_rangecheckfailure 000000014002e8a0 f   MSVCRTD:gs_report.obj
 0001:0002d8c0       __report_securityfailure   000000014002e8c0 f   MSVCRTD:gs_report.obj
 0001:0002d960       __report_securityfailureEx 000000014002e960 f   MSVCRTD:gs_report.obj
 0001:0002dbd0       __security_init_cookie     000000014002ebd0 f   MSVCRTD:gs_support.obj
 0001:0002dcf0       _matherr                   000000014002ecf0 f   MSVCRTD:matherr.obj
 0001:0002dd00       _get_startup_commit_mode   000000014002ed00 f   MSVCRTD:commit_mode.obj
 0001:0002dd10       _get_startup_file_mode     000000014002ed10 f   MSVCRTD:file_mode.obj
 0001:0002dd20       _get_startup_new_mode      000000014002ed20 f   MSVCRTD:new_mode.obj
 0001:0002dd30       _get_startup_thread_locale_mode 000000014002ed30 f   MSVCRTD:thread_locale.obj
 0001:0002dd40       ?__scrt_initialize_type_info@@YAXXZ 000000014002ed40 f   MSVCRTD:tncleanup.obj
 0001:0002dd60       ?__scrt_uninitialize_type_info@@YAXXZ 000000014002ed60 f   MSVCRTD:tncleanup.obj
 0001:0002dd80       _should_initialize_environment 000000014002ed80 f   MSVCRTD:env_mode.obj
 0001:0002dd90       _initialize_invalid_parameter_handler 000000014002ed90 f   MSVCRTD:invalid_parameter_handler.obj
 0001:0002dda0       _initialize_denormal_control 000000014002eda0 f   MSVCRTD:denormal_control.obj
 0001:0002ddb0       __local_stdio_printf_options 000000014002edb0 f i MSVCRTD:default_local_stdio_options.obj
 0001:0002ddc0       __scrt_initialize_default_local_stdio_options 000000014002edc0 f   MSVCRTD:default_local_stdio_options.obj
 0001:0002de10       __scrt_is_user_matherr_present 000000014002ee10 f   MSVCRTD:matherr_detection.obj
 0001:0002de40       __scrt_get_dyn_tls_init_callback 000000014002ee40 f   MSVCRTD:dyn_tls_init.obj
 0001:0002de50       __scrt_get_dyn_tls_dtor_callback 000000014002ee50 f   MSVCRTD:dyn_tls_dtor.obj
 0001:0002de60       _RTC_Initialize            000000014002ee60 f   MSVCRTD:_initsect_.obj
 0001:0002deb0       _RTC_Terminate             000000014002eeb0 f   MSVCRTD:_initsect_.obj
 0001:0002df00       _guard_check_icall_nop     000000014002ef00 f i MSVCRTD:guard_support.obj
 0001:0002df10       _guard_icall_checks_enforced 000000014002ef10 f i MSVCRTD:guard_support.obj
 0001:0002df40       memcpy                     000000014002ef40 f   vcruntimed:VCRUNTIME140D.dll
 0001:0002df46       memmove                    000000014002ef46 f   vcruntimed:VCRUNTIME140D.dll
 0001:0002df4c       __std_exception_copy       000000014002ef4c f   vcruntimed:VCRUNTIME140D.dll
 0001:0002df52       __std_exception_destroy    000000014002ef52 f   vcruntimed:VCRUNTIME140D.dll
 0001:0002df58       _CxxThrowException         000000014002ef58 f   vcruntimed:VCRUNTIME140D.dll
 0001:0002df5e       __CxxFrameHandler3         000000014002ef5e f   vcruntimed:VCRUNTIME140D.dll
 0001:0002df64       _purecall                  000000014002ef64 f   vcruntimed:VCRUNTIME140D.dll
 0001:0002df6a       memset                     000000014002ef6a f   vcruntimed:VCRUNTIME140D.dll
 0001:0002df70       memcmp                     000000014002ef70 f   vcruntimed:VCRUNTIME140D.dll
 0001:0002df76       __C_specific_handler       000000014002ef76 f   vcruntimed:VCRUNTIME140D.dll
 0001:0002df7c       __std_type_info_destroy_list 000000014002ef7c f   vcruntimed:VCRUNTIME140D.dll
 0001:0002df82       _invalid_parameter         000000014002ef82 f   ucrtd:ucrtbased.dll
 0001:0002df88       strlen                     000000014002ef88 f   ucrtd:ucrtbased.dll
 0001:0002df8e       _CrtDbgReportW             000000014002ef8e f   ucrtd:ucrtbased.dll
 0001:0002df94       _errno                     000000014002ef94 f   ucrtd:ucrtbased.dll
 0001:0002df9a       strtol                     000000014002ef9a f   ucrtd:ucrtbased.dll
 0001:0002dfa0       _kbhit                     000000014002efa0 f   ucrtd:ucrtbased.dll
 0001:0002dfa6       __stdio_common_vsscanf     000000014002efa6 f   ucrtd:ucrtbased.dll
 0001:0002dfac       _free_dbg                  000000014002efac f   ucrtd:ucrtbased.dll
 0001:0002dfb2       _malloc_dbg                000000014002efb2 f   ucrtd:ucrtbased.dll
 0001:0002dfb8       terminate                  000000014002efb8 f   ucrtd:ucrtbased.dll
 0001:0002dfbe       _callnewh                  000000014002efbe f   ucrtd:ucrtbased.dll
 0001:0002dfc4       malloc                     000000014002efc4 f   ucrtd:ucrtbased.dll
 0001:0002dfca       _seh_filter_dll            000000014002efca f   ucrtd:ucrtbased.dll
 0001:0002dfd0       _configure_narrow_argv     000000014002efd0 f   ucrtd:ucrtbased.dll
 0001:0002dfd6       _initialize_narrow_environment 000000014002efd6 f   ucrtd:ucrtbased.dll
 0001:0002dfdc       _initialize_onexit_table   000000014002efdc f   ucrtd:ucrtbased.dll
 0001:0002dfe2       _register_onexit_function  000000014002efe2 f   ucrtd:ucrtbased.dll
 0001:0002dfe8       _execute_onexit_table      000000014002efe8 f   ucrtd:ucrtbased.dll
 0001:0002dfee       _crt_atexit                000000014002efee f   ucrtd:ucrtbased.dll
 0001:0002dff4       _crt_at_quick_exit         000000014002eff4 f   ucrtd:ucrtbased.dll
 0001:0002dffa       _cexit                     000000014002effa f   ucrtd:ucrtbased.dll
 0001:0002e000       _seh_filter_exe            000000014002f000 f   ucrtd:ucrtbased.dll
 0001:0002e006       _set_app_type              000000014002f006 f   ucrtd:ucrtbased.dll
 0001:0002e00c       __setusermatherr           000000014002f00c f   ucrtd:ucrtbased.dll
 0001:0002e012       _get_initial_narrow_environment 000000014002f012 f   ucrtd:ucrtbased.dll
 0001:0002e018       _initterm                  000000014002f018 f   ucrtd:ucrtbased.dll
 0001:0002e01e       _initterm_e                000000014002f01e f   ucrtd:ucrtbased.dll
 0001:0002e024       exit                       000000014002f024 f   ucrtd:ucrtbased.dll
 0001:0002e02a       _exit                      000000014002f02a f   ucrtd:ucrtbased.dll
 0001:0002e030       _set_fmode                 000000014002f030 f   ucrtd:ucrtbased.dll
 0001:0002e036       __p___argc                 000000014002f036 f   ucrtd:ucrtbased.dll
 0001:0002e03c       __p___argv                 000000014002f03c f   ucrtd:ucrtbased.dll
 0001:0002e042       _c_exit                    000000014002f042 f   ucrtd:ucrtbased.dll
 0001:0002e048       _register_thread_local_exe_atexit_callback 000000014002f048 f   ucrtd:ucrtbased.dll
 0001:0002e04e       _configthreadlocale        000000014002f04e f   ucrtd:ucrtbased.dll
 0001:0002e054       _set_new_mode              000000014002f054 f   ucrtd:ucrtbased.dll
 0001:0002e05a       __p__commode               000000014002f05a f   ucrtd:ucrtbased.dll
 0001:0002e060       RtlCaptureContext          000000014002f060 f   kernel32:KERNEL32.dll
 0001:0002e066       RtlLookupFunctionEntry     000000014002f066 f   kernel32:KERNEL32.dll
 0001:0002e06c       RtlVirtualUnwind           000000014002f06c f   kernel32:KERNEL32.dll
 0001:0002e072       IsDebuggerPresent          000000014002f072 f   kernel32:KERNEL32.dll
 0001:0002e078       UnhandledExceptionFilter   000000014002f078 f   kernel32:KERNEL32.dll
 0001:0002e07e       SetUnhandledExceptionFilter 000000014002f07e f   kernel32:KERNEL32.dll
 0001:0002e084       GetStartupInfoW            000000014002f084 f   kernel32:KERNEL32.dll
 0001:0002e08a       IsProcessorFeaturePresent  000000014002f08a f   kernel32:KERNEL32.dll
 0001:0002e090       GetModuleHandleW           000000014002f090 f   kernel32:KERNEL32.dll
 0001:0002e096       GetCurrentProcess          000000014002f096 f   kernel32:KERNEL32.dll
 0001:0002e09c       TerminateProcess           000000014002f09c f   kernel32:KERNEL32.dll
 0001:0002e0a2       QueryPerformanceCounter    000000014002f0a2 f   kernel32:KERNEL32.dll
 0001:0002e0a8       GetCurrentProcessId        000000014002f0a8 f   kernel32:KERNEL32.dll
 0001:0002e0ae       GetCurrentThreadId         000000014002f0ae f   kernel32:KERNEL32.dll
 0001:0002e0b4       GetSystemTimeAsFileTime    000000014002f0b4 f   kernel32:KERNEL32.dll
 0001:0002e0ba       InitializeSListHead        000000014002f0ba f   kernel32:KERNEL32.dll
 0001:0002e0c0       __vcrt_initialize          000000014002f0c0 f   MSVCRTD:ucrt_stubs.obj
 0001:0002e0c0       __scrt_stub_for_acrt_initialize 000000014002f0c0 f   MSVCRTD:ucrt_stubs.obj
 0001:0002e0c0       __acrt_initialize          000000014002f0c0 f   MSVCRTD:ucrt_stubs.obj
 0001:0002e0d0       __scrt_stub_for_acrt_thread_attach 000000014002f0d0 f   MSVCRTD:ucrt_stubs.obj
 0001:0002e0d0       __acrt_thread_attach       000000014002f0d0 f   MSVCRTD:ucrt_stubs.obj
 0001:0002e0d0       __vcrt_thread_attach       000000014002f0d0 f   MSVCRTD:ucrt_stubs.obj
 0001:0002e0e0       __vcrt_thread_detach       000000014002f0e0 f   MSVCRTD:ucrt_stubs.obj
 0001:0002e0e0       __scrt_stub_for_acrt_thread_detach 000000014002f0e0 f   MSVCRTD:ucrt_stubs.obj
 0001:0002e0e0       __acrt_thread_detach       000000014002f0e0 f   MSVCRTD:ucrt_stubs.obj
 0001:0002e0f0       __vcrt_uninitialize        000000014002f0f0 f   MSVCRTD:ucrt_stubs.obj
 0001:0002e0f0       __scrt_stub_for_acrt_uninitialize 000000014002f0f0 f   MSVCRTD:ucrt_stubs.obj
 0001:0002e0f0       __acrt_uninitialize        000000014002f0f0 f   MSVCRTD:ucrt_stubs.obj
 0001:0002e100       __vcrt_uninitialize_critical 000000014002f100 f   MSVCRTD:ucrt_stubs.obj
 0001:0002e100       __acrt_uninitialize_critical 000000014002f100 f   MSVCRTD:ucrt_stubs.obj
 0001:0002e100       __scrt_stub_for_acrt_uninitialize_critical 000000014002f100 f   MSVCRTD:ucrt_stubs.obj
 0001:0002e110       __scrt_stub_for_is_c_termination_complete 000000014002f110 f   MSVCRTD:ucrt_stubs.obj
 0001:0002e110       _is_c_termination_complete 000000014002f110 f   MSVCRTD:ucrt_stubs.obj
 0001:0002e130       _guard_dispatch_icall_nop  000000014002f130 f   MSVCRTD:_guard_dispatch_.obj
 0002:00000000       __imp_InitializeSListHead  0000000140033000     kernel32:KERNEL32.dll
 0002:00000008       __imp_GetSystemTimeAsFileTime 0000000140033008     kernel32:KERNEL32.dll
 0002:00000010       __imp_GetCurrentThreadId   0000000140033010     kernel32:KERNEL32.dll
 0002:00000018       __imp_GetCurrentProcessId  0000000140033018     kernel32:KERNEL32.dll
 0002:00000020       __imp_QueryPerformanceCounter 0000000140033020     kernel32:KERNEL32.dll
 0002:00000028       __imp_TerminateProcess     0000000140033028     kernel32:KERNEL32.dll
 0002:00000030       __imp_GetCurrentProcess    0000000140033030     kernel32:KERNEL32.dll
 0002:00000038       __imp_GetModuleHandleW     0000000140033038     kernel32:KERNEL32.dll
 0002:00000040       __imp_IsProcessorFeaturePresent 0000000140033040     kernel32:KERNEL32.dll
 0002:00000048       __imp_GetStartupInfoW      0000000140033048     kernel32:KERNEL32.dll
 0002:00000050       __imp_SetUnhandledExceptionFilter 0000000140033050     kernel32:KERNEL32.dll
 0002:00000058       __imp_UnhandledExceptionFilter 0000000140033058     kernel32:KERNEL32.dll
 0002:00000060       __imp_IsDebuggerPresent    0000000140033060     kernel32:KERNEL32.dll
 0002:00000068       __imp_RtlVirtualUnwind     0000000140033068     kernel32:KERNEL32.dll
 0002:00000070       __imp_RtlLookupFunctionEntry 0000000140033070     kernel32:KERNEL32.dll
 0002:00000078       __imp_RtlCaptureContext    0000000140033078     kernel32:KERNEL32.dll
 0002:00000080       __imp_CreateThread         0000000140033080     kernel32:KERNEL32.dll
 0002:00000088       \177KERNEL32_NULL_THUNK_DATA 0000000140033088     kernel32:KERNEL32.dll
 0002:00000090       __imp_?put@?$basic_ostream@DU?$char_traits@D@std@@@std@@QEAAAEAV12@D@Z 0000000140033090     msvcprtd:MSVCP140D.dll
 0002:00000098       __imp_??6?$basic_ostream@DU?$char_traits@D@std@@@std@@QEAAAEAV01@P6AAEAV01@AEAV01@@Z@Z 0000000140033098     msvcprtd:MSVCP140D.dll
 0002:000000a0       __imp_?widen@?$basic_ios@DU?$char_traits@D@std@@@std@@QEBADD@Z 00000001400330a0     msvcprtd:MSVCP140D.dll
 0002:000000a8       __imp_?sputn@?$basic_streambuf@DU?$char_traits@D@std@@@std@@QEAA_JPEBD_J@Z 00000001400330a8     msvcprtd:MSVCP140D.dll
 0002:000000b0       __imp_?sbumpc@?$basic_streambuf@DU?$char_traits@D@std@@@std@@QEAAHXZ 00000001400330b0     msvcprtd:MSVCP140D.dll
 0002:000000b8       __imp_??Bios_base@std@@QEBA_NXZ 00000001400330b8     msvcprtd:MSVCP140D.dll
 0002:000000c0       __imp_?cout@std@@3V?$basic_ostream@DU?$char_traits@D@std@@@1@A 00000001400330c0     msvcprtd:MSVCP140D.dll
 0002:000000c8       __imp_?_BADOFF@std@@3_JB   00000001400330c8     msvcprtd:MSVCP140D.dll
 0002:000000d0       __imp_?xsputn@?$basic_streambuf@DU?$char_traits@D@std@@@std@@MEAA_JPEBD_J@Z 00000001400330d0     msvcprtd:MSVCP140D.dll
 0002:000000d8       __imp_?xsgetn@?$basic_streambuf@DU?$char_traits@D@std@@@std@@MEAA_JPEAD_J@Z 00000001400330d8     msvcprtd:MSVCP140D.dll
 0002:000000e0       __imp_?uflow@?$basic_streambuf@DU?$char_traits@D@std@@@std@@MEAAHXZ 00000001400330e0     msvcprtd:MSVCP140D.dll
 0002:000000e8       __imp_?sync@?$basic_streambuf@DU?$char_traits@D@std@@@std@@MEAAHXZ 00000001400330e8     msvcprtd:MSVCP140D.dll
 0002:000000f0       __imp_?showmanyc@?$basic_streambuf@DU?$char_traits@D@std@@@std@@MEAA_JXZ 00000001400330f0     msvcprtd:MSVCP140D.dll
 0002:000000f8       __imp_?setbuf@?$basic_streambuf@DU?$char_traits@D@std@@@std@@MEAAPEAV12@PEAD_J@Z 00000001400330f8     msvcprtd:MSVCP140D.dll
 0002:00000100       __imp_?imbue@?$basic_streambuf@DU?$char_traits@D@std@@@std@@MEAAXAEBVlocale@2@@Z 0000000140033100     msvcprtd:MSVCP140D.dll
 0002:00000108       __imp_?_Unlock@?$basic_streambuf@DU?$char_traits@D@std@@@std@@UEAAXXZ 0000000140033108     msvcprtd:MSVCP140D.dll
 0002:00000110       __imp_?_Lock@?$basic_streambuf@DU?$char_traits@D@std@@@std@@UEAAXXZ 0000000140033110     msvcprtd:MSVCP140D.dll
 0002:00000118       __imp_??1?$basic_iostream@DU?$char_traits@D@std@@@std@@UEAA@XZ 0000000140033118     msvcprtd:MSVCP140D.dll
 0002:00000120       __imp_??0?$basic_iostream@DU?$char_traits@D@std@@@std@@QEAA@PEAV?$basic_streambuf@DU?$char_traits@D@std@@@1@@Z 0000000140033120     msvcprtd:MSVCP140D.dll
 0002:00000128       __imp_?_Ipfx@?$basic_istream@DU?$char_traits@D@std@@@std@@QEAA_N_N@Z 0000000140033128     msvcprtd:MSVCP140D.dll
 0002:00000130       __imp_?flush@?$basic_ostream@DU?$char_traits@D@std@@@std@@QEAAAEAV12@XZ 0000000140033130     msvcprtd:MSVCP140D.dll
 0002:00000138       __imp_??6?$basic_ostream@DU?$char_traits@D@std@@@std@@QEAAAEAV01@H@Z 0000000140033138     msvcprtd:MSVCP140D.dll
 0002:00000140       __imp_??6?$basic_ostream@DU?$char_traits@D@std@@@std@@QEAAAEAV01@P6AAEAVios_base@1@AEAV21@@Z@Z 0000000140033140     msvcprtd:MSVCP140D.dll
 0002:00000148       __imp_?_Osfx@?$basic_ostream@DU?$char_traits@D@std@@@std@@QEAAXXZ 0000000140033148     msvcprtd:MSVCP140D.dll
 0002:00000150       __imp_??0?$basic_ios@DU?$char_traits@D@std@@@std@@IEAA@XZ 0000000140033150     msvcprtd:MSVCP140D.dll
 0002:00000158       __imp_?fill@?$basic_ios@DU?$char_traits@D@std@@@std@@QEAADD@Z 0000000140033158     msvcprtd:MSVCP140D.dll
 0002:00000160       __imp_?fill@?$basic_ios@DU?$char_traits@D@std@@@std@@QEBADXZ 0000000140033160     msvcprtd:MSVCP140D.dll
 0002:00000168       __imp_?rdbuf@?$basic_ios@DU?$char_traits@D@std@@@std@@QEBAPEAV?$basic_streambuf@DU?$char_traits@D@std@@@2@XZ 0000000140033168     msvcprtd:MSVCP140D.dll
 0002:00000170       __imp_?id@?$ctype@D@std@@2V0locale@2@A 0000000140033170     msvcprtd:MSVCP140D.dll
 0002:00000178       __imp_?tie@?$basic_ios@DU?$char_traits@D@std@@@std@@QEBAPEAV?$basic_ostream@DU?$char_traits@D@std@@@2@XZ 0000000140033178     msvcprtd:MSVCP140D.dll
 0002:00000180       __imp_?setstate@?$basic_ios@DU?$char_traits@D@std@@@std@@QEAAXH_N@Z 0000000140033180     msvcprtd:MSVCP140D.dll
 0002:00000188       __imp_??1?$basic_ios@DU?$char_traits@D@std@@@std@@UEAA@XZ 0000000140033188     msvcprtd:MSVCP140D.dll
 0002:00000190       __imp_?_Pninc@?$basic_streambuf@DU?$char_traits@D@std@@@std@@IEAAPEADXZ 0000000140033190     msvcprtd:MSVCP140D.dll
 0002:00000198       __imp_?setp@?$basic_streambuf@DU?$char_traits@D@std@@@std@@IEAAXPEAD00@Z 0000000140033198     msvcprtd:MSVCP140D.dll
 0002:000001a0       __imp_?setp@?$basic_streambuf@DU?$char_traits@D@std@@@std@@IEAAXPEAD0@Z 00000001400331a0     msvcprtd:MSVCP140D.dll
 0002:000001a8       __imp_?pbump@?$basic_streambuf@DU?$char_traits@D@std@@@std@@IEAAXH@Z 00000001400331a8     msvcprtd:MSVCP140D.dll
 0002:000001b0       __imp_??0_Lockit@std@@QEAA@H@Z 00000001400331b0     msvcprtd:MSVCP140D.dll
 0002:000001b8       __imp_??1_Lockit@std@@QEAA@XZ 00000001400331b8     msvcprtd:MSVCP140D.dll
 0002:000001c0       __imp_?_Debug_message@std@@YAXPEB_W0I@Z 00000001400331c0     msvcprtd:MSVCP140D.dll
 0002:000001c8       __imp_?_Xbad_alloc@std@@YAXXZ 00000001400331c8     msvcprtd:MSVCP140D.dll
 0002:000001d0       __imp_?_Xlength_error@std@@YAXPEBD@Z 00000001400331d0     msvcprtd:MSVCP140D.dll
 0002:000001d8       __imp_?_Xout_of_range@std@@YAXPEBD@Z 00000001400331d8     msvcprtd:MSVCP140D.dll
 0002:000001e0       __imp_?uncaught_exception@std@@YA_NXZ 00000001400331e0     msvcprtd:MSVCP140D.dll
 0002:000001e8       __imp_?_Xinvalid_argument@std@@YAXPEBD@Z 00000001400331e8     msvcprtd:MSVCP140D.dll
 0002:000001f0       __imp_??Bid@locale@std@@QEAA_KXZ 00000001400331f0     msvcprtd:MSVCP140D.dll
 0002:000001f8       __imp_?_Getgloballocale@locale@std@@CAPEAV_Locimp@12@XZ 00000001400331f8     msvcprtd:MSVCP140D.dll
 0002:00000200       __imp_?is@?$ctype@D@std@@QEBA_NFD@Z 0000000140033200     msvcprtd:MSVCP140D.dll
 0002:00000208       __imp_?_Getcat@?$ctype@D@std@@SA_KPEAPEBVfacet@locale@2@PEBV42@@Z 0000000140033208     msvcprtd:MSVCP140D.dll
 0002:00000210       __imp_?good@ios_base@std@@QEBA_NXZ 0000000140033210     msvcprtd:MSVCP140D.dll
 0002:00000218       __imp_?flags@ios_base@std@@QEBAHXZ 0000000140033218     msvcprtd:MSVCP140D.dll
 0002:00000220       __imp_?setf@ios_base@std@@QEAAHHH@Z 0000000140033220     msvcprtd:MSVCP140D.dll
 0002:00000228       __imp_?width@ios_base@std@@QEBA_JXZ 0000000140033228     msvcprtd:MSVCP140D.dll
 0002:00000230       __imp_?width@ios_base@std@@QEAA_J_J@Z 0000000140033230     msvcprtd:MSVCP140D.dll
 0002:00000238       __imp_?getloc@ios_base@std@@QEBA?AVlocale@2@XZ 0000000140033238     msvcprtd:MSVCP140D.dll
 0002:00000240       __imp_??0?$basic_streambuf@DU?$char_traits@D@std@@@std@@IEAA@XZ 0000000140033240     msvcprtd:MSVCP140D.dll
 0002:00000248       __imp_??1?$basic_streambuf@DU?$char_traits@D@std@@@std@@UEAA@XZ 0000000140033248     msvcprtd:MSVCP140D.dll
 0002:00000250       __imp_?sgetc@?$basic_streambuf@DU?$char_traits@D@std@@@std@@QEAAHXZ 0000000140033250     msvcprtd:MSVCP140D.dll
 0002:00000258       __imp_?snextc@?$basic_streambuf@DU?$char_traits@D@std@@@std@@QEAAHXZ 0000000140033258     msvcprtd:MSVCP140D.dll
 0002:00000260       __imp_?sputc@?$basic_streambuf@DU?$char_traits@D@std@@@std@@QEAAHD@Z 0000000140033260     msvcprtd:MSVCP140D.dll
 0002:00000268       __imp_?eback@?$basic_streambuf@DU?$char_traits@D@std@@@std@@IEBAPEADXZ 0000000140033268     msvcprtd:MSVCP140D.dll
 0002:00000270       __imp_?gptr@?$basic_streambuf@DU?$char_traits@D@std@@@std@@IEBAPEADXZ 0000000140033270     msvcprtd:MSVCP140D.dll
 0002:00000278       __imp_?pbase@?$basic_streambuf@DU?$char_traits@D@std@@@std@@IEBAPEADXZ 0000000140033278     msvcprtd:MSVCP140D.dll
 0002:00000280       __imp_?pptr@?$basic_streambuf@DU?$char_traits@D@std@@@std@@IEBAPEADXZ 0000000140033280     msvcprtd:MSVCP140D.dll
 0002:00000288       __imp_?egptr@?$basic_streambuf@DU?$char_traits@D@std@@@std@@IEBAPEADXZ 0000000140033288     msvcprtd:MSVCP140D.dll
 0002:00000290       __imp_?gbump@?$basic_streambuf@DU?$char_traits@D@std@@@std@@IEAAXH@Z 0000000140033290     msvcprtd:MSVCP140D.dll
 0002:00000298       __imp_?setg@?$basic_streambuf@DU?$char_traits@D@std@@@std@@IEAAXPEAD00@Z 0000000140033298     msvcprtd:MSVCP140D.dll
 0002:000002a0       __imp_?epptr@?$basic_streambuf@DU?$char_traits@D@std@@@std@@IEBAPEADXZ 00000001400332a0     msvcprtd:MSVCP140D.dll
 0002:000002a8       \177MSVCP140D_NULL_THUNK_DATA 00000001400332a8     msvcprtd:MSVCP140D.dll
 0002:000002b0       __imp_memmove              00000001400332b0     vcruntimed:VCRUNTIME140D.dll
 0002:000002b8       __imp___std_exception_copy 00000001400332b8     vcruntimed:VCRUNTIME140D.dll
 0002:000002c0       __imp___std_exception_destroy 00000001400332c0     vcruntimed:VCRUNTIME140D.dll
 0002:000002c8       __imp__CxxThrowException   00000001400332c8     vcruntimed:VCRUNTIME140D.dll
 0002:000002d0       __imp___CxxFrameHandler3   00000001400332d0     vcruntimed:VCRUNTIME140D.dll
 0002:000002d8       __imp__purecall            00000001400332d8     vcruntimed:VCRUNTIME140D.dll
 0002:000002e0       __imp___std_type_info_destroy_list 00000001400332e0     vcruntimed:VCRUNTIME140D.dll
 0002:000002e8       __imp___C_specific_handler 00000001400332e8     vcruntimed:VCRUNTIME140D.dll
 0002:000002f0       __imp_memcmp               00000001400332f0     vcruntimed:VCRUNTIME140D.dll
 0002:000002f8       __imp_memset               00000001400332f8     vcruntimed:VCRUNTIME140D.dll
 0002:00000300       __imp_memcpy               0000000140033300     vcruntimed:VCRUNTIME140D.dll
 0002:00000308       \177VCRUNTIME140D_NULL_THUNK_DATA 0000000140033308     vcruntimed:VCRUNTIME140D.dll
 0002:00000310       __imp_lsl_get_channel_count 0000000140033310     liblsl64:liblsl64.dll
 0002:00000318       __imp_lsl_create_outlet    0000000140033318     liblsl64:liblsl64.dll
 0002:00000320       __imp_lsl_destroy_outlet   0000000140033320     liblsl64:liblsl64.dll
 0002:00000328       __imp_lsl_push_sample_ftp  0000000140033328     liblsl64:liblsl64.dll
 0002:00000330       __imp_lsl_destroy_streaminfo 0000000140033330     liblsl64:liblsl64.dll
 0002:00000338       __imp_lsl_create_streaminfo 0000000140033338     liblsl64:liblsl64.dll
 0002:00000340       \177liblsl64_NULL_THUNK_DATA 0000000140033340     liblsl64:liblsl64.dll
 0002:00000348       __imp__initterm            0000000140033348     ucrtd:ucrtbased.dll
 0002:00000350       __imp__get_initial_narrow_environment 0000000140033350     ucrtd:ucrtbased.dll
 0002:00000358       __imp___setusermatherr     0000000140033358     ucrtd:ucrtbased.dll
 0002:00000360       __imp__set_app_type        0000000140033360     ucrtd:ucrtbased.dll
 0002:00000368       __imp__seh_filter_exe      0000000140033368     ucrtd:ucrtbased.dll
 0002:00000370       __imp__initterm_e          0000000140033370     ucrtd:ucrtbased.dll
 0002:00000378       __imp__crt_at_quick_exit   0000000140033378     ucrtd:ucrtbased.dll
 0002:00000380       __imp__crt_atexit          0000000140033380     ucrtd:ucrtbased.dll
 0002:00000388       __imp__execute_onexit_table 0000000140033388     ucrtd:ucrtbased.dll
 0002:00000390       __imp__register_onexit_function 0000000140033390     ucrtd:ucrtbased.dll
 0002:00000398       __imp__initialize_onexit_table 0000000140033398     ucrtd:ucrtbased.dll
 0002:000003a0       __imp__initialize_narrow_environment 00000001400333a0     ucrtd:ucrtbased.dll
 0002:000003a8       __imp__configure_narrow_argv 00000001400333a8     ucrtd:ucrtbased.dll
 0002:000003b0       __imp__seh_filter_dll      00000001400333b0     ucrtd:ucrtbased.dll
 0002:000003b8       __imp_malloc               00000001400333b8     ucrtd:ucrtbased.dll
 0002:000003c0       __imp__callnewh            00000001400333c0     ucrtd:ucrtbased.dll
 0002:000003c8       __imp_terminate            00000001400333c8     ucrtd:ucrtbased.dll
 0002:000003d0       __imp__malloc_dbg          00000001400333d0     ucrtd:ucrtbased.dll
 0002:000003d8       __imp_exit                 00000001400333d8     ucrtd:ucrtbased.dll
 0002:000003e0       __imp__exit                00000001400333e0     ucrtd:ucrtbased.dll
 0002:000003e8       __imp__set_fmode           00000001400333e8     ucrtd:ucrtbased.dll
 0002:000003f0       __imp___p___argc           00000001400333f0     ucrtd:ucrtbased.dll
 0002:000003f8       __imp___p___argv           00000001400333f8     ucrtd:ucrtbased.dll
 0002:00000400       __imp__c_exit              0000000140033400     ucrtd:ucrtbased.dll
 0002:00000408       __imp__register_thread_local_exe_atexit_callback 0000000140033408     ucrtd:ucrtbased.dll
 0002:00000410       __imp__configthreadlocale  0000000140033410     ucrtd:ucrtbased.dll
 0002:00000418       __imp__set_new_mode        0000000140033418     ucrtd:ucrtbased.dll
 0002:00000420       __imp___p__commode         0000000140033420     ucrtd:ucrtbased.dll
 0002:00000428       __imp__cexit               0000000140033428     ucrtd:ucrtbased.dll
 0002:00000430       __imp__invalid_parameter   0000000140033430     ucrtd:ucrtbased.dll
 0002:00000438       __imp_strlen               0000000140033438     ucrtd:ucrtbased.dll
 0002:00000440       __imp__CrtDbgReportW       0000000140033440     ucrtd:ucrtbased.dll
 0002:00000448       __imp__errno               0000000140033448     ucrtd:ucrtbased.dll
 0002:00000450       __imp_strtol               0000000140033450     ucrtd:ucrtbased.dll
 0002:00000458       __imp__kbhit               0000000140033458     ucrtd:ucrtbased.dll
 0002:00000460       __imp___stdio_common_vsscanf 0000000140033460     ucrtd:ucrtbased.dll
 0002:00000468       __imp__free_dbg            0000000140033468     ucrtd:ucrtbased.dll
 0002:00000470       \177ucrtbased_NULL_THUNK_DATA 0000000140033470     ucrtd:ucrtbased.dll
 0002:00000478       __imp_XsMath_minusOne      0000000140033478     xstypes64:xstypes64.dll
 0002:00000480       __imp_XsMath_two           0000000140033480     xstypes64:xstypes64.dll
 0002:00000488       __imp_XsMath_four          0000000140033488     xstypes64:xstypes64.dll
 0002:00000490       __imp_XsMath_minusTwo      0000000140033490     xstypes64:xstypes64.dll
 0002:00000498       __imp_XsMath_minusHalfPi   0000000140033498     xstypes64:xstypes64.dll
 0002:000004a0       __imp_XsMath_halfPi        00000001400334a0     xstypes64:xstypes64.dll
 0002:000004a8       __imp_XsMath_twoPi         00000001400334a8     xstypes64:xstypes64.dll
 0002:000004b0       __imp_XsMath_sqrt2         00000001400334b0     xstypes64:xstypes64.dll
 0002:000004b8       __imp_XsMath_sqrtHalf      00000001400334b8     xstypes64:xstypes64.dll
 0002:000004c0       __imp_XsMath_infinity      00000001400334c0     xstypes64:xstypes64.dll
 0002:000004c8       __imp_g_xsByteArrayDescriptor 00000001400334c8     xstypes64:xstypes64.dll
 0002:000004d0       __imp_XsQuaternion_fromEulerAngles 00000001400334d0     xstypes64:xstypes64.dll
 0002:000004d8       __imp_XsEuler_fromQuaternion 00000001400334d8     xstypes64:xstypes64.dll
 0002:000004e0       __imp_XsArray_construct    00000001400334e0     xstypes64:xstypes64.dll
 0002:000004e8       __imp_XsString_assign      00000001400334e8     xstypes64:xstypes64.dll
 0002:000004f0       __imp_XsTime_msleep        00000001400334f0     xstypes64:xstypes64.dll
 0002:000004f8       __imp_g_xsStringDescriptor 00000001400334f8     xstypes64:xstypes64.dll
 0002:00000500       __imp_XsTime_secPerDay     0000000140033500     xstypes64:xstypes64.dll
 0002:00000508       __imp_XsTime_milliSecPerDay 0000000140033508     xstypes64:xstypes64.dll
 0002:00000510       __imp_XsTime_timeStampMax  0000000140033510     xstypes64:xstypes64.dll
 0002:00000518       __imp_XsArray_destruct     0000000140033518     xstypes64:xstypes64.dll
 0002:00000520       __imp_XsArray_resize       0000000140033520     xstypes64:xstypes64.dll
 0002:00000528       __imp_XsArray_copy         0000000140033528     xstypes64:xstypes64.dll
 0002:00000530       __imp_XsSocket_create      0000000140033530     xstypes64:xstypes64.dll
 0002:00000538       __imp_XsSocket_destroy     0000000140033538     xstypes64:xstypes64.dll
 0002:00000540       __imp_XsSocket_read        0000000140033540     xstypes64:xstypes64.dll
 0002:00000548       __imp_XsSocket_allocate    0000000140033548     xstypes64:xstypes64.dll
 0002:00000550       __imp_XsSocket_free        0000000140033550     xstypes64:xstypes64.dll
 0002:00000558       __imp_XsSocket_bind        0000000140033558     xstypes64:xstypes64.dll
 0002:00000560       __imp_XsMath_one           0000000140033560     xstypes64:xstypes64.dll
 0002:00000568       __imp_XsMath_minusPt5      0000000140033568     xstypes64:xstypes64.dll
 0002:00000570       __imp_XsMath_pt5           0000000140033570     xstypes64:xstypes64.dll
 0002:00000578       __imp_XsMath_pt25          0000000140033578     xstypes64:xstypes64.dll
 0002:00000580       __imp_XsMath_zero          0000000140033580     xstypes64:xstypes64.dll
 0002:00000588       __imp_XsMath_deg2radValue  0000000140033588     xstypes64:xstypes64.dll
 0002:00000590       __imp_XsMath_rad2degValue  0000000140033590     xstypes64:xstypes64.dll
 0002:00000598       __imp_XsMath_sqrtDenormalized 0000000140033598     xstypes64:xstypes64.dll
 0002:000005a0       __imp_XsMath_denormalized  00000001400335a0     xstypes64:xstypes64.dll
 0002:000005a8       __imp_XsMath_sqrtEpsilon   00000001400335a8     xstypes64:xstypes64.dll
 0002:000005b0       __imp_XsMath_epsilon       00000001400335b0     xstypes64:xstypes64.dll
 0002:000005b8       __imp_XsMath_hugeValue     00000001400335b8     xstypes64:xstypes64.dll
 0002:000005c0       __imp_XsMath_tinyValue     00000001400335c0     xstypes64:xstypes64.dll
 0002:000005c8       __imp_XsMath_pi            00000001400335c8     xstypes64:xstypes64.dll
 0002:000005d0       __imp_XsMath_e             00000001400335d0     xstypes64:xstypes64.dll
 0002:000005d8       __imp_XsMath_rad2deg       00000001400335d8     xstypes64:xstypes64.dll
 0002:000005e0       \177xstypes64_NULL_THUNK_DATA 00000001400335e0     xstypes64:xstypes64.dll
 0002:000005e8       __guard_check_icall_fptr   00000001400335e8     MSVCRTD:guard_support.obj
 0002:000005f0       __guard_dispatch_icall_fptr 00000001400335f0     MSVCRTD:guard_support.obj
 0002:000005f8       __xc_a                     00000001400335f8     MSVCRTD:initializers.obj
 0002:00000918       __xc_z                     0000000140033918     MSVCRTD:initializers.obj
 0002:00000920       __xi_a                     0000000140033920     MSVCRTD:initializers.obj
 0002:00000938       __xi_z                     0000000140033938     MSVCRTD:initializers.obj
 0002:00000940       __xp_a                     0000000140033940     MSVCRTD:initializers.obj
 0002:00000948       __xp_z                     0000000140033948     MSVCRTD:initializers.obj
 0002:00000950       __xt_a                     0000000140033950     MSVCRTD:initializers.obj
 0002:00000958       __xt_z                     0000000140033958     MSVCRTD:initializers.obj
 0002:00000ed0       ??_7exception@std@@6B@     0000000140033ed0     angularsegmentkinematicsdatagram.obj
 0002:00000ee0       ??_C@_0BC@EOODALEL@Unknown?5exception?$AA@ 0000000140033ee0     angularsegmentkinematicsdatagram.obj
 0002:00000f00       ??_C@_1JA@IJKHNLMB@?$AAC?$AA?3?$AA?2?$AAP?$AAr?$AAo?$AAg?$AAr?$AAa?$AAm?$AA?5?$AAF?$AAi?$AAl?$AAe?$AAs?$AA?5?$AA?$CI?$AAx?$AA8?$AA6?$AA?$CJ?$AA?2?$AAM?$AAi?$AAc?$AAr?$AAo?$AAs?$AAo?$AAf?$AAt@ 0000000140033f00     angularsegmentkinematicsdatagram.obj
 0002:00000f90       ??_C@_1DC@POOIKBAO@?$AAI?$AAT?$AAE?$AAR?$AAA?$AAT?$AAO?$AAR?$AA?5?$AAL?$AAI?$AAS?$AAT?$AA?5?$AAC?$AAO?$AAR?$AAR?$AAU?$AAP?$AAT?$AAE?$AAD?$AA?$CB?$AA?$AA@ 0000000140033f90     angularsegmentkinematicsdatagram.obj
 0002:00000fc8       ??_C@_0BE@LMNLACIC@_Ptr_container?5?$CB?$DN?50?$AA@ 0000000140033fc8     angularsegmentkinematicsdatagram.obj
 0002:00000fe0       ??_C@_1DG@HGDKEBPG@?$AA?$CC?$AA_?$AAP?$AAt?$AAr?$AA_?$AAc?$AAo?$AAn?$AAt?$AAa?$AAi?$AAn?$AAe?$AAr?$AA?5?$AA?$CB?$AA?$DN?$AA?5?$AA0?$AA?$CC?$AA?5?$AA?$CG?$AA?$CG?$AA?5?$AA0?$AA?$AA@ 0000000140033fe0     angularsegmentkinematicsdatagram.obj
 0002:00001018       ??_C@_17CNPHIMPH@?$AA?$CF?$AAl?$AAs?$AA?$AA@ 0000000140034018     angularsegmentkinematicsdatagram.obj
 0002:00001020       ??_C@_1JA@HEEMAOGC@?$AAC?$AA?3?$AA?2?$AAP?$AAr?$AAo?$AAg?$AAr?$AAa?$AAm?$AA?5?$AAF?$AAi?$AAl?$AAe?$AAs?$AA?5?$AA?$CI?$AAx?$AA8?$AA6?$AA?$CJ?$AA?2?$AAM?$AAi?$AAc?$AAr?$AAo?$AAs?$AAo?$AAf?$AAt@ 0000000140034020     angularsegmentkinematicsdatagram.obj
 0002:000010b0       ??_C@_1BO@NKFMJPA@?$AAs?$AAt?$AAd?$AA?3?$AA?3?$AA_?$AAA?$AAl?$AAl?$AAo?$AAc?$AAa?$AAt?$AAe?$AA?$AA@ 00000001400340b0     angularsegmentkinematicsdatagram.obj
 0002:000010d0       ??_C@_1CG@JNLFBNGN@?$AA?$CC?$AAi?$AAn?$AAv?$AAa?$AAl?$AAi?$AAd?$AA?5?$AAa?$AAr?$AAg?$AAu?$AAm?$AAe?$AAn?$AAt?$AA?$CC?$AA?$AA@ 00000001400340d0     angularsegmentkinematicsdatagram.obj
 0002:000010f8       ??_C@_09GLJCAGLP@_Ptr?5?$CB?$DN?50?$AA@ 00000001400340f8     angularsegmentkinematicsdatagram.obj
 0002:00001108       ??_C@_1CC@GKJLLHIM@?$AA?$CC?$AA_?$AAP?$AAt?$AAr?$AA?5?$AA?$CB?$AA?$DN?$AA?5?$AA0?$AA?$CC?$AA?5?$AA?$CG?$AA?$CG?$AA?5?$AA0?$AA?$AA@ 0000000140034108     angularsegmentkinematicsdatagram.obj
 0002:00001130       ??_C@_0BN@HMCJOMKN@_Count?5?$DM?$DN?5?$CIsize_t?$CJ?$CI?91?$CJ?5?1?5_Sz?$AA@ 0000000140034130     angularsegmentkinematicsdatagram.obj
 0002:00001150       ??_C@_1EI@MLOBABC@?$AA?$CC?$AA_?$AAC?$AAo?$AAu?$AAn?$AAt?$AA?5?$AA?$DM?$AA?$DN?$AA?5?$AA?$CI?$AAs?$AAi?$AAz?$AAe?$AA_?$AAt?$AA?$CJ?$AA?$CI?$AA?9?$AA1?$AA?$CJ?$AA?5?$AA?1?$AA?5?$AA_?$AAS?$AAz?$AA?$CC?$AA?5?$AA?$CG@ 0000000140034150     angularsegmentkinematicsdatagram.obj
 0002:00001198       ??_C@_1CC@LOFJFFDB@?$AAs?$AAt?$AAd?$AA?3?$AA?3?$AA_?$AAD?$AAe?$AAa?$AAl?$AAl?$AAo?$AAc?$AAa?$AAt?$AAe?$AA?$AA@ 0000000140034198     angularsegmentkinematicsdatagram.obj
 0002:000011c0       ??_C@_0DD@GBGGGKGG@?$CI_Ptr_user?5?$CG?5?$CI_BIG_ALLOCATION_AL@ 00000001400341c0     angularsegmentkinematicsdatagram.obj
 0002:00001200       ??_C@_1HE@CDMBFOKC@?$AA?$CC?$AA?$CI?$AA_?$AAP?$AAt?$AAr?$AA_?$AAu?$AAs?$AAe?$AAr?$AA?5?$AA?$CG?$AA?5?$AA?$CI?$AA_?$AAB?$AAI?$AAG?$AA_?$AAA?$AAL?$AAL?$AAO?$AAC?$AAA?$AAT?$AAI?$AAO?$AAN?$AA_?$AAA@ 0000000140034200     angularsegmentkinematicsdatagram.obj
 0002:00001280       ??_C@_0EI@NOJHEJCJ@reinterpret_cast?$DMuintptr_t?5?$CK?$DO?$CI_P@ 0000000140034280     angularsegmentkinematicsdatagram.obj
 0002:000012d0       ??_C@_1JO@EKLKIEHP@?$AA?$CC?$AAr?$AAe?$AAi?$AAn?$AAt?$AAe?$AAr?$AAp?$AAr?$AAe?$AAt?$AA_?$AAc?$AAa?$AAs?$AAt?$AA?$DM?$AAu?$AAi?$AAn?$AAt?$AAp?$AAt?$AAr?$AA_?$AAt?$AA?5?$AA?$CK?$AA?$DO?$AA?$CI?$AA_@ 00000001400342d0     angularsegmentkinematicsdatagram.obj
 0002:00001370       ??_C@_0BL@OCKMEJON@_Ptr_container?5?$DM?5_Ptr_user?$AA@ 0000000140034370     angularsegmentkinematicsdatagram.obj
 0002:00001390       ??_C@_1EE@PDHAHDDC@?$AA?$CC?$AA_?$AAP?$AAt?$AAr?$AA_?$AAc?$AAo?$AAn?$AAt?$AAa?$AAi?$AAn?$AAe?$AAr?$AA?5?$AA?$DM?$AA?5?$AA_?$AAP?$AAt?$AAr?$AA_?$AAu?$AAs?$AAe?$AAr?$AA?$CC?$AA?5?$AA?$CG?$AA?$CG?$AA?5@ 0000000140034390     angularsegmentkinematicsdatagram.obj
 0002:000013d8       ??_C@_0DB@GLFJLNCE@2?5?$CK?5sizeof?$CIvoid?5?$CK?$CJ?5?$DM?$DN?5_Ptr_user?5@ 00000001400343d8     angularsegmentkinematicsdatagram.obj
 0002:00001410       ??_C@_1HA@NAPGMHAO@?$AA?$CC?$AA2?$AA?5?$AA?$CK?$AA?5?$AAs?$AAi?$AAz?$AAe?$AAo?$AAf?$AA?$CI?$AAv?$AAo?$AAi?$AAd?$AA?5?$AA?$CK?$AA?$CJ?$AA?5?$AA?$DM?$AA?$DN?$AA?5?$AA_?$AAP?$AAt?$AAr?$AA_?$AAu?$AAs?$AAe?$AAr@ 0000000140034410     angularsegmentkinematicsdatagram.obj
 0002:00001480       ??_C@_0CN@BLHJCAL@_Ptr_user?5?9?5_Ptr_container?5?$DM?$DN?5_N@ 0000000140034480     angularsegmentkinematicsdatagram.obj
 0002:000014b0       ??_C@_1GI@DHJGPFNI@?$AA?$CC?$AA_?$AAP?$AAt?$AAr?$AA_?$AAu?$AAs?$AAe?$AAr?$AA?5?$AA?9?$AA?5?$AA_?$AAP?$AAt?$AAr?$AA_?$AAc?$AAo?$AAn?$AAt?$AAa?$AAi?$AAn?$AAe?$AAr?$AA?5?$AA?$DM?$AA?$DN?$AA?5?$AA_@ 00000001400344b0     angularsegmentkinematicsdatagram.obj
 0002:00001520       ??_7runtime_error@std@@6B@ 0000000140034520     angularsegmentkinematicsdatagram.obj
 0002:00001530       ??_C@_0EC@HDAFFLMP@Provided?5element?5count?5does?5not?5@ 0000000140034530     angularsegmentkinematicsdatagram.obj
 0002:00001580       ??_7AngularSegmentKinematicsDatagram@@6B@ 0000000140034580     angularsegmentkinematicsdatagram.obj
 0002:000015a0       ??_C@_1IM@LECEOODI@?$AAC?$AA?3?$AA?2?$AAP?$AAr?$AAo?$AAg?$AAr?$AAa?$AAm?$AA?5?$AAF?$AAi?$AAl?$AAe?$AAs?$AA?5?$AA?$CI?$AAx?$AA8?$AA6?$AA?$CJ?$AA?2?$AAM?$AAi?$AAc?$AAr?$AAo?$AAs?$AAo?$AAf?$AAt@ 00000001400345a0     angularsegmentkinematicsdatagram.obj
 0002:00001630       ??_C@_1EE@EJDKCLKB@?$AAv?$AAe?$AAc?$AAt?$AAo?$AAr?$AA?5?$AAi?$AAt?$AAe?$AAr?$AAa?$AAt?$AAo?$AAr?$AA?5?$AAn?$AAo?$AAt?$AA?5?$AAi?$AAn?$AAc?$AAr?$AAe?$AAm?$AAe?$AAn?$AAt?$AAa?$AAb?$AAl@ 0000000140034630     angularsegmentkinematicsdatagram.obj
 0002:00001678       ??_C@_0CE@OFMIGAMM@Standard?5C?$CL?$CL?5Libraries?5Out?5of?5Ra@ 0000000140034678     angularsegmentkinematicsdatagram.obj
 0002:000016a0       ??_C@_1FG@IBPIFFN@?$AA?$CC?$AAS?$AAt?$AAa?$AAn?$AAd?$AAa?$AAr?$AAd?$AA?5?$AAC?$AA?$CL?$AA?$CL?$AA?5?$AAL?$AAi?$AAb?$AAr?$AAa?$AAr?$AAi?$AAe?$AAs?$AA?5?$AAO?$AAu?$AAt?$AA?5?$AAo?$AAf?$AA?5?$AAR@ 00000001400346a0     angularsegmentkinematicsdatagram.obj
 0002:00001700       ??_C@_1BCG@EPDDACM@?$AAs?$AAt?$AAd?$AA?3?$AA?3?$AA_?$AAV?$AAe?$AAc?$AAt?$AAo?$AAr?$AA_?$AAc?$AAo?$AAn?$AAs?$AAt?$AA_?$AAi?$AAt?$AAe?$AAr?$AAa?$AAt?$AAo?$AAr?$AA?$DM?$AAc?$AAl?$AAa?$AAs@ 0000000140034700     angularsegmentkinematicsdatagram.obj
 0002:00001828       ??_C@_1BO@MEPPHOO@?$AA?$CC?$AAo?$AAu?$AAt?$AA?5?$AAo?$AAf?$AA?5?$AAr?$AAa?$AAn?$AAg?$AAe?$AA?$CC?$AA?$AA@ 0000000140034828     angularsegmentkinematicsdatagram.obj
 0002:00001850       ??_C@_1EG@FOHJJHAC@?$AAv?$AAe?$AAc?$AAt?$AAo?$AAr?$AA?5?$AAi?$AAt?$AAe?$AAr?$AAa?$AAt?$AAo?$AAr?$AA?5?$AAn?$AAo?$AAt?$AA?5?$AAd?$AAe?$AAr?$AAe?$AAf?$AAe?$AAr?$AAe?$AAn?$AAc?$AAa?$AAb@ 0000000140034850     angularsegmentkinematicsdatagram.obj
 0002:000018a0       ??_C@_1BCE@NKENICDE@?$AAs?$AAt?$AAd?$AA?3?$AA?3?$AA_?$AAV?$AAe?$AAc?$AAt?$AAo?$AAr?$AA_?$AAc?$AAo?$AAn?$AAs?$AAt?$AA_?$AAi?$AAt?$AAe?$AAr?$AAa?$AAt?$AAo?$AAr?$AA?$DM?$AAc?$AAl?$AAa?$AAs@ 00000001400348a0     angularsegmentkinematicsdatagram.obj
 0002:000019c8       ??_C@_1DM@LHGCHCBA@?$AAv?$AAe?$AAc?$AAt?$AAo?$AAr?$AA?5?$AAs?$AAu?$AAb?$AAs?$AAc?$AAr?$AAi?$AAp?$AAt?$AA?5?$AAo?$AAu?$AAt?$AA?5?$AAo?$AAf?$AA?5?$AAr?$AAa?$AAn?$AAg?$AAe?$AA?$AA@ 00000001400349c8     angularsegmentkinematicsdatagram.obj
 0002:00001a10       ??_C@_1HK@EJDBECKJ@?$AAs?$AAt?$AAd?$AA?3?$AA?3?$AAv?$AAe?$AAc?$AAt?$AAo?$AAr?$AA?$DM?$AAf?$AAl?$AAo?$AAa?$AAt?$AA?0?$AAc?$AAl?$AAa?$AAs?$AAs?$AA?5?$AAs?$AAt?$AAd?$AA?3?$AA?3?$AAa?$AAl?$AAl@ 0000000140034a10     angularsegmentkinematicsdatagram.obj
 0002:00001a90       ??_C@_1IO@IPMLDGDI@?$AAC?$AA?3?$AA?2?$AAP?$AAr?$AAo?$AAg?$AAr?$AAa?$AAm?$AA?5?$AAF?$AAi?$AAl?$AAe?$AAs?$AA?5?$AA?$CI?$AAx?$AA8?$AA6?$AA?$CJ?$AA?2?$AAM?$AAi?$AAc?$AAr?$AAo?$AAs?$AAo?$AAf?$AAt@ 0000000140034a90     angularsegmentkinematicsdatagram.obj
 0002:00001b20       ??_C@_1DM@HINDPMBP@?$AAv?$AAe?$AAc?$AAt?$AAo?$AAr?$AA?5?$AAi?$AAt?$AAe?$AAr?$AAa?$AAt?$AAo?$AAr?$AAs?$AA?5?$AAi?$AAn?$AAc?$AAo?$AAm?$AAp?$AAa?$AAt?$AAi?$AAb?$AAl?$AAe?$AA?$AA@ 0000000140034b20     angularsegmentkinematicsdatagram.obj
 0002:00001b60       ??_C@_0CI@FNPHFCCM@Standard?5C?$CL?$CL?5Libraries?5Invalid?5A@ 0000000140034b60     angularsegmentkinematicsdatagram.obj
 0002:00001b90       ??_C@_1FO@GJIHNDLM@?$AA?$CC?$AAS?$AAt?$AAa?$AAn?$AAd?$AAa?$AAr?$AAd?$AA?5?$AAC?$AA?$CL?$AA?$CL?$AA?5?$AAL?$AAi?$AAb?$AAr?$AAa?$AAr?$AAi?$AAe?$AAs?$AA?5?$AAI?$AAn?$AAv?$AAa?$AAl?$AAi?$AAd?$AA?5@ 0000000140034b90     angularsegmentkinematicsdatagram.obj
 0002:00001bf0       ??_C@_1BBO@FNKNGKLF@?$AAs?$AAt?$AAd?$AA?3?$AA?3?$AA_?$AAV?$AAe?$AAc?$AAt?$AAo?$AAr?$AA_?$AAc?$AAo?$AAn?$AAs?$AAt?$AA_?$AAi?$AAt?$AAe?$AAr?$AAa?$AAt?$AAo?$AAr?$AA?$DM?$AAc?$AAl?$AAa?$AAs@ 0000000140034bf0     angularsegmentkinematicsdatagram.obj
 0002:00001d10       ??_C@_0BD@OLBABOEK@vector?$DMT?$DO?5too?5long?$AA@ 0000000140034d10     angularsegmentkinematicsdatagram.obj
 0002:00001d28       ??_C@_0BA@JFNIOLAK@string?5too?5long?$AA@ 0000000140034d28     angularsegmentkinematicsdatagram.obj
 0002:00001d38       ??_C@_0BI@CFPLBAOH@invalid?5string?5position?$AA@ 0000000140034d38     angularsegmentkinematicsdatagram.obj
 0002:00001d50       ??_C@_1CK@EOPGIILJ@?$AAi?$AAn?$AAv?$AAa?$AAl?$AAi?$AAd?$AA?5?$AAn?$AAu?$AAl?$AAl?$AA?5?$AAp?$AAo?$AAi?$AAn?$AAt?$AAe?$AAr?$AA?$AA@ 0000000140034d50     angularsegmentkinematicsdatagram.obj
 0002:00001e30       ??_7CenterOfMassDatagram@@6B@ 0000000140034e30     centerofmassdatagram.obj
 0002:00001e9c       ?EULERPOSITIONSCALE@Datagram@@1MB 0000000140034e9c     datagram.obj
 0002:00002888       ??_7bad_cast@std@@6B@      0000000140035888     datagram.obj
 0002:00002898       ??_C@_08EPJLHIJG@bad?5cast?$AA@ 0000000140035898     datagram.obj
 0002:000028a8       ?npos@?$basic_string@DU?$char_traits@D@std@@V?$allocator@D@2@@std@@2_KB 00000001400358a8     datagram.obj
 0002:000028b0       ??_C@_0BG@HGEDEDEC@invalid?5stoi?5argument?$AA@ 00000001400358b0     datagram.obj
 0002:000028c8       ??_C@_0BL@MFFNMGGC@stoi?5argument?5out?5of?5range?$AA@ 00000001400358c8     datagram.obj
 0002:000028f0       ??_7Datagram@@6B@          00000001400358f0     datagram.obj
 0002:00002908       ??_7?$basic_stringbuf@DU?$char_traits@D@std@@V?$allocator@D@2@@std@@6B@ 0000000140035908     datagram.obj
 0002:00002988       ??_7?$basic_stringstream@DU?$char_traits@D@std@@V?$allocator@D@2@@std@@6B@ 0000000140035988     datagram.obj
 0002:00002990       ??_8?$basic_stringstream@DU?$char_traits@D@std@@V?$allocator@D@2@@std@@7B?$basic_istream@DU?$char_traits@D@std@@@1@@ 0000000140035990     datagram.obj
 0002:00002998       ??_8?$basic_stringstream@DU?$char_traits@D@std@@V?$allocator@D@2@@std@@7B?$basic_ostream@DU?$char_traits@D@std@@@1@@ 0000000140035998     datagram.obj
 0002:000029a0       ??_C@_1IK@BEABFJGP@?$AAC?$AA?3?$AA?2?$AAP?$AAr?$AAo?$AAg?$AAr?$AAa?$AAm?$AA?5?$AAF?$AAi?$AAl?$AAe?$AAs?$AA?5?$AA?$CI?$AAx?$AA8?$AA6?$AA?$CJ?$AA?2?$AAM?$AAi?$AAc?$AAr?$AAo?$AAs?$AAo?$AAf?$AAt@ 00000001400359a0     datagram.obj
 0002:00002a30       ??_C@_1DO@CFEEPGGJ@?$AAm?$AAa?$AAp?$AA?1?$AAs?$AAe?$AAt?$AA?5?$AAi?$AAt?$AAe?$AAr?$AAa?$AAt?$AAo?$AAr?$AAs?$AA?5?$AAi?$AAn?$AAc?$AAo?$AAm?$AAp?$AAa?$AAt?$AAi?$AAb?$AAl?$AAe?$AA?$AA@ 0000000140035a30     datagram.obj
 0002:00002a70       ??_C@_1BKO@LHPHCJMM@?$AAs?$AAt?$AAd?$AA?3?$AA?3?$AA_?$AAT?$AAr?$AAe?$AAe?$AA_?$AAc?$AAo?$AAn?$AAs?$AAt?$AA_?$AAi?$AAt?$AAe?$AAr?$AAa?$AAt?$AAo?$AAr?$AA?$DM?$AAc?$AAl?$AAa?$AAs?$AAs?$AA?5@ 0000000140035a70     datagram.obj
 0002:00002c20       ??_C@_1EI@FHEHNNNM@?$AAm?$AAa?$AAp?$AA?1?$AAs?$AAe?$AAt?$AA?5?$AAi?$AAt?$AAe?$AAr?$AAa?$AAt?$AAo?$AAr?$AA?5?$AAn?$AAo?$AAt?$AA?5?$AAd?$AAe?$AAr?$AAe?$AAf?$AAe?$AAr?$AAe?$AAn?$AAc?$AAa@ 0000000140035c20     datagram.obj
 0002:00002c70       ??_C@_1BKM@NHEBIPM@?$AAs?$AAt?$AAd?$AA?3?$AA?3?$AA_?$AAT?$AAr?$AAe?$AAe?$AA_?$AAc?$AAo?$AAn?$AAs?$AAt?$AA_?$AAi?$AAt?$AAe?$AAr?$AAa?$AAt?$AAo?$AAr?$AA?$DM?$AAc?$AAl?$AAa?$AAs?$AAs?$AA?5@ 0000000140035c70     datagram.obj
 0002:00002e20       ??_C@_1EK@PPDBPCAN@?$AAm?$AAa?$AAp?$AA?1?$AAs?$AAe?$AAt?$AA?5?$AAe?$AAr?$AAa?$AAs?$AAe?$AA?5?$AAi?$AAt?$AAe?$AAr?$AAa?$AAt?$AAo?$AAr?$AA?5?$AAo?$AAu?$AAt?$AAs?$AAi?$AAd?$AAe?$AA?5?$AAr@ 0000000140035e20     datagram.obj
 0002:00002e70       ??_C@_1EG@EHJFMBHJ@?$AAm?$AAa?$AAp?$AA?1?$AAs?$AAe?$AAt?$AA?5?$AAi?$AAt?$AAe?$AAr?$AAa?$AAt?$AAo?$AAr?$AA?5?$AAn?$AAo?$AAt?$AA?5?$AAi?$AAn?$AAc?$AAr?$AAe?$AAm?$AAe?$AAn?$AAt?$AAa?$AAb@ 0000000140035e70     datagram.obj
 0002:00002ec0       ??_C@_1BKO@BHAKMAAJ@?$AAs?$AAt?$AAd?$AA?3?$AA?3?$AA_?$AAT?$AAr?$AAe?$AAe?$AA_?$AAc?$AAo?$AAn?$AAs?$AAt?$AA_?$AAi?$AAt?$AAe?$AAr?$AAa?$AAt?$AAo?$AAr?$AA?$DM?$AAc?$AAl?$AAa?$AAs?$AAs?$AA?5@ 0000000140035ec0     datagram.obj
 0002:00003070       ??_C@_1CG@LEJCKCBB@?$AAi?$AAn?$AAv?$AAa?$AAl?$AAi?$AAd?$AA?5?$AAc?$AAo?$AAm?$AAp?$AAa?$AAr?$AAa?$AAt?$AAo?$AAr?$AA?$AA@ 0000000140036070     datagram.obj
 0002:00003098       ??_C@_1DM@KDEKGMPF@?$AAs?$AAt?$AAr?$AAi?$AAn?$AAg?$AA?5?$AAi?$AAt?$AAe?$AAr?$AAa?$AAt?$AAo?$AAr?$AAs?$AA?5?$AAi?$AAn?$AAc?$AAo?$AAm?$AAp?$AAa?$AAt?$AAi?$AAb?$AAl?$AAe?$AA?$AA@ 0000000140036098     datagram.obj
 0002:000030e0       ??_C@_1MA@BDELDFHB@?$AAs?$AAt?$AAd?$AA?3?$AA?3?$AA_?$AAS?$AAt?$AAr?$AAi?$AAn?$AAg?$AA_?$AAc?$AAo?$AAn?$AAs?$AAt?$AA_?$AAi?$AAt?$AAe?$AAr?$AAa?$AAt?$AAo?$AAr?$AA?$DM?$AAc?$AAl?$AAa?$AAs@ 00000001400360e0     datagram.obj
 0002:000031a0       ??_C@_1EG@CNCHLAOB@?$AAs?$AAt?$AAr?$AAi?$AAn?$AAg?$AA?5?$AAi?$AAt?$AAe?$AAr?$AAa?$AAt?$AAo?$AAr?$AA?5?$AAn?$AAo?$AAt?$AA?5?$AAd?$AAe?$AAr?$AAe?$AAf?$AAe?$AAr?$AAe?$AAn?$AAc?$AAa?$AAb@ 00000001400361a0     datagram.obj
 0002:000031f0       ??_C@_1MG@GDGHDIKC@?$AAs?$AAt?$AAd?$AA?3?$AA?3?$AA_?$AAS?$AAt?$AAr?$AAi?$AAn?$AAg?$AA_?$AAc?$AAo?$AAn?$AAs?$AAt?$AA_?$AAi?$AAt?$AAe?$AAr?$AAa?$AAt?$AAo?$AAr?$AA?$DM?$AAc?$AAl?$AAa?$AAs@ 00000001400361f0     datagram.obj
 0002:000032c0       ??_C@_1IG@PBFFIPBO@?$AAC?$AA?3?$AA?2?$AAP?$AAr?$AAo?$AAg?$AAr?$AAa?$AAm?$AA?5?$AAF?$AAi?$AAl?$AAe?$AAs?$AA?5?$AA?$CI?$AAx?$AA8?$AA6?$AA?$CJ?$AA?2?$AAM?$AAi?$AAc?$AAr?$AAo?$AAs?$AAo?$AAf?$AAt@ 00000001400362c0     datagram.obj
 0002:00003350       ??_C@_1EM@MHOKKPFH@?$AAm?$AAa?$AAp?$AA?1?$AAs?$AAe?$AAt?$AA?5?$AAi?$AAn?$AAs?$AAe?$AAr?$AAt?$AA?5?$AAi?$AAt?$AAe?$AAr?$AAa?$AAt?$AAo?$AAr?$AA?5?$AAo?$AAu?$AAt?$AAs?$AAi?$AAd?$AAe?$AA?5@ 0000000140036350     datagram.obj
 0002:000033a0       ??_C@_1EG@OKCGOALM@?$AAm?$AAa?$AAp?$AA?1?$AAs?$AAe?$AAt?$AA?5?$AAi?$AAt?$AAe?$AAr?$AAa?$AAt?$AAo?$AAr?$AA?5?$AAn?$AAo?$AAt?$AA?5?$AAd?$AAe?$AAc?$AAr?$AAe?$AAm?$AAe?$AAn?$AAt?$AAa?$AAb@ 00000001400363a0     datagram.obj
 0002:000033f0       ??_C@_1BKO@OEDIHMMI@?$AAs?$AAt?$AAd?$AA?3?$AA?3?$AA_?$AAT?$AAr?$AAe?$AAe?$AA_?$AAc?$AAo?$AAn?$AAs?$AAt?$AA_?$AAi?$AAt?$AAe?$AAr?$AAa?$AAt?$AAo?$AAr?$AA?$DM?$AAc?$AAl?$AAa?$AAs?$AAs?$AA?5@ 00000001400363f0     datagram.obj
 0002:000035a0       ??_C@_0BE@JONHPENG@map?1set?$DMT?$DO?5too?5long?$AA@ 00000001400365a0     datagram.obj
 0002:00003820       ??_7EulerDatagram@@6B@     0000000140036820     eulerdatagram.obj
 0002:00003840       ??_C@_1BAA@OOHPOIKE@?$AAs?$AAt?$AAd?$AA?3?$AA?3?$AA_?$AAV?$AAe?$AAc?$AAt?$AAo?$AAr?$AA_?$AAc?$AAo?$AAn?$AAs?$AAt?$AA_?$AAi?$AAt?$AAe?$AAr?$AAa?$AAt?$AAo?$AAr?$AA?$DM?$AAc?$AAl?$AAa?$AAs@ 0000000140036840     eulerdatagram.obj
 0002:00003940       ??_C@_1PO@PGMBBBEI@?$AAs?$AAt?$AAd?$AA?3?$AA?3?$AA_?$AAV?$AAe?$AAc?$AAt?$AAo?$AAr?$AA_?$AAc?$AAo?$AAn?$AAs?$AAt?$AA_?$AAi?$AAt?$AAe?$AAr?$AAa?$AAt?$AAo?$AAr?$AA?$DM?$AAc?$AAl?$AAa?$AAs@ 0000000140036940     eulerdatagram.obj
 0002:00003a40       ??_C@_1PI@HEJGOPNH@?$AAs?$AAt?$AAd?$AA?3?$AA?3?$AA_?$AAV?$AAe?$AAc?$AAt?$AAo?$AAr?$AA_?$AAc?$AAo?$AAn?$AAs?$AAt?$AA_?$AAi?$AAt?$AAe?$AAr?$AAa?$AAt?$AAo?$AAr?$AA?$DM?$AAc?$AAl?$AAa?$AAs@ 0000000140036a40     eulerdatagram.obj
 0002:00003db0       ??_7JointAnglesDatagram@@6B@ 0000000140036db0     jointanglesdatagram.obj
 0002:00003dd0       ??_C@_1BAC@IEEOFFGF@?$AAs?$AAt?$AAd?$AA?3?$AA?3?$AA_?$AAV?$AAe?$AAc?$AAt?$AAo?$AAr?$AA_?$AAc?$AAo?$AAn?$AAs?$AAt?$AA_?$AAi?$AAt?$AAe?$AAr?$AAa?$AAt?$AAo?$AAr?$AA?$DM?$AAc?$AAl?$AAa?$AAs@ 0000000140036dd0     jointanglesdatagram.obj
 0002:00003ee0       ??_C@_1BAA@NFOEMNJM@?$AAs?$AAt?$AAd?$AA?3?$AA?3?$AA_?$AAV?$AAe?$AAc?$AAt?$AAo?$AAr?$AA_?$AAc?$AAo?$AAn?$AAs?$AAt?$AA_?$AAi?$AAt?$AAe?$AAr?$AAa?$AAt?$AAo?$AAr?$AA?$DM?$AAc?$AAl?$AAa?$AAs@ 0000000140036ee0     jointanglesdatagram.obj
 0002:00003fe0       ??_C@_1PK@HEPPEABE@?$AAs?$AAt?$AAd?$AA?3?$AA?3?$AA_?$AAV?$AAe?$AAc?$AAt?$AAo?$AAr?$AA_?$AAc?$AAo?$AAn?$AAs?$AAt?$AA_?$AAi?$AAt?$AAe?$AAr?$AAa?$AAt?$AAo?$AAr?$AA?$DM?$AAc?$AAl?$AAa?$AAs@ 0000000140036fe0     jointanglesdatagram.obj
 0002:00004378       ??_7LinearSegmentKinematicsDatagram@@6B@ 0000000140037378     linearsegmentkinematicsdatagram.obj
 0002:00004390       ??_C@_1BCE@PMKOCHAD@?$AAs?$AAt?$AAd?$AA?3?$AA?3?$AA_?$AAV?$AAe?$AAc?$AAt?$AAo?$AAr?$AA_?$AAc?$AAo?$AAn?$AAs?$AAt?$AA_?$AAi?$AAt?$AAe?$AAr?$AAa?$AAt?$AAo?$AAr?$AA?$DM?$AAc?$AAl?$AAa?$AAs@ 0000000140037390     linearsegmentkinematicsdatagram.obj
 0002:000044c0       ??_C@_1BCC@NGANICJC@?$AAs?$AAt?$AAd?$AA?3?$AA?3?$AA_?$AAV?$AAe?$AAc?$AAt?$AAo?$AAr?$AA_?$AAc?$AAo?$AAn?$AAs?$AAt?$AA_?$AAi?$AAt?$AAe?$AAr?$AAa?$AAt?$AAo?$AAr?$AA?$DM?$AAc?$AAl?$AAa?$AAs@ 00000001400374c0     linearsegmentkinematicsdatagram.obj
 0002:000045f0       ??_C@_1BBM@BCOKOFGA@?$AAs?$AAt?$AAd?$AA?3?$AA?3?$AA_?$AAV?$AAe?$AAc?$AAt?$AAo?$AAr?$AA_?$AAc?$AAo?$AAn?$AAs?$AAt?$AA_?$AAi?$AAt?$AAe?$AAr?$AAa?$AAt?$AAo?$AAr?$AA?$DM?$AAc?$AAl?$AAa?$AAs@ 00000001400375f0     linearsegmentkinematicsdatagram.obj
 0002:000050e0       ??_7MetaDatagram@@6B@      00000001400380e0     metadatagram.obj
 0002:00005100       ??_C@_1BME@NCIPHHDN@?$AAs?$AAt?$AAd?$AA?3?$AA?3?$AAv?$AAe?$AAc?$AAt?$AAo?$AAr?$AA?$DM?$AAc?$AAl?$AAa?$AAs?$AAs?$AA?5?$AAs?$AAt?$AAd?$AA?3?$AA?3?$AAb?$AAa?$AAs?$AAi?$AAc?$AA_?$AAs?$AAt?$AAr@ 0000000140038100     metadatagram.obj
 0002:000052d0       ??_C@_1CFG@FGJHCIBH@?$AAs?$AAt?$AAd?$AA?3?$AA?3?$AA_?$AAT?$AAr?$AAe?$AAe?$AA_?$AAc?$AAo?$AAn?$AAs?$AAt?$AA_?$AAi?$AAt?$AAe?$AAr?$AAa?$AAt?$AAo?$AAr?$AA?$DM?$AAc?$AAl?$AAa?$AAs?$AAs?$AA?5@ 00000001400382d0     metadatagram.obj
 0002:00005530       ??_C@_1CFE@PPLBLEGL@?$AAs?$AAt?$AAd?$AA?3?$AA?3?$AA_?$AAT?$AAr?$AAe?$AAe?$AA_?$AAc?$AAo?$AAn?$AAs?$AAt?$AA_?$AAi?$AAt?$AAe?$AAr?$AAa?$AAt?$AAo?$AAr?$AA?$DM?$AAc?$AAl?$AAa?$AAs?$AAs?$AA?5@ 0000000140038530     metadatagram.obj
 0002:00005788       ??_C@_0BM@NMJKDPPO@invalid?5vector?$DMT?$DO?5subscript?$AA@ 0000000140038788     metadatagram.obj
 0002:000057b0       ??_C@_1CFG@PGGKMBNC@?$AAs?$AAt?$AAd?$AA?3?$AA?3?$AA_?$AAT?$AAr?$AAe?$AAe?$AA_?$AAc?$AAo?$AAn?$AAs?$AAt?$AA_?$AAi?$AAt?$AAe?$AAr?$AAa?$AAt?$AAo?$AAr?$AA?$DM?$AAc?$AAl?$AAa?$AAs?$AAs?$AA?5@ 00000001400387b0     metadatagram.obj
 0002:00005a08       ??_C@_1CO@DGLIKNHI@?$AAi?$AAn?$AAv?$AAa?$AAl?$AAi?$AAd?$AA?5?$AAi?$AAt?$AAe?$AAr?$AAa?$AAt?$AAo?$AAr?$AA?5?$AAr?$AAa?$AAn?$AAg?$AAe?$AA?$AA@ 0000000140038a08     metadatagram.obj
 0002:00005a40       ??_C@_1CFG@FFIHNBD@?$AAs?$AAt?$AAd?$AA?3?$AA?3?$AA_?$AAT?$AAr?$AAe?$AAe?$AA_?$AAc?$AAo?$AAn?$AAs?$AAt?$AA_?$AAi?$AAt?$AAe?$AAr?$AAa?$AAt?$AAo?$AAr?$AA?$DM?$AAc?$AAl?$AAa?$AAs?$AAs?$AA?5@ 0000000140038a40     metadatagram.obj
 0002:00005f38       ??_7PositionDatagram@@6B@  0000000140038f38     positiondatagram.obj
 0002:00005f50       ??_C@_1BBC@MDJJMLBG@?$AAs?$AAt?$AAd?$AA?3?$AA?3?$AA_?$AAV?$AAe?$AAc?$AAt?$AAo?$AAr?$AA_?$AAc?$AAo?$AAn?$AAs?$AAt?$AA_?$AAi?$AAt?$AAe?$AAr?$AAa?$AAt?$AAo?$AAr?$AA?$DM?$AAc?$AAl?$AAa?$AAs@ 0000000140038f50     positiondatagram.obj
 0002:00006070       ??_C@_1BBA@DEDBOFME@?$AAs?$AAt?$AAd?$AA?3?$AA?3?$AA_?$AAV?$AAe?$AAc?$AAt?$AAo?$AAr?$AA_?$AAc?$AAo?$AAn?$AAs?$AAt?$AA_?$AAi?$AAt?$AAe?$AAr?$AAa?$AAt?$AAo?$AAr?$AA?$DM?$AAc?$AAl?$AAa?$AAs@ 0000000140039070     positiondatagram.obj
 0002:00006180       ??_C@_1BAK@HFAKGPME@?$AAs?$AAt?$AAd?$AA?3?$AA?3?$AA_?$AAV?$AAe?$AAc?$AAt?$AAo?$AAr?$AA_?$AAc?$AAo?$AAn?$AAs?$AAt?$AA_?$AAi?$AAt?$AAe?$AAr?$AAa?$AAt?$AAo?$AAr?$AA?$DM?$AAc?$AAl?$AAa?$AAs@ 0000000140039180     positiondatagram.obj
 0002:00006508       ??_7QuaternionDatagram@@6B@ 0000000140039508     quaterniondatagram.obj
 0002:00006520       ??_C@_1BAK@FIENJLDL@?$AAs?$AAt?$AAd?$AA?3?$AA?3?$AA_?$AAV?$AAe?$AAc?$AAt?$AAo?$AAr?$AA_?$AAc?$AAo?$AAn?$AAs?$AAt?$AA_?$AAi?$AAt?$AAe?$AAr?$AAa?$AAt?$AAo?$AAr?$AA?$DM?$AAc?$AAl?$AAa?$AAs@ 0000000140039520     quaterniondatagram.obj
 0002:00006630       ??_C@_1BAI@HGDEAHLO@?$AAs?$AAt?$AAd?$AA?3?$AA?3?$AA_?$AAV?$AAe?$AAc?$AAt?$AAo?$AAr?$AA_?$AAc?$AAo?$AAn?$AAs?$AAt?$AA_?$AAi?$AAt?$AAe?$AAr?$AAa?$AAt?$AAo?$AAr?$AA?$DM?$AAc?$AAl?$AAa?$AAs@ 0000000140039630     quaterniondatagram.obj
 0002:00006740       ??_C@_1BAC@KCPJGIFL@?$AAs?$AAt?$AAd?$AA?3?$AA?3?$AA_?$AAV?$AAe?$AAc?$AAt?$AAo?$AAr?$AA_?$AAc?$AAo?$AAn?$AAs?$AAt?$AA_?$AAi?$AAt?$AAe?$AAr?$AAa?$AAt?$AAo?$AAr?$AA?$DM?$AAc?$AAl?$AAa?$AAs@ 0000000140039740     quaterniondatagram.obj
 0002:00006b70       ??_7ScaleDatagram@@6B@     0000000140039b70     scaledatagram.obj
 0002:00006bf0       ??_7TimeCodeDatagram@@6B@  0000000140039bf0     timecodedatagram.obj
 0002:00006e90       ??_7TrackerKinematicsDatagram@@6B@ 0000000140039e90     trackerkinematicsdatagram.obj
 0002:00006eb0       ??_C@_1BBI@LJHJNFE@?$AAs?$AAt?$AAd?$AA?3?$AA?3?$AA_?$AAV?$AAe?$AAc?$AAt?$AAo?$AAr?$AA_?$AAc?$AAo?$AAn?$AAs?$AAt?$AA_?$AAi?$AAt?$AAe?$AAr?$AAa?$AAt?$AAo?$AAr?$AA?$DM?$AAc?$AAl?$AAa?$AAs@ 0000000140039eb0     trackerkinematicsdatagram.obj
 0002:00006fd0       ??_C@_1BBG@OFKJALCN@?$AAs?$AAt?$AAd?$AA?3?$AA?3?$AA_?$AAV?$AAe?$AAc?$AAt?$AAo?$AAr?$AA_?$AAc?$AAo?$AAn?$AAs?$AAt?$AA_?$AAi?$AAt?$AAe?$AAr?$AAa?$AAt?$AAo?$AAr?$AA?$DM?$AAc?$AAl?$AAa?$AAs@ 0000000140039fd0     trackerkinematicsdatagram.obj
 0002:000070f0       ??_C@_1BBA@MJONPIIK@?$AAs?$AAt?$AAd?$AA?3?$AA?3?$AA_?$AAV?$AAe?$AAc?$AAt?$AAo?$AAr?$AA_?$AAc?$AAo?$AAn?$AAs?$AAt?$AA_?$AAi?$AAt?$AAe?$AAr?$AAa?$AAt?$AAo?$AAr?$AA?$DM?$AAc?$AAl?$AAa?$AAs@ 000000014003a0f0     trackerkinematicsdatagram.obj
 0002:00007370       ??_7bad_alloc@std@@6B@     000000014003a370     udpserver.obj
 0002:00007380       ??_C@_0P@GHFPNOJB@bad?5allocation?$AA@ 000000014003a380     udpserver.obj
 0002:000073e0       ??_C@_0CM@OKINAFCK@f?3?2dd?2vctools?2crt?2crtw32?2stdcpp?2@ 000000014003a3e0     msvcprtd:locale0_implib.obj
 0002:00007418       ??_7type_info@@6B@         000000014003a418     MSVCRTD:std_type_info_static.obj
 0002:00007428       ??_7bad_array_new_length@std@@6B@ 000000014003a428     MSVCRTD:throw_bad_alloc.obj
 0002:00007438       ??_C@_0BF@KINCDENJ@bad?5array?5new?5length?$AA@ 000000014003a438     MSVCRTD:throw_bad_alloc.obj
 0002:000074c0       _load_config_used          000000014003a4c0     MSVCRTD:loadcfg.obj
 0002:00007560       ??_R4exception@std@@6B@    000000014003a560     angularsegmentkinematicsdatagram.obj
 0002:00007588       ??_R3exception@std@@8      000000014003a588     angularsegmentkinematicsdatagram.obj
 0002:000075a0       ??_R2exception@std@@8      000000014003a5a0     angularsegmentkinematicsdatagram.obj
 0002:000075b0       ??_R1A@?0A@EA@exception@std@@8 000000014003a5b0     angularsegmentkinematicsdatagram.obj
 0002:000075d8       ??_R4runtime_error@std@@6B@ 000000014003a5d8     angularsegmentkinematicsdatagram.obj
 0002:00007600       ??_R3runtime_error@std@@8  000000014003a600     angularsegmentkinematicsdatagram.obj
 0002:00007618       ??_R2runtime_error@std@@8  000000014003a618     angularsegmentkinematicsdatagram.obj
 0002:00007630       ??_R1A@?0A@EA@runtime_error@std@@8 000000014003a630     angularsegmentkinematicsdatagram.obj
 0002:00007658       ??_R4AngularSegmentKinematicsDatagram@@6B@ 000000014003a658     angularsegmentkinematicsdatagram.obj
 0002:00007680       ??_R3AngularSegmentKinematicsDatagram@@8 000000014003a680     angularsegmentkinematicsdatagram.obj
 0002:00007698       ??_R2AngularSegmentKinematicsDatagram@@8 000000014003a698     angularsegmentkinematicsdatagram.obj
 0002:000076b0       ??_R1A@?0A@EA@AngularSegmentKinematicsDatagram@@8 000000014003a6b0     angularsegmentkinematicsdatagram.obj
 0002:000076d8       ??_R1A@?0A@EA@Datagram@@8  000000014003a6d8     angularsegmentkinematicsdatagram.obj
 0002:00007700       ??_R3Datagram@@8           000000014003a700     angularsegmentkinematicsdatagram.obj
 0002:00007718       ??_R2Datagram@@8           000000014003a718     angularsegmentkinematicsdatagram.obj
