 streaming_protocol

 Timestamp is 5b4ce73c (Mon Jul 16 13:43:08 2018)

 Preferred load address is 00400000

 Start         Length     Name                   Class
 0001:00000000 00000530H .text$di                CODE
 0001:00000530 0001ece0H .text$mn                CODE
 0001:0001f210 00001f90H .text$x                 CODE
 0001:000211a0 0000000fH .text$yd                CODE
 0002:00000000 000002e0H .idata$5                DATA
 0002:000002e0 00000004H .00cfg                  DATA
 0002:000002e4 00000004H .CRT$XCA                DATA
 0002:000002e8 00000004H .CRT$XCAA               DATA
 0002:000002ec 00000004H .CRT$XCL                DATA
 0002:000002f0 00000144H .CRT$XCU                DATA
 0002:00000434 00000004H .CRT$XCZ                DATA
 0002:00000438 00000004H .CRT$XIA                DATA
 0002:0000043c 00000004H .CRT$XIAA               DATA
 0002:00000440 00000004H .CRT$XIAC               DATA
 0002:00000444 00000004H .CRT$XIZ                DATA
 0002:00000448 00000004H .CRT$XPA                DATA
 0002:0000044c 00000004H .CRT$XPZ                DATA
 0002:00000450 00000004H .CRT$XTA                DATA
 0002:00000454 0000000cH .CRT$XTZ                DATA
 0002:00000458 00000000H .gfids$y                DATA
 0002:00000460 00003888H .rdata                  DATA
 0002:00003ce8 000007f8H .rdata$r                DATA
 0002:000044e0 000002e0H .rdata$sxdata           DATA
 0002:000047c0 00000388H .rdata$zzzdbg           DATA
 0002:00004b48 00000004H .rtc$IAA                DATA
 0002:00004b4c 00000004H .rtc$IZZ                DATA
 0002:00004b50 00000004H .rtc$TAA                DATA
 0002:00004b54 00000004H .rtc$TZZ                DATA
 0002:00004b58 00002608H .xdata$x                DATA
 0002:00007160 00000000H .edata                  DATA
 0002:00007160 00000064H .idata$2                DATA
 0002:000071c4 00000014H .idata$3                DATA
 0002:000071d8 000002e0H .idata$4                DATA
 0002:000074b8 000017d0H .idata$6                DATA
 0003:00000000 00000020H .data                   DATA
 0003:00000020 00000440H .data$r                 DATA
 0003:00000460 000004c4H .bss                    DATA
 0004:00000000 00000060H .rsrc$01                DATA
 0004:00000060 00000180H .rsrc$02                DATA

  Address         Publics by Value              Rva+Base       Lib:Object

 0000:00000000       ___hybrid_auxiliary_iat    00000000     <absolute>
 0000:00000000       ___hybrid_code_map         00000000     <absolute>
 0000:00000000       ___guard_fids_count        00000000     <absolute>
 0000:00000000       ___guard_longjmp_count     00000000     <absolute>
 0000:00000000       ___hybrid_code_map_count   00000000     <absolute>
 0000:00000000       ___enclave_config          00000000     <absolute>
 0000:00000000       ___guard_iat_table         00000000     <absolute>
 0000:00000000       ___guard_fids_table        00000000     <absolute>
 0000:00000000       ___dynamic_value_reloc_table 00000000     <absolute>
 0000:00000000       ___guard_iat_count         00000000     <absolute>
 0000:00000000       ___guard_longjmp_table     00000000     <absolute>
 0000:000000b8       ___safe_se_handler_count   000000b8     <absolute>
 0000:00000100       ___guard_flags             00000100     <absolute>
 0000:00000000       ___ImageBase               00400000     <linker-defined>
 0001:00000530       ??0AngularSegmentKinematicsDatagram@@QAE@XZ 00401530 f   angularsegmentkinematicsdatagram.obj
 0001:000005a0       ??1AngularSegmentKinematicsDatagram@@UAE@XZ 004015a0 f   angularsegmentkinematicsdatagram.obj
 0001:000005d0       ?printData@AngularSegmentKinematicsDatagram@@UBEXXZ 004015d0 f   angularsegmentkinematicsdatagram.obj
 0001:00000a00       ?deserializeData@AngularSegmentKinematicsDatagram@@MAEXAAVStreamer@@@Z 00401a00 f   angularsegmentkinematicsdatagram.obj
 0001:00000ba0       ??$?0$$V@?$_Compressed_pair@V?$allocator@UKinematics@AngularSegmentKinematicsDatagram@@@std@@V?$_Vector_val@U?$_Simple_types@UKinematics@AngularSegmentKinematicsDatagram@@@std@@@2@$00@std@@QAE@U_Zero_then_variadic_args_t@1@@Z 00401ba0 f i angularsegmentkinematicsdatagram.obj
 0001:00000bc0       ??$?0UKinematics@AngularSegmentKinematicsDatagram@@@?$allocator@U_Container_proxy@std@@@std@@QAE@ABV?$allocator@UKinematics@AngularSegmentKinematicsDatagram@@@1@@Z 00401bc0 f i angularsegmentkinematicsdatagram.obj
 0001:00000bd0       ??$?6U?$char_traits@D@std@@@std@@YAAAV?$basic_ostream@DU?$char_traits@D@std@@@0@AAV10@PBD@Z 00401bd0 f i angularsegmentkinematicsdatagram.obj
 0001:00000f00       ??$_Allocate@$07U_Default_allocate_traits@std@@$0A@@std@@YAPAXI@Z 00401f00 f i angularsegmentkinematicsdatagram.obj
 0001:00000f40       ??$_Allocate_manually_vector_aligned@U_Default_allocate_traits@std@@@std@@YAPAXI@Z 00401f40 f i angularsegmentkinematicsdatagram.obj
 0001:00001000       ??$_Copy_memmove@PAUKinematics@AngularSegmentKinematicsDatagram@@PAU12@@std@@YAPAUKinematics@AngularSegmentKinematicsDatagram@@PAU12@00@Z 00402000 f i angularsegmentkinematicsdatagram.obj
 0001:00001040       ??$_Deallocate@$07$0A@@std@@YAXPAXI@Z 00402040 f i angularsegmentkinematicsdatagram.obj
 0001:00001070       ??$_Deallocate_plain@V?$allocator@U_Container_proxy@std@@@std@@$0A@@std@@YAXAAV?$allocator@U_Container_proxy@std@@@0@QAU_Container_proxy@0@@Z 00402070 f i angularsegmentkinematicsdatagram.obj
 0001:00001090       ??$_Destroy_range1@V?$allocator@UKinematics@AngularSegmentKinematicsDatagram@@@std@@@std@@YAXPAUKinematics@AngularSegmentKinematicsDatagram@@0AAV?$allocator@UKinematics@AngularSegmentKinematicsDatagram@@@0@U?$integral_constant@_N$00@0@@Z 00402090 f i angularsegmentkinematicsdatagram.obj
 0001:000010a0       ??$_Destroy_range@V?$allocator@UKinematics@AngularSegmentKinematicsDatagram@@@std@@@std@@YAXPAUKinematics@AngularSegmentKinematicsDatagram@@0AAV?$allocator@UKinematics@AngularSegmentKinematicsDatagram@@@0@@Z 004020a0 f i angularsegmentkinematicsdatagram.obj
 0001:000010d0       ??$_Emplace_back_with_unused_capacity@ABUKinematics@AngularSegmentKinematicsDatagram@@@?$vector@UKinematics@AngularSegmentKinematicsDatagram@@V?$allocator@UKinematics@AngularSegmentKinematicsDatagram@@@std@@@std@@AAEXABUKinematics@AngularSegmentKinematicsDatagram@@@Z 004020d0 f i angularsegmentkinematicsdatagram.obj
 0001:00001160       ??$_Emplace_reallocate@ABUKinematics@AngularSegmentKinematicsDatagram@@@?$vector@UKinematics@AngularSegmentKinematicsDatagram@@V?$allocator@UKinematics@AngularSegmentKinematicsDatagram@@@std@@@std@@QAEPAUKinematics@AngularSegmentKinematicsDatagram@@QAU23@ABU23@@Z 00402160 f i angularsegmentkinematicsdatagram.obj
 0001:00001340       ??$_Get_size_of_n@$07@std@@YAII@Z 00402340 f i angularsegmentkinematicsdatagram.obj
 0001:00001370       ??$_Get_size_of_n@$0CM@@std@@YAII@Z 00402370 f i angularsegmentkinematicsdatagram.obj
 0001:000013a0       ??$_Min_value@I@std@@YAABIABI0@Z 004023a0 f i angularsegmentkinematicsdatagram.obj
 0001:000013d0       ??$_Ptr_move_cat@UKinematics@AngularSegmentKinematicsDatagram@@U12@@std@@YA?AU_Really_trivial_ptr_iterator_tag@0@ABQAUKinematics@AngularSegmentKinematicsDatagram@@0@Z 004023d0 f i angularsegmentkinematicsdatagram.obj
 0001:000013e0       ??$_Rechecked@PAUKinematics@AngularSegmentKinematicsDatagram@@PAU12@@std@@YAAAPAUKinematics@AngularSegmentKinematicsDatagram@@AAPAU12@QAU12@@Z 004023e0 f i angularsegmentkinematicsdatagram.obj
 0001:000013f0       ??$_Unchecked@PAUKinematics@AngularSegmentKinematicsDatagram@@@std@@YAPAUKinematics@AngularSegmentKinematicsDatagram@@PAU12@@Z 004023f0 f i angularsegmentkinematicsdatagram.obj
 0001:00001400       ??$_Unfancy@UKinematics@AngularSegmentKinematicsDatagram@@@std@@YAPAUKinematics@AngularSegmentKinematicsDatagram@@PAU12@@Z 00402400 f i angularsegmentkinematicsdatagram.obj
 0001:00001410       ??$_Unfancy@U_Container_proxy@std@@@std@@YAPAU_Container_proxy@0@PAU10@@Z 00402410 f i angularsegmentkinematicsdatagram.obj
 0001:00001420       ??$_Uninitialized_move@PAUKinematics@AngularSegmentKinematicsDatagram@@PAU12@V?$allocator@UKinematics@AngularSegmentKinematicsDatagram@@@std@@@std@@YAPAUKinematics@AngularSegmentKinematicsDatagram@@QAU12@0PAU12@AAV?$allocator@UKinematics@AngularSegmentKinematicsDatagram@@@0@@Z 00402420 f i angularsegmentkinematicsdatagram.obj
 0001:000014a0       ??$_Uninitialized_move_al_unchecked@UKinematics@AngularSegmentKinematicsDatagram@@U12@V?$allocator@UKinematics@AngularSegmentKinematicsDatagram@@@std@@@std@@YAPAUKinematics@AngularSegmentKinematicsDatagram@@QAU12@00AAV?$allocator@UKinematics@AngularSegmentKinematicsDatagram@@@0@U_Really_trivial_ptr_iterator_tag@0@U?$integral_constant@_N$00@0@@Z 004024a0 f i angularsegmentkinematicsdatagram.obj
 0001:000014c0       ??$addressof@V?$_Vector_val@U?$_Simple_types@UKinematics@AngularSegmentKinematicsDatagram@@@std@@@std@@@std@@YAPAV?$_Vector_val@U?$_Simple_types@UKinematics@AngularSegmentKinematicsDatagram@@@std@@@0@AAV10@@Z 004024c0 f i angularsegmentkinematicsdatagram.obj
 0001:000014d0       ??$construct@UKinematics@AngularSegmentKinematicsDatagram@@ABU12@@?$_Default_allocator_traits@V?$allocator@UKinematics@AngularSegmentKinematicsDatagram@@@std@@@std@@SAXAAV?$allocator@UKinematics@AngularSegmentKinematicsDatagram@@@1@QAUKinematics@AngularSegmentKinematicsDatagram@@ABU34@@Z 004024d0 f i angularsegmentkinematicsdatagram.obj
 0001:00001510       ??$construct@U_Container_proxy@std@@U12@@?$_Default_allocator_traits@V?$allocator@U_Container_proxy@std@@@std@@@std@@SAXAAV?$allocator@U_Container_proxy@std@@@1@QAU_Container_proxy@1@$$QAU31@@Z 00402510 f i angularsegmentkinematicsdatagram.obj
 0001:00001550       ??$destroy@U_Container_proxy@std@@@?$_Default_allocator_traits@V?$allocator@U_Container_proxy@std@@@std@@@std@@SAXAAV?$allocator@U_Container_proxy@std@@@1@QAU_Container_proxy@1@@Z 00402550 f i angularsegmentkinematicsdatagram.obj
 0001:00001560       ??$emplace_back@ABUKinematics@AngularSegmentKinematicsDatagram@@@?$vector@UKinematics@AngularSegmentKinematicsDatagram@@V?$allocator@UKinematics@AngularSegmentKinematicsDatagram@@@std@@@std@@QAEXABUKinematics@AngularSegmentKinematicsDatagram@@@Z 00402560 f i angularsegmentkinematicsdatagram.obj
 0001:000015c0       ??$endl@DU?$char_traits@D@std@@@std@@YAAAV?$basic_ostream@DU?$char_traits@D@std@@@0@AAV10@@Z 004025c0 f i angularsegmentkinematicsdatagram.obj
 0001:00001600       ??$forward@ABUKinematics@AngularSegmentKinematicsDatagram@@@std@@YAABUKinematics@AngularSegmentKinematicsDatagram@@ABU12@@Z 00402600 f i angularsegmentkinematicsdatagram.obj
 0001:00001610       ??$forward@U_Container_proxy@std@@@std@@YA$$QAU_Container_proxy@0@AAU10@@Z 00402610 f i angularsegmentkinematicsdatagram.obj
 0001:00001620       ??0?$_Vector_alloc@U?$_Vec_base_types@UKinematics@AngularSegmentKinematicsDatagram@@V?$allocator@UKinematics@AngularSegmentKinematicsDatagram@@@std@@@std@@@std@@QAE@XZ 00402620 f i angularsegmentkinematicsdatagram.obj
 0001:00001650       ??0?$_Vector_val@U?$_Simple_types@UKinematics@AngularSegmentKinematicsDatagram@@@std@@@std@@QAE@XZ 00402650 f i angularsegmentkinematicsdatagram.obj
 0001:00001690       ??0?$allocator@UKinematics@AngularSegmentKinematicsDatagram@@@std@@QAE@XZ 00402690 f i angularsegmentkinematicsdatagram.obj
 0001:000016a0       ??0?$vector@UKinematics@AngularSegmentKinematicsDatagram@@V?$allocator@UKinematics@AngularSegmentKinematicsDatagram@@@std@@@std@@QAE@XZ 004026a0 f i angularsegmentkinematicsdatagram.obj
 0001:000016e0       ??0_Container_base12@std@@QAE@XZ 004026e0 f i angularsegmentkinematicsdatagram.obj
 0001:00001700       ??0_Container_proxy@std@@QAE@XZ 00402700 f i angularsegmentkinematicsdatagram.obj
 0001:00001730       ??0_Sentry_base@?$basic_ostream@DU?$char_traits@D@std@@@std@@QAE@AAV12@@Z 00402730 f i angularsegmentkinematicsdatagram.obj
 0001:00001790       ??0sentry@?$basic_ostream@DU?$char_traits@D@std@@@std@@QAE@AAV12@@Z 00402790 f i angularsegmentkinematicsdatagram.obj
 0001:00001860       ??1?$_Vector_alloc@U?$_Vec_base_types@UKinematics@AngularSegmentKinematicsDatagram@@V?$allocator@UKinematics@AngularSegmentKinematicsDatagram@@@std@@@std@@@std@@QAE@XZ 00402860 f i angularsegmentkinematicsdatagram.obj
 0001:000018a0       ??1?$vector@UKinematics@AngularSegmentKinematicsDatagram@@V?$allocator@UKinematics@AngularSegmentKinematicsDatagram@@@std@@@std@@QAE@XZ 004028a0 f i angularsegmentkinematicsdatagram.obj
 0001:000018f0       ??1_Sentry_base@?$basic_ostream@DU?$char_traits@D@std@@@std@@QAE@XZ 004028f0 f i angularsegmentkinematicsdatagram.obj
 0001:00001970       ??1sentry@?$basic_ostream@DU?$char_traits@D@std@@@std@@QAE@XZ 00402970 f i angularsegmentkinematicsdatagram.obj
 0001:000019d0       ??2@YAPAXIPAX@Z            004029d0 f i angularsegmentkinematicsdatagram.obj
 0001:000019e0       ??Bsentry@?$basic_ostream@DU?$char_traits@D@std@@@std@@QBE_NXZ 004029e0 f i angularsegmentkinematicsdatagram.obj
 0001:00001a00       ??_EAngularSegmentKinematicsDatagram@@UAEPAXI@Z 00402a00 f i angularsegmentkinematicsdatagram.obj
 0001:00001a00       ??_GAngularSegmentKinematicsDatagram@@UAEPAXI@Z 00402a00 f i angularsegmentkinematicsdatagram.obj
 0001:00001a30       ?_Adjust_manually_vector_aligned@std@@YAXAAPAXAAI@Z 00402a30 f i angularsegmentkinematicsdatagram.obj
 0001:00001ae0       ?_Alloc_proxy@?$_Vector_alloc@U?$_Vec_base_types@UKinematics@AngularSegmentKinematicsDatagram@@V?$allocator@UKinematics@AngularSegmentKinematicsDatagram@@@std@@@std@@@std@@QAEXXZ 00402ae0 f i angularsegmentkinematicsdatagram.obj
 0001:00001b60       ?_Allocate@_Default_allocate_traits@std@@SAPAXI@Z 00402b60 f i angularsegmentkinematicsdatagram.obj
 0001:00001b80       ?_Calculate_growth@?$vector@UKinematics@AngularSegmentKinematicsDatagram@@V?$allocator@UKinematics@AngularSegmentKinematicsDatagram@@@std@@@std@@ABEII@Z 00402b80 f i angularsegmentkinematicsdatagram.obj
 0001:00001bd0       ?_Change_array@?$vector@UKinematics@AngularSegmentKinematicsDatagram@@V?$allocator@UKinematics@AngularSegmentKinematicsDatagram@@@std@@@std@@AAEXQAUKinematics@AngularSegmentKinematicsDatagram@@II@Z 00402bd0 f i angularsegmentkinematicsdatagram.obj
 0001:00001c70       ?_Clrcont@_Iterator_base12@std@@QAEXXZ 00402c70 f i angularsegmentkinematicsdatagram.obj
 0001:00001c90       ?_Destroy@?$vector@UKinematics@AngularSegmentKinematicsDatagram@@V?$allocator@UKinematics@AngularSegmentKinematicsDatagram@@@std@@@std@@AAEXPAUKinematics@AngularSegmentKinematicsDatagram@@0@Z 00402c90 f i angularsegmentkinematicsdatagram.obj
 0001:00001cc0       ?_Free_proxy@?$_Vector_alloc@U?$_Vec_base_types@UKinematics@AngularSegmentKinematicsDatagram@@V?$allocator@UKinematics@AngularSegmentKinematicsDatagram@@@std@@@std@@@std@@QAEXXZ 00402cc0 f i angularsegmentkinematicsdatagram.obj
 0001:00001d30       ?_Get_data@?$_Vector_alloc@U?$_Vec_base_types@UKinematics@AngularSegmentKinematicsDatagram@@V?$allocator@UKinematics@AngularSegmentKinematicsDatagram@@@std@@@std@@@std@@QAEAAV?$_Vector_val@U?$_Simple_types@UKinematics@AngularSegmentKinematicsDatagram@@@std@@@2@XZ 00402d30 f i angularsegmentkinematicsdatagram.obj
 0001:00001d50       ?_Get_data@?$_Vector_alloc@U?$_Vec_base_types@UKinematics@AngularSegmentKinematicsDatagram@@V?$allocator@UKinematics@AngularSegmentKinematicsDatagram@@@std@@@std@@@std@@QBEABV?$_Vector_val@U?$_Simple_types@UKinematics@AngularSegmentKinematicsDatagram@@@std@@@2@XZ 00402d50 f i angularsegmentkinematicsdatagram.obj
 0001:00001d70       ?_Get_first@?$_Compressed_pair@V?$allocator@UKinematics@AngularSegmentKinematicsDatagram@@@std@@V?$_Vector_val@U?$_Simple_types@UKinematics@AngularSegmentKinematicsDatagram@@@std@@@2@$00@std@@QAEAAV?$allocator@UKinematics@AngularSegmentKinematicsDatagram@@@2@XZ 00402d70 f i angularsegmentkinematicsdatagram.obj
 0001:00001d80       ?_Get_first@?$_Compressed_pair@V?$allocator@UKinematics@AngularSegmentKinematicsDatagram@@@std@@V?$_Vector_val@U?$_Simple_types@UKinematics@AngularSegmentKinematicsDatagram@@@std@@@2@$00@std@@QBEABV?$allocator@UKinematics@AngularSegmentKinematicsDatagram@@@2@XZ 00402d80 f i angularsegmentkinematicsdatagram.obj
 0001:00001d90       ?_Get_second@?$_Compressed_pair@V?$allocator@UKinematics@AngularSegmentKinematicsDatagram@@@std@@V?$_Vector_val@U?$_Simple_types@UKinematics@AngularSegmentKinematicsDatagram@@@std@@@2@$00@std@@QAEAAV?$_Vector_val@U?$_Simple_types@UKinematics@AngularSegmentKinematicsDatagram@@@std@@@2@XZ 00402d90 f i angularsegmentkinematicsdatagram.obj
 0001:00001da0       ?_Get_second@?$_Compressed_pair@V?$allocator@UKinematics@AngularSegmentKinematicsDatagram@@@std@@V?$_Vector_val@U?$_Simple_types@UKinematics@AngularSegmentKinematicsDatagram@@@std@@@2@$00@std@@QBEABV?$_Vector_val@U?$_Simple_types@UKinematics@AngularSegmentKinematicsDatagram@@@std@@@2@XZ 00402da0 f i angularsegmentkinematicsdatagram.obj
 0001:00001db0       ?_Getal@?$_Vector_alloc@U?$_Vec_base_types@UKinematics@AngularSegmentKinematicsDatagram@@V?$allocator@UKinematics@AngularSegmentKinematicsDatagram@@@std@@@std@@@std@@QAEAAV?$allocator@UKinematics@AngularSegmentKinematicsDatagram@@@2@XZ 00402db0 f i angularsegmentkinematicsdatagram.obj
 0001:00001dd0       ?_Getal@?$_Vector_alloc@U?$_Vec_base_types@UKinematics@AngularSegmentKinematicsDatagram@@V?$allocator@UKinematics@AngularSegmentKinematicsDatagram@@@std@@@std@@@std@@QBEABV?$allocator@UKinematics@AngularSegmentKinematicsDatagram@@@2@XZ 00402dd0 f i angularsegmentkinematicsdatagram.obj
 0001:00001df0       ?_Getpfirst@?$_Vector_alloc@U?$_Vec_base_types@UKinematics@AngularSegmentKinematicsDatagram@@V?$allocator@UKinematics@AngularSegmentKinematicsDatagram@@@std@@@std@@@std@@QBEPAPAU_Iterator_base12@2@XZ 00402df0 f i angularsegmentkinematicsdatagram.obj
 0001:00001e10       ?_Getpfirst@_Container_base12@std@@QBEPAPAU_Iterator_base12@2@XZ 00402e10 f i angularsegmentkinematicsdatagram.obj
 0001:00001e40       ?_Getpnext@_Iterator_base12@std@@QAEPAPAU12@XZ 00402e40 f i angularsegmentkinematicsdatagram.obj
 0001:00001e60       ?_Has_unused_capacity@?$vector@UKinematics@AngularSegmentKinematicsDatagram@@V?$allocator@UKinematics@AngularSegmentKinematicsDatagram@@@std@@@std@@ABE_NXZ 00402e60 f i angularsegmentkinematicsdatagram.obj
 0001:00001ea0       ?_Myend@?$_Vector_alloc@U?$_Vec_base_types@UKinematics@AngularSegmentKinematicsDatagram@@V?$allocator@UKinematics@AngularSegmentKinematicsDatagram@@@std@@@std@@@std@@QAEAAPAUKinematics@AngularSegmentKinematicsDatagram@@XZ 00402ea0 f i angularsegmentkinematicsdatagram.obj
 0001:00001ec0       ?_Myend@?$_Vector_alloc@U?$_Vec_base_types@UKinematics@AngularSegmentKinematicsDatagram@@V?$allocator@UKinematics@AngularSegmentKinematicsDatagram@@@std@@@std@@@std@@QBEABQAUKinematics@AngularSegmentKinematicsDatagram@@XZ 00402ec0 f i angularsegmentkinematicsdatagram.obj
 0001:00001ee0       ?_Myfirst@?$_Vector_alloc@U?$_Vec_base_types@UKinematics@AngularSegmentKinematicsDatagram@@V?$allocator@UKinematics@AngularSegmentKinematicsDatagram@@@std@@@std@@@std@@QAEAAPAUKinematics@AngularSegmentKinematicsDatagram@@XZ 00402ee0 f i angularsegmentkinematicsdatagram.obj
 0001:00001f00       ?_Myfirst@?$_Vector_alloc@U?$_Vec_base_types@UKinematics@AngularSegmentKinematicsDatagram@@V?$allocator@UKinematics@AngularSegmentKinematicsDatagram@@@std@@@std@@@std@@QBEABQAUKinematics@AngularSegmentKinematicsDatagram@@XZ 00402f00 f i angularsegmentkinematicsdatagram.obj
 0001:00001f20       ?_Mylast@?$_Vector_alloc@U?$_Vec_base_types@UKinematics@AngularSegmentKinematicsDatagram@@V?$allocator@UKinematics@AngularSegmentKinematicsDatagram@@@std@@@std@@@std@@QAEAAPAUKinematics@AngularSegmentKinematicsDatagram@@XZ 00402f20 f i angularsegmentkinematicsdatagram.obj
 0001:00001f40       ?_Mylast@?$_Vector_alloc@U?$_Vec_base_types@UKinematics@AngularSegmentKinematicsDatagram@@V?$allocator@UKinematics@AngularSegmentKinematicsDatagram@@@std@@@std@@@std@@QBEABQAUKinematics@AngularSegmentKinematicsDatagram@@XZ 00402f40 f i angularsegmentkinematicsdatagram.obj
 0001:00001f60       ?_Myproxy@?$_Vector_alloc@U?$_Vec_base_types@UKinematics@AngularSegmentKinematicsDatagram@@V?$allocator@UKinematics@AngularSegmentKinematicsDatagram@@@std@@@std@@@std@@QAEAAPAU_Container_proxy@2@XZ 00402f60 f i angularsegmentkinematicsdatagram.obj
 0001:00001f80       ?_Orphan_all@?$_Vector_alloc@U?$_Vec_base_types@UKinematics@AngularSegmentKinematicsDatagram@@V?$allocator@UKinematics@AngularSegmentKinematicsDatagram@@@std@@@std@@@std@@QAEXXZ 00402f80 f i angularsegmentkinematicsdatagram.obj
 0001:00001fa0       ?_Orphan_all@_Container_base12@std@@QAEXXZ 00402fa0 f i angularsegmentkinematicsdatagram.obj
 0001:00002030       ?_Orphan_range@?$vector@UKinematics@AngularSegmentKinematicsDatagram@@V?$allocator@UKinematics@AngularSegmentKinematicsDatagram@@@std@@@std@@ABEXPAUKinematics@AngularSegmentKinematicsDatagram@@0@Z 00403030 f i angularsegmentkinematicsdatagram.obj
 0001:000020f0       ?_Tidy@?$vector@UKinematics@AngularSegmentKinematicsDatagram@@V?$allocator@UKinematics@AngularSegmentKinematicsDatagram@@@std@@@std@@AAEXXZ 004030f0 f i angularsegmentkinematicsdatagram.obj
 0001:00002180       ?_Umove@?$vector@UKinematics@AngularSegmentKinematicsDatagram@@V?$allocator@UKinematics@AngularSegmentKinematicsDatagram@@@std@@@std@@AAEPAUKinematics@AngularSegmentKinematicsDatagram@@PAU34@00@Z 00403180 f i angularsegmentkinematicsdatagram.obj
 0001:000021b0       ?_Umove_if_noexcept1@?$vector@UKinematics@AngularSegmentKinematicsDatagram@@V?$allocator@UKinematics@AngularSegmentKinematicsDatagram@@@std@@@std@@AAEXPAUKinematics@AngularSegmentKinematicsDatagram@@00U?$integral_constant@_N$00@2@@Z 004031b0 f i angularsegmentkinematicsdatagram.obj
 0001:000021e0       ?_Umove_if_noexcept@?$vector@UKinematics@AngularSegmentKinematicsDatagram@@V?$allocator@UKinematics@AngularSegmentKinematicsDatagram@@@std@@@std@@AAEXPAUKinematics@AngularSegmentKinematicsDatagram@@00@Z 004031e0 f i angularsegmentkinematicsdatagram.obj
 0001:00002210       ?_Xlength@?$vector@UKinematics@AngularSegmentKinematicsDatagram@@V?$allocator@UKinematics@AngularSegmentKinematicsDatagram@@@std@@@std@@CAXXZ 00403210 f i angularsegmentkinematicsdatagram.obj
 0001:00002220       ?_Xrange@?$vector@UKinematics@AngularSegmentKinematicsDatagram@@V?$allocator@UKinematics@AngularSegmentKinematicsDatagram@@@std@@@std@@CAXXZ 00403220 f i angularsegmentkinematicsdatagram.obj
 0001:00002230       ?__empty_global_delete@@YAXPAX@Z 00403230 f i angularsegmentkinematicsdatagram.obj
 0001:00002240       ?__empty_global_delete@@YAXPAXI@Z 00403240 f i angularsegmentkinematicsdatagram.obj
 0001:00002240       ?__global_delete@@YAXPAXI@Z 00403240 f i angularsegmentkinematicsdatagram.obj
 0001:00002250       ?allocate@?$allocator@UKinematics@AngularSegmentKinematicsDatagram@@@std@@QAEPAUKinematics@AngularSegmentKinematicsDatagram@@I@Z 00403250 f i angularsegmentkinematicsdatagram.obj
 0001:00002280       ?allocate@?$allocator@U_Container_proxy@std@@@std@@QAEPAU_Container_proxy@2@I@Z 00403280 f i angularsegmentkinematicsdatagram.obj
 0001:000022b0       ?at@?$vector@UKinematics@AngularSegmentKinematicsDatagram@@V?$allocator@UKinematics@AngularSegmentKinematicsDatagram@@@std@@@std@@QBEABUKinematics@AngularSegmentKinematicsDatagram@@I@Z 004032b0 f i angularsegmentkinematicsdatagram.obj
 0001:000022e0       ?capacity@?$vector@UKinematics@AngularSegmentKinematicsDatagram@@V?$allocator@UKinematics@AngularSegmentKinematicsDatagram@@@std@@@std@@QBEIXZ 004032e0 f i angularsegmentkinematicsdatagram.obj
 0001:00002310       ?deallocate@?$_Default_allocator_traits@V?$allocator@U_Container_proxy@std@@@std@@@std@@SAXAAV?$allocator@U_Container_proxy@std@@@2@QAU_Container_proxy@2@I@Z 00403310 f i angularsegmentkinematicsdatagram.obj
 0001:00002330       ?deallocate@?$allocator@UKinematics@AngularSegmentKinematicsDatagram@@@std@@QAEXQAUKinematics@AngularSegmentKinematicsDatagram@@I@Z 00403330 f i angularsegmentkinematicsdatagram.obj
 0001:00002350       ?eof@?$char_traits@D@std@@SAHXZ 00403350 f i angularsegmentkinematicsdatagram.obj
 0001:00002360       ?eq_int_type@?$char_traits@D@std@@SA_NABH0@Z 00403360 f i angularsegmentkinematicsdatagram.obj
 0001:00002390       ?length@?$char_traits@D@std@@SAIQBD@Z 00403390 f i angularsegmentkinematicsdatagram.obj
 0001:000023b0       ?max@?$numeric_limits@H@std@@SAHXZ 004033b0 f i angularsegmentkinematicsdatagram.obj
 0001:000023c0       ?max_size@?$_Default_allocator_traits@V?$allocator@UKinematics@AngularSegmentKinematicsDatagram@@@std@@@std@@SAIABV?$allocator@UKinematics@AngularSegmentKinematicsDatagram@@@2@@Z 004033c0 f i angularsegmentkinematicsdatagram.obj
 0001:000023d0       ?max_size@?$vector@UKinematics@AngularSegmentKinematicsDatagram@@V?$allocator@UKinematics@AngularSegmentKinematicsDatagram@@@std@@@std@@QBEIXZ 004033d0 f i angularsegmentkinematicsdatagram.obj
 0001:00002410       ?push_back@?$vector@UKinematics@AngularSegmentKinematicsDatagram@@V?$allocator@UKinematics@AngularSegmentKinematicsDatagram@@@std@@@std@@QAEXABUKinematics@AngularSegmentKinematicsDatagram@@@Z 00403410 f i angularsegmentkinematicsdatagram.obj
 0001:00002430       ?size@?$vector@UKinematics@AngularSegmentKinematicsDatagram@@V?$allocator@UKinematics@AngularSegmentKinematicsDatagram@@@std@@@std@@QBEIXZ 00403430 f i angularsegmentkinematicsdatagram.obj
 0001:00002460       ??0CenterOfMassDatagram@@QAE@XZ 00403460 f   centerofmassdatagram.obj
 0001:000024d0       ??1CenterOfMassDatagram@@UAE@XZ 004034d0 f   centerofmassdatagram.obj
 0001:000024f0       ?printData@CenterOfMassDatagram@@UBEXXZ 004034f0 f   centerofmassdatagram.obj
 0001:00002630       ?deserializeData@CenterOfMassDatagram@@MAEXAAVStreamer@@@Z 00403630 f   centerofmassdatagram.obj
 0001:00002680       ??_GCenterOfMassDatagram@@UAEPAXI@Z 00403680 f i centerofmassdatagram.obj
 0001:00002680       ??_ECenterOfMassDatagram@@UAEPAXI@Z 00403680 f i centerofmassdatagram.obj
 0001:000026b0       ??0Datagram@@QAE@XZ        004036b0 f   datagram.obj
 0001:00002760       ??1Datagram@@QAE@XZ        00403760 f   datagram.obj
 0001:00002790       ?deserialize@Datagram@@QAE_NABUXsByteArray@@@Z 00403790 f   datagram.obj
 0001:000028b0       ?setDataCount@Datagram@@QAEXE@Z 004038b0 f   datagram.obj
 0001:000028d0       ?setType@Datagram@@QAEXW4StreamingProtocol@@@Z 004038d0 f   datagram.obj
 0001:000029f0       ?messageType@Datagram@@QBEHXZ 004039f0 f   datagram.obj
 0001:00002aa0       ?sampleCounter@Datagram@@QBEHXZ 00403aa0 f   datagram.obj
 0001:00002ac0       ?frameTime@Datagram@@QBEHXZ 00403ac0 f   datagram.obj
 0001:00002ae0       ?avatarId@Datagram@@QBEEXZ 00403ae0 f   datagram.obj
 0001:00002b00       ?dataCount@Datagram@@QBEEXZ 00403b00 f   datagram.obj
 0001:00002b20       ?datagramCounter@Datagram@@QBEEXZ 00403b20 f   datagram.obj
 0001:00002b40       ?messageType@Datagram@@SAHABUXsByteArray@@@Z 00403b40 f   datagram.obj
 0001:00002c30       ?decode@Datagram@@QBE?AV?$basic_string@DU?$char_traits@D@std@@V?$allocator@D@2@@std@@W4StreamingProtocol@@@Z 00403c30 f   datagram.obj
 0001:00002d60       ?convertFromYupToZup@Datagram@@QBEXPAM@Z 00403d60 f   datagram.obj
 0001:00002df0       ?printHeader@Datagram@@QBEXXZ 00403df0 f   datagram.obj
 0001:00003040       ?getDataSize@Datagram@@ABEHXZ 00404040 f   datagram.obj
 0001:00003060       ?initMap@Datagram@@AAEXAAV?$map@HV?$basic_string@DU?$char_traits@D@std@@V?$allocator@D@2@@std@@U?$less@H@2@V?$allocator@U?$pair@$$CBHV?$basic_string@DU?$char_traits@D@std@@V?$allocator@D@2@@std@@@std@@@2@@std@@@Z 00404060 f   datagram.obj
 0001:00003210       ??$?0$$QAH$$Z$$V@?$pair@$$CBHV?$basic_string@DU?$char_traits@D@std@@V?$allocator@D@2@@std@@@std@@QAE@Upiecewise_construct_t@1@V?$tuple@$$QAH@1@V?$tuple@$$V@1@@Z 00404210 f i datagram.obj
 0001:00003240       ??$?0$$V@?$_Compressed_pair@V?$allocator@D@std@@V?$_String_val@U?$_Simple_types@D@std@@@2@$00@std@@QAE@U_Zero_then_variadic_args_t@1@@Z 00404240 f i datagram.obj
 0001:00003260       ??$?0$$V@?$_Compressed_pair@V?$allocator@U?$_Tree_node@U?$pair@$$CBHV?$basic_string@DU?$char_traits@D@std@@V?$allocator@D@2@@std@@@std@@PAX@std@@@std@@V?$_Tree_val@U?$_Tree_simple_types@U?$pair@$$CBHV?$basic_string@DU?$char_traits@D@std@@V?$allocator@D@2@@std@@@std@@@std@@@2@$00@std@@QAE@U_Zero_then_variadic_args_t@1@@Z 00404260 f i datagram.obj
 0001:00003280       ??$?0AAPAV_Facet_base@std@@@?$_Compressed_pair@U?$default_delete@V_Facet_base@std@@@std@@PAV_Facet_base@2@$00@std@@QAE@U_Zero_then_variadic_args_t@1@AAPAV_Facet_base@1@@Z 00404280 f i datagram.obj
 0001:000032b0       ??$?0AAV?$_Tree_iterator@V?$_Tree_val@U?$_Tree_simple_types@U?$pair@$$CBHV?$basic_string@DU?$char_traits@D@std@@V?$allocator@D@2@@std@@@std@@@std@@@std@@@std@@_N$0A@@?$pair@V?$_Tree_iterator@V?$_Tree_val@U?$_Tree_simple_types@U?$pair@$$CBHV?$basic_string@DU?$char_traits@D@std@@V?$allocator@D@2@@std@@@std@@@std@@@std@@@std@@_N@std@@QAE@AAV?$_Tree_iterator@V?$_Tree_val@U?$_Tree_simple_types@U?$pair@$$CBHV?$basic_string@DU?$char_traits@D@std@@V?$allocator@D@2@@std@@@std@@@std@@@std@@@1@$$QA_N@Z 004042b0 f i datagram.obj
 0001:000032f0       ??$?0ABU?$less@H@std@@U_Zero_then_variadic_args_t@1@@?$_Compressed_pair@U?$less@H@std@@V?$_Compressed_pair@V?$allocator@U?$_Tree_node@U?$pair@$$CBHV?$basic_string@DU?$char_traits@D@std@@V?$allocator@D@2@@std@@@std@@PAX@std@@@std@@V?$_Tree_val@U?$_Tree_simple_types@U?$pair@$$CBHV?$basic_string@DU?$char_traits@D@std@@V?$allocator@D@2@@std@@@std@@@std@@@2@$00@2@$00@std@@QAE@U_One_then_variadic_args_t@1@ABU?$less@H@1@$$QAU_Zero_then_variadic_args_t@1@@Z 004042f0 f i datagram.obj
 0001:00003330       ??$?0ABV?$allocator@D@std@@$$V@?$_Compressed_pair@V?$allocator@D@std@@V?$_String_val@U?$_Simple_types@D@std@@@2@$00@std@@QAE@U_One_then_variadic_args_t@1@ABV?$allocator@D@1@@Z 00404330 f i datagram.obj
 0001:00003360       ??$?0ABV?$allocator@D@std@@X@?$_String_alloc@U?$_String_base_types@DV?$allocator@D@std@@@std@@@std@@QAE@ABV?$allocator@D@1@@Z 00404360 f i datagram.obj
 0001:000033d0       ??$?0D@?$allocator@U_Container_proxy@std@@@std@@QAE@ABV?$allocator@D@1@@Z 004043d0 f i datagram.obj
 0001:000033e0       ??$?0H$$V$0A@@?$tuple@$$QAH@std@@QAE@$$QAH@Z 004043e0 f i datagram.obj
 0001:00003420       ??$?0H@?$_Tuple_val@$$QAH@std@@QAE@$$QAH@Z 00404420 f i datagram.obj
 0001:00003450       ??$?0PAV_Facet_base@std@@@?$_Unique_ptr_base@V_Facet_base@std@@U?$default_delete@V_Facet_base@std@@@2@@std@@QAE@PAV_Facet_base@1@@Z 00404450 f i datagram.obj
 0001:00003480       ??$?0U?$_Tree_node@U?$pair@$$CBHV?$basic_string@DU?$char_traits@D@std@@V?$allocator@D@2@@std@@@std@@PAX@std@@@?$allocator@U_Container_proxy@std@@@std@@QAE@ABV?$allocator@U?$_Tree_node@U?$pair@$$CBHV?$basic_string@DU?$char_traits@D@std@@V?$allocator@D@2@@std@@@std@@PAX@std@@@1@@Z 00404480 f i datagram.obj
 0001:00003490       ??$?0U?$default_delete@V_Facet_base@std@@@std@@$0A@@?$unique_ptr@V_Facet_base@std@@U?$default_delete@V_Facet_base@std@@@2@@std@@QAE@PAV_Facet_base@1@@Z 00404490 f i datagram.obj
 0001:000034e0       ??$?0U_Exact_args_t@std@@$0A@@?$tuple@$$V@std@@QAE@U_Exact_args_t@1@@Z 004044e0 f i datagram.obj
 0001:000034f0       ??$?0U_Exact_args_t@std@@H$$V$0A@@?$tuple@$$QAH@std@@QAE@U_Exact_args_t@1@$$QAH@Z 004044f0 f i datagram.obj
 0001:00003530       ??$?0V?$_Tree_iterator@V?$_Tree_val@U?$_Tree_simple_types@U?$pair@$$CBHV?$basic_string@DU?$char_traits@D@std@@V?$allocator@D@2@@std@@@std@@@std@@@std@@@std@@_N$0A@@?$pair@V?$_Tree_iterator@V?$_Tree_val@U?$_Tree_simple_types@U?$pair@$$CBHV?$basic_string@DU?$char_traits@D@std@@V?$allocator@D@2@@std@@@std@@@std@@@std@@@std@@_N@std@@QAE@$$QAV?$_Tree_iterator@V?$_Tree_val@U?$_Tree_simple_types@U?$pair@$$CBHV?$basic_string@DU?$char_traits@D@std@@V?$allocator@D@2@@std@@@std@@@std@@@std@@@1@$$QA_N@Z 00404530 f i datagram.obj
 0001:00003570       ??$?0V?$allocator@D@std@@$$V@?$_Compressed_pair@V?$allocator@D@std@@V?$_String_val@U?$_Simple_types@D@std@@@2@$00@std@@QAE@U_One_then_variadic_args_t@1@$$QAV?$allocator@D@1@@Z 00404570 f i datagram.obj
 0001:000035a0       ??$?0V?$allocator@D@std@@X@?$_String_alloc@U?$_String_base_types@DV?$allocator@D@std@@@std@@@std@@QAE@$$QAV?$allocator@D@1@@Z 004045a0 f i datagram.obj
 0001:00003610       ??$?0V?$tuple@$$QAH@std@@V?$tuple@$$V@1@$0A@$$Z$S@?$pair@$$CBHV?$basic_string@DU?$char_traits@D@std@@V?$allocator@D@2@@std@@@std@@QAE@AAV?$tuple@$$QAH@1@AAV?$tuple@$$V@1@U?$integer_sequence@I$0A@@1@U?$integer_sequence@I$S@1@@Z 00404610 f i datagram.obj
 0001:00003650       ??$?5DU?$char_traits@D@std@@V?$allocator@D@1@@std@@YAAAV?$basic_istream@DU?$char_traits@D@std@@@0@$$QAV10@AAV?$basic_string@DU?$char_traits@D@std@@V?$allocator@D@2@@0@@Z 00404650 f i datagram.obj
 0001:000038f0       ??$?5DU?$char_traits@D@std@@V?$allocator@D@1@@std@@YAAAV?$basic_istream@DU?$char_traits@D@std@@@0@AAV10@AAV?$basic_string@DU?$char_traits@D@std@@V?$allocator@D@2@@0@@Z 004048f0 f i datagram.obj
 0001:00003910       ??$?6DU?$char_traits@D@std@@V?$allocator@D@1@@std@@YAAAV?$basic_ostream@DU?$char_traits@D@std@@@0@AAV10@ABV?$basic_string@DU?$char_traits@D@std@@V?$allocator@D@2@@0@@Z 00404910 f i datagram.obj
 0001:00003940       ??$?6U?$char_traits@D@std@@@std@@YAAAV?$basic_ostream@DU?$char_traits@D@std@@@0@AAV10@D@Z 00404940 f i datagram.obj
 0001:00003c30       ??$?6U?$char_traits@D@std@@@std@@YAAAV?$basic_ostream@DU?$char_traits@D@std@@@0@AAV10@E@Z 00404c30 f i datagram.obj
 0001:00003c50       ??$?9DD@std@@YA_NABV?$allocator@D@0@0@Z 00404c50 f i datagram.obj
 0001:00003c60       ??$?HDU?$char_traits@D@std@@V?$allocator@D@1@@std@@YA?AV?$basic_string@DU?$char_traits@D@std@@V?$allocator@D@2@@0@QBD$$QAV10@@Z 00404c60 f i datagram.obj
 0001:00003ca0       ??$_Buy_if_not_node@AAU?$pair@$$CBHV?$basic_string@DU?$char_traits@D@std@@V?$allocator@D@2@@std@@@std@@@?$_Tree@V?$_Tmap_traits@HV?$basic_string@DU?$char_traits@D@std@@V?$allocator@D@2@@std@@U?$less@H@2@V?$allocator@U?$pair@$$CBHV?$basic_string@DU?$char_traits@D@std@@V?$allocator@D@2@@std@@@std@@@2@$0A@@std@@@std@@IAEPAU?$_Tree_node@U?$pair@$$CBHV?$basic_string@DU?$char_traits@D@std@@V?$allocator@D@2@@std@@@std@@PAX@1@PAU21@AAU?$pair@$$CBHV?$basic_string@DU?$char_traits@D@std@@V?$allocator@D@2@@std@@@1@@Z 00404ca0 f i datagram.obj
 0001:00003cb0       ??$_Buynode@ABUpiecewise_construct_t@std@@V?$tuple@$$QAH@2@V?$tuple@$$V@2@@?$_Tree_comp_alloc@V?$_Tmap_traits@HV?$basic_string@DU?$char_traits@D@std@@V?$allocator@D@2@@std@@U?$less@H@2@V?$allocator@U?$pair@$$CBHV?$basic_string@DU?$char_traits@D@std@@V?$allocator@D@2@@std@@@std@@@2@$0A@@std@@@std@@QAEPAU?$_Tree_node@U?$pair@$$CBHV?$basic_string@DU?$char_traits@D@std@@V?$allocator@D@2@@std@@@std@@PAX@1@ABUpiecewise_construct_t@1@$$QAV?$tuple@$$QAH@1@$$QAV?$tuple@$$V@1@@Z 00404cb0 f i datagram.obj
 0001:00003d90       ??$_Convert_size@I@std@@YAII@Z 00404d90 f i datagram.obj
 0001:00003da0       ??$_Debug_lt_pred@AAU?$less@H@std@@AAHABH@std@@YA_NAAU?$less@H@0@AAHABHPB_WI@Z 00404da0 f i datagram.obj
 0001:00003e30       ??$_Debug_lt_pred@AAU?$less@H@std@@ABHABH@std@@YA_NAAU?$less@H@0@ABH1PB_WI@Z 00404e30 f i datagram.obj
 0001:00003ec0       ??$_Debug_lt_pred@ABU?$less@H@std@@ABHABH@std@@YA_NABU?$less@H@0@ABH1PB_WI@Z 00404ec0 f i datagram.obj
 0001:00003f50       ??$_Freenode0@V?$allocator@U?$_Tree_node@U?$pair@$$CBHV?$basic_string@DU?$char_traits@D@std@@V?$allocator@D@2@@std@@@std@@PAX@std@@@std@@@?$_Tree_node@U?$pair@$$CBHV?$basic_string@DU?$char_traits@D@std@@V?$allocator@D@2@@std@@@std@@PAX@std@@SAXAAV?$allocator@U?$_Tree_node@U?$pair@$$CBHV?$basic_string@DU?$char_traits@D@std@@V?$allocator@D@2@@std@@@std@@PAX@std@@@1@PAU01@@Z 00404f50 f i datagram.obj
 0001:00003ff0       ??$_Get_size_of_n@$00@std@@YAII@Z 00404ff0 f i datagram.obj
 0001:00004000       ??$_Get_size_of_n@$0DA@@std@@YAII@Z 00405000 f i datagram.obj
 0001:00004030       ??$_Insert_at@AAU?$pair@$$CBHV?$basic_string@DU?$char_traits@D@std@@V?$allocator@D@2@@std@@@std@@PAU?$_Tree_node@U?$pair@$$CBHV?$basic_string@DU?$char_traits@D@std@@V?$allocator@D@2@@std@@@std@@PAX@2@@?$_Tree@V?$_Tmap_traits@HV?$basic_string@DU?$char_traits@D@std@@V?$allocator@D@2@@std@@U?$less@H@2@V?$allocator@U?$pair@$$CBHV?$basic_string@DU?$char_traits@D@std@@V?$allocator@D@2@@std@@@std@@@2@$0A@@std@@@std@@IAE?AV?$_Tree_iterator@V?$_Tree_val@U?$_Tree_simple_types@U?$pair@$$CBHV?$basic_string@DU?$char_traits@D@std@@V?$allocator@D@2@@std@@@std@@@std@@@std@@@1@_NPAU?$_Tree_node@U?$pair@$$CBHV?$basic_string@DU?$char_traits@D@std@@V?$allocator@D@2@@std@@@std@@PAX@1@AAU?$pair@$$CBHV?$basic_string@DU?$char_traits@D@std@@V?$allocator@D@2@@std@@@1@1@Z 00405030 f i datagram.obj
 0001:000042d0       ??$_Insert_hint@AAU?$pair@$$CBHV?$basic_string@DU?$char_traits@D@std@@V?$allocator@D@2@@std@@@std@@PAU?$_Tree_node@U?$pair@$$CBHV?$basic_string@DU?$char_traits@D@std@@V?$allocator@D@2@@std@@@std@@PAX@2@@?$_Tree@V?$_Tmap_traits@HV?$basic_string@DU?$char_traits@D@std@@V?$allocator@D@2@@std@@U?$less@H@2@V?$allocator@U?$pair@$$CBHV?$basic_string@DU?$char_traits@D@std@@V?$allocator@D@2@@std@@@std@@@2@$0A@@std@@@std@@IAE?AV?$_Tree_iterator@V?$_Tree_val@U?$_Tree_simple_types@U?$pair@$$CBHV?$basic_string@DU?$char_traits@D@std@@V?$allocator@D@2@@std@@@std@@@std@@@std@@@1@V?$_Tree_const_iterator@V?$_Tree_val@U?$_Tree_simple_types@U?$pair@$$CBHV?$basic_string@DU?$char_traits@D@std@@V?$allocator@D@2@@std@@@std@@@std@@@std@@@1@AAU?$pair@$$CBHV?$basic_string@DU?$char_traits@D@std@@V?$allocator@D@2@@std@@@1@PAU?$_Tree_node@U?$pair@$$CBHV?$basic_string@DU?$char_traits@D@std@@V?$allocator@D@2@@std@@@std@@PAX@1@@Z 004052d0 f i datagram.obj
 0001:00004fe0       ??$_Insert_nohint@AAU?$pair@$$CBHV?$basic_string@DU?$char_traits@D@std@@V?$allocator@D@2@@std@@@std@@PAU?$_Tree_node@U?$pair@$$CBHV?$basic_string@DU?$char_traits@D@std@@V?$allocator@D@2@@std@@@std@@PAX@2@@?$_Tree@V?$_Tmap_traits@HV?$basic_string@DU?$char_traits@D@std@@V?$allocator@D@2@@std@@U?$less@H@2@V?$allocator@U?$pair@$$CBHV?$basic_string@DU?$char_traits@D@std@@V?$allocator@D@2@@std@@@std@@@2@$0A@@std@@@std@@IAE?AU?$pair@V?$_Tree_iterator@V?$_Tree_val@U?$_Tree_simple_types@U?$pair@$$CBHV?$basic_string@DU?$char_traits@D@std@@V?$allocator@D@2@@std@@@std@@@std@@@std@@@std@@_N@1@_NAAU?$pair@$$CBHV?$basic_string@DU?$char_traits@D@std@@V?$allocator@D@2@@std@@@1@PAU?$_Tree_node@U?$pair@$$CBHV?$basic_string@DU?$char_traits@D@std@@V?$allocator@D@2@@std@@@std@@PAX@1@@Z 00405fe0 f i datagram.obj
 0001:000053c0       ??$_Insert_string@DU?$char_traits@D@std@@I@std@@YAAAV?$basic_ostream@DU?$char_traits@D@std@@@0@AAV10@QBDI@Z 004063c0 f i datagram.obj
 0001:000056a0       ??$_Kfn@$$CBHV?$basic_string@DU?$char_traits@D@std@@V?$allocator@D@2@@std@@@?$_Tmap_traits@HV?$basic_string@DU?$char_traits@D@std@@V?$allocator@D@2@@std@@U?$less@H@2@V?$allocator@U?$pair@$$CBHV?$basic_string@DU?$char_traits@D@std@@V?$allocator@D@2@@std@@@std@@@2@$0A@@std@@SAABHABU?$pair@$$CBHV?$basic_string@DU?$char_traits@D@std@@V?$allocator@D@2@@std@@@1@@Z 004066a0 f i datagram.obj
 0001:000056b0       ??$_Lbound@H@?$_Tree@V?$_Tmap_traits@HV?$basic_string@DU?$char_traits@D@std@@V?$allocator@D@2@@std@@U?$less@H@2@V?$allocator@U?$pair@$$CBHV?$basic_string@DU?$char_traits@D@std@@V?$allocator@D@2@@std@@@std@@@2@$0A@@std@@@std@@IBEPAU?$_Tree_node@U?$pair@$$CBHV?$basic_string@DU?$char_traits@D@std@@V?$allocator@D@2@@std@@@std@@PAX@1@ABH@Z 004066b0 f i datagram.obj
 0001:00005720       ??$_Max_value@I@std@@YAABIABI0@Z 00406720 f i datagram.obj
 0001:00005750       ??$_Pocma@V?$allocator@D@std@@@std@@YAXAAV?$allocator@D@0@0@Z 00406750 f i datagram.obj
 0001:00005770       ??$_Pocma@V?$allocator@D@std@@@std@@YAXAAV?$allocator@D@0@0U?$integral_constant@_N$00@0@@Z 00406770 f i datagram.obj
 0001:00005b00       ??$_Try_emplace@H$$V@?$map@HV?$basic_string@DU?$char_traits@D@std@@V?$allocator@D@2@@std@@U?$less@H@2@V?$allocator@U?$pair@$$CBHV?$basic_string@DU?$char_traits@D@std@@V?$allocator@D@2@@std@@@std@@@2@@std@@QAE?AU?$pair@V?$_Tree_iterator@V?$_Tree_val@U?$_Tree_simple_types@U?$pair@$$CBHV?$basic_string@DU?$char_traits@D@std@@V?$allocator@D@2@@std@@@std@@@std@@@std@@@std@@_N@1@$$QAH@Z 00406b00 f i datagram.obj
 0001:00005cd0       ??$_Unfancy@D@std@@YAPADPAD@Z 00406cd0 f i datagram.obj
 0001:00005ce0       ??$addressof@$$CBU?$pair@$$CBHV?$basic_string@DU?$char_traits@D@std@@V?$allocator@D@2@@std@@@std@@@std@@YAPBU?$pair@$$CBHV?$basic_string@DU?$char_traits@D@std@@V?$allocator@D@2@@std@@@0@ABU10@@Z 00406ce0 f i datagram.obj
 0001:00005cf0       ??$addressof@$$CBV?$_Tree_val@U?$_Tree_simple_types@U?$pair@$$CBHV?$basic_string@DU?$char_traits@D@std@@V?$allocator@D@2@@std@@@std@@@std@@@std@@@std@@YAPBV?$_Tree_val@U?$_Tree_simple_types@U?$pair@$$CBHV?$basic_string@DU?$char_traits@D@std@@V?$allocator@D@2@@std@@@std@@@std@@@0@ABV10@@Z 00406cf0 f i datagram.obj
 0001:00005d00       ??$addressof@D@std@@YAPADAAD@Z 00406d00 f i datagram.obj
 0001:00005d10       ??$addressof@PAD@std@@YAPAPADAAPAD@Z 00406d10 f i datagram.obj
 0001:00005d20       ??$addressof@PAU?$_Tree_node@U?$pair@$$CBHV?$basic_string@DU?$char_traits@D@std@@V?$allocator@D@2@@std@@@std@@PAX@std@@@std@@YAPAPAU?$_Tree_node@U?$pair@$$CBHV?$basic_string@DU?$char_traits@D@std@@V?$allocator@D@2@@std@@@std@@PAX@0@AAPAU10@@Z 00406d20 f i datagram.obj
 0001:00005d30       ??$addressof@U?$pair@$$CBHV?$basic_string@DU?$char_traits@D@std@@V?$allocator@D@2@@std@@@std@@@std@@YAPAU?$pair@$$CBHV?$basic_string@DU?$char_traits@D@std@@V?$allocator@D@2@@std@@@0@AAU10@@Z 00406d30 f i datagram.obj
 0001:00005d40       ??$addressof@V?$_String_val@U?$_Simple_types@D@std@@@std@@@std@@YAPAV?$_String_val@U?$_Simple_types@D@std@@@0@AAV10@@Z 00406d40 f i datagram.obj
 0001:00005d50       ??$addressof@V?$_Tree_val@U?$_Tree_simple_types@U?$pair@$$CBHV?$basic_string@DU?$char_traits@D@std@@V?$allocator@D@2@@std@@@std@@@std@@@std@@@std@@YAPAV?$_Tree_val@U?$_Tree_simple_types@U?$pair@$$CBHV?$basic_string@DU?$char_traits@D@std@@V?$allocator@D@2@@std@@@std@@@std@@@0@AAV10@@Z 00406d50 f i datagram.obj
 0001:00005d60       ??$addressof@V?$basic_string@DU?$char_traits@D@std@@V?$allocator@D@2@@std@@@std@@YAPAV?$basic_string@DU?$char_traits@D@std@@V?$allocator@D@2@@0@AAV10@@Z 00406d60 f i datagram.obj
 0001:00005d70       ??$construct@PADABQAD@?$_Default_allocator_traits@V?$allocator@D@std@@@std@@SAXAAV?$allocator@D@1@QAPADABQAD@Z 00406d70 f i datagram.obj
 0001:00005da0       ??$construct@PAU?$_Tree_node@U?$pair@$$CBHV?$basic_string@DU?$char_traits@D@std@@V?$allocator@D@2@@std@@@std@@PAX@std@@AAPAU12@@?$_Default_allocator_traits@V?$allocator@U?$_Tree_node@U?$pair@$$CBHV?$basic_string@DU?$char_traits@D@std@@V?$allocator@D@2@@std@@@std@@PAX@std@@@std@@@std@@SAXAAV?$allocator@U?$_Tree_node@U?$pair@$$CBHV?$basic_string@DU?$char_traits@D@std@@V?$allocator@D@2@@std@@@std@@PAX@std@@@1@QAPAU?$_Tree_node@U?$pair@$$CBHV?$basic_string@DU?$char_traits@D@std@@V?$allocator@D@2@@std@@@std@@PAX@1@AAPAU31@@Z 00406da0 f i datagram.obj
 0001:00005dd0       ??$construct@U?$pair@$$CBHV?$basic_string@DU?$char_traits@D@std@@V?$allocator@D@2@@std@@@std@@ABUpiecewise_construct_t@2@V?$tuple@$$QAH@2@V?$tuple@$$V@2@@?$_Default_allocator_traits@V?$allocator@U?$_Tree_node@U?$pair@$$CBHV?$basic_string@DU?$char_traits@D@std@@V?$allocator@D@2@@std@@@std@@PAX@std@@@std@@@std@@SAXAAV?$allocator@U?$_Tree_node@U?$pair@$$CBHV?$basic_string@DU?$char_traits@D@std@@V?$allocator@D@2@@std@@@std@@PAX@std@@@1@QAU?$pair@$$CBHV?$basic_string@DU?$char_traits@D@std@@V?$allocator@D@2@@std@@@1@ABUpiecewise_construct_t@1@$$QAV?$tuple@$$QAH@1@$$QAV?$tuple@$$V@1@@Z 00406dd0 f i datagram.obj
 0001:00005e40       ??$destroy@PAD@?$_Default_allocator_traits@V?$allocator@D@std@@@std@@SAXAAV?$allocator@D@1@QAPAD@Z 00406e40 f i datagram.obj
 0001:00005e50       ??$destroy@PAU?$_Tree_node@U?$pair@$$CBHV?$basic_string@DU?$char_traits@D@std@@V?$allocator@D@2@@std@@@std@@PAX@std@@@?$_Default_allocator_traits@V?$allocator@U?$_Tree_node@U?$pair@$$CBHV?$basic_string@DU?$char_traits@D@std@@V?$allocator@D@2@@std@@@std@@PAX@std@@@std@@@std@@SAXAAV?$allocator@U?$_Tree_node@U?$pair@$$CBHV?$basic_string@DU?$char_traits@D@std@@V?$allocator@D@2@@std@@@std@@PAX@std@@@1@QAPAU?$_Tree_node@U?$pair@$$CBHV?$basic_string@DU?$char_traits@D@std@@V?$allocator@D@2@@std@@@std@@PAX@1@@Z 00406e50 f i datagram.obj
 0001:00005e60       ??$destroy@U?$pair@$$CBHV?$basic_string@DU?$char_traits@D@std@@V?$allocator@D@2@@std@@@std@@@?$_Default_allocator_traits@V?$allocator@U?$_Tree_node@U?$pair@$$CBHV?$basic_string@DU?$char_traits@D@std@@V?$allocator@D@2@@std@@@std@@PAX@std@@@std@@@std@@SAXAAV?$allocator@U?$_Tree_node@U?$pair@$$CBHV?$basic_string@DU?$char_traits@D@std@@V?$allocator@D@2@@std@@@std@@PAX@std@@@1@QAU?$pair@$$CBHV?$basic_string@DU?$char_traits@D@std@@V?$allocator@D@2@@std@@@1@@Z 00406e60 f i datagram.obj
 0001:00005e70       ??$emplace_hint@ABUpiecewise_construct_t@std@@V?$tuple@$$QAH@2@V?$tuple@$$V@2@@?$_Tree@V?$_Tmap_traits@HV?$basic_string@DU?$char_traits@D@std@@V?$allocator@D@2@@std@@U?$less@H@2@V?$allocator@U?$pair@$$CBHV?$basic_string@DU?$char_traits@D@std@@V?$allocator@D@2@@std@@@std@@@2@$0A@@std@@@std@@QAE?AV?$_Tree_iterator@V?$_Tree_val@U?$_Tree_simple_types@U?$pair@$$CBHV?$basic_string@DU?$char_traits@D@std@@V?$allocator@D@2@@std@@@std@@@std@@@std@@@1@V?$_Tree_const_iterator@V?$_Tree_val@U?$_Tree_simple_types@U?$pair@$$CBHV?$basic_string@DU?$char_traits@D@std@@V?$allocator@D@2@@std@@@std@@@std@@@std@@@1@ABUpiecewise_construct_t@1@$$QAV?$tuple@$$QAH@1@$$QAV?$tuple@$$V@1@@Z 00406e70 f i datagram.obj
 0001:00005f30       ??$forward@$$QAH@std@@YA$$QAHAAH@Z 00406f30 f i datagram.obj
 0001:00005f40       ??$forward@AAPAU?$_Tree_node@U?$pair@$$CBHV?$basic_string@DU?$char_traits@D@std@@V?$allocator@D@2@@std@@@std@@PAX@std@@@std@@YAAAPAU?$_Tree_node@U?$pair@$$CBHV?$basic_string@DU?$char_traits@D@std@@V?$allocator@D@2@@std@@@std@@PAX@0@AAPAU10@@Z 00406f40 f i datagram.obj
 0001:00005f50       ??$forward@AAPAV_Facet_base@std@@@std@@YAAAPAV_Facet_base@0@AAPAV10@@Z 00406f50 f i datagram.obj
 0001:00005f60       ??$forward@AAU?$pair@$$CBHV?$basic_string@DU?$char_traits@D@std@@V?$allocator@D@2@@std@@@std@@@std@@YAAAU?$pair@$$CBHV?$basic_string@DU?$char_traits@D@std@@V?$allocator@D@2@@std@@@0@AAU10@@Z 00406f60 f i datagram.obj
 0001:00005f70       ??$forward@AAV?$_Tree_iterator@V?$_Tree_val@U?$_Tree_simple_types@U?$pair@$$CBHV?$basic_string@DU?$char_traits@D@std@@V?$allocator@D@2@@std@@@std@@@std@@@std@@@std@@@std@@YAAAV?$_Tree_iterator@V?$_Tree_val@U?$_Tree_simple_types@U?$pair@$$CBHV?$basic_string@DU?$char_traits@D@std@@V?$allocator@D@2@@std@@@std@@@std@@@std@@@0@AAV10@@Z 00406f70 f i datagram.obj
 0001:00005f80       ??$forward@ABQAD@std@@YAABQADABQAD@Z 00406f80 f i datagram.obj
 0001:00005f90       ??$forward@ABU?$less@H@std@@@std@@YAABU?$less@H@0@ABU10@@Z 00406f90 f i datagram.obj
 0001:00005fa0       ??$forward@ABUpiecewise_construct_t@std@@@std@@YAABUpiecewise_construct_t@0@ABU10@@Z 00406fa0 f i datagram.obj
 0001:00005fb0       ??$forward@ABV?$allocator@D@std@@@std@@YAABV?$allocator@D@0@ABV10@@Z 00406fb0 f i datagram.obj
 0001:00005fc0       ??$forward@H@std@@YA$$QAHAAH@Z 00406fc0 f i datagram.obj
 0001:00005fd0       ??$forward@U_Zero_then_variadic_args_t@std@@@std@@YA$$QAU_Zero_then_variadic_args_t@0@AAU10@@Z 00406fd0 f i datagram.obj
 0001:00005fe0       ??$forward@V?$_Tree_iterator@V?$_Tree_val@U?$_Tree_simple_types@U?$pair@$$CBHV?$basic_string@DU?$char_traits@D@std@@V?$allocator@D@2@@std@@@std@@@std@@@std@@@std@@@std@@YA$$QAV?$_Tree_iterator@V?$_Tree_val@U?$_Tree_simple_types@U?$pair@$$CBHV?$basic_string@DU?$char_traits@D@std@@V?$allocator@D@2@@std@@@std@@@std@@@std@@@0@AAV10@@Z 00406fe0 f i datagram.obj
 0001:00005ff0       ??$forward@V?$allocator@D@std@@@std@@YA$$QAV?$allocator@D@0@AAV10@@Z 00406ff0 f i datagram.obj
 0001:00006000       ??$forward@V?$tuple@$$QAH@std@@@std@@YA$$QAV?$tuple@$$QAH@0@AAV10@@Z 00407000 f i datagram.obj
 0001:00006010       ??$forward@V?$tuple@$$V@std@@@std@@YA$$QAV?$tuple@$$V@0@AAV10@@Z 00407010 f i datagram.obj
 0001:00006020       ??$forward@_N@std@@YA$$QA_NAA_N@Z 00407020 f i datagram.obj
 0001:00006030       ??$forward_as_tuple@$$V@std@@YA?AV?$tuple@$$V@0@XZ 00407030 f i datagram.obj
 0001:00006040       ??$forward_as_tuple@H@std@@YA?AV?$tuple@$$QAH@0@$$QAH@Z 00407040 f i datagram.obj
 0001:00006090       ??$get@$0A@$$QAH@std@@YA$$QAH$$QAV?$tuple@$$QAH@0@@Z 00407090 f i datagram.obj
 0001:000060b0       ??$move@AAD@std@@YA$$QADAAD@Z 004070b0 f i datagram.obj
 0001:000060c0       ??$move@AAH@std@@YA$$QAHAAH@Z 004070c0 f i datagram.obj
 0001:000060d0       ??$move@AAV?$allocator@D@std@@@std@@YA$$QAV?$allocator@D@0@AAV10@@Z 004070d0 f i datagram.obj
 0001:000060e0       ??$move@AAV?$basic_istream@DU?$char_traits@D@std@@@std@@@std@@YA$$QAV?$basic_istream@DU?$char_traits@D@std@@@0@AAV10@@Z 004070e0 f i datagram.obj
 0001:000060f0       ??$move@AAV?$basic_string@DU?$char_traits@D@std@@V?$allocator@D@2@@std@@@std@@YA$$QAV?$basic_string@DU?$char_traits@D@std@@V?$allocator@D@2@@0@AAV10@@Z 004070f0 f i datagram.obj
 0001:00006100       ??$move@AAV?$tuple@$$QAH@std@@@std@@YA$$QAV?$tuple@$$QAH@0@AAV10@@Z 00407100 f i datagram.obj
 0001:00006110       ??$swap@DX@std@@YAXAAD0@Z  00407110 f i datagram.obj
 0001:00006150       ??$try_emplace@$$V@?$map@HV?$basic_string@DU?$char_traits@D@std@@V?$allocator@D@2@@std@@U?$less@H@2@V?$allocator@U?$pair@$$CBHV?$basic_string@DU?$char_traits@D@std@@V?$allocator@D@2@@std@@@std@@@2@@std@@QAE?AU?$pair@V?$_Tree_iterator@V?$_Tree_val@U?$_Tree_simple_types@U?$pair@$$CBHV?$basic_string@DU?$char_traits@D@std@@V?$allocator@D@2@@std@@@std@@@std@@@std@@@std@@_N@1@$$QAH@Z 00407150 f i datagram.obj
 0001:00006190       ??$use_facet@V?$ctype@D@std@@@std@@YAABV?$ctype@D@0@ABVlocale@0@@Z 00407190 f i datagram.obj
 0001:000062c0       ??0?$_String_alloc@U?$_String_base_types@DV?$allocator@D@std@@@std@@@std@@QAE@XZ 004072c0 f i datagram.obj
 0001:00006320       ??0?$_String_val@U?$_Simple_types@D@std@@@std@@QAE@XZ 00407320 f i datagram.obj
 0001:00006360       ??0?$_Tree@V?$_Tmap_traits@HV?$basic_string@DU?$char_traits@D@std@@V?$allocator@D@2@@std@@U?$less@H@2@V?$allocator@U?$pair@$$CBHV?$basic_string@DU?$char_traits@D@std@@V?$allocator@D@2@@std@@@std@@@2@$0A@@std@@@std@@QAE@ABU?$less@H@1@@Z 00407360 f i datagram.obj
 0001:00006380       ??0?$_Tree_comp_alloc@V?$_Tmap_traits@HV?$basic_string@DU?$char_traits@D@std@@V?$allocator@D@2@@std@@U?$less@H@2@V?$allocator@U?$pair@$$CBHV?$basic_string@DU?$char_traits@D@std@@V?$allocator@D@2@@std@@@std@@@2@$0A@@std@@@std@@QAE@ABU?$less@H@1@@Z 00407380 f i datagram.obj
 0001:000063b0       ??0?$_Tree_const_iterator@V?$_Tree_val@U?$_Tree_simple_types@U?$pair@$$CBHV?$basic_string@DU?$char_traits@D@std@@V?$allocator@D@2@@std@@@std@@@std@@@std@@@std@@QAE@$$QAV01@@Z 004073b0 f i datagram.obj
 0001:000063d0       ??0?$_Tree_const_iterator@V?$_Tree_val@U?$_Tree_simple_types@U?$pair@$$CBHV?$basic_string@DU?$char_traits@D@std@@V?$allocator@D@2@@std@@@std@@@std@@@std@@@std@@QAE@ABV01@@Z 004073d0 f i datagram.obj
 0001:000063f0       ??0?$_Tree_const_iterator@V?$_Tree_val@U?$_Tree_simple_types@U?$pair@$$CBHV?$basic_string@DU?$char_traits@D@std@@V?$allocator@D@2@@std@@@std@@@std@@@std@@@std@@QAE@PAU?$_Tree_node@U?$pair@$$CBHV?$basic_string@DU?$char_traits@D@std@@V?$allocator@D@2@@std@@@std@@PAX@1@PBV?$_Tree_val@U?$_Tree_simple_types@U?$pair@$$CBHV?$basic_string@DU?$char_traits@D@std@@V?$allocator@D@2@@std@@@std@@@std@@@1@@Z 004073f0 f i datagram.obj
 0001:00006410       ??0?$_Tree_const_iterator@V?$_Tree_val@U?$_Tree_simple_types@U?$pair@$$CBHV?$basic_string@DU?$char_traits@D@std@@V?$allocator@D@2@@std@@@std@@@std@@@std@@@std@@QAE@XZ 00407410 f i datagram.obj
 0001:00006430       ??0?$_Tree_iterator@V?$_Tree_val@U?$_Tree_simple_types@U?$pair@$$CBHV?$basic_string@DU?$char_traits@D@std@@V?$allocator@D@2@@std@@@std@@@std@@@std@@@std@@QAE@$$QAV01@@Z 00407430 f i datagram.obj
 0001:00006450       ??0?$_Tree_iterator@V?$_Tree_val@U?$_Tree_simple_types@U?$pair@$$CBHV?$basic_string@DU?$char_traits@D@std@@V?$allocator@D@2@@std@@@std@@@std@@@std@@@std@@QAE@ABV01@@Z 00407450 f i datagram.obj
 0001:00006470       ??0?$_Tree_iterator@V?$_Tree_val@U?$_Tree_simple_types@U?$pair@$$CBHV?$basic_string@DU?$char_traits@D@std@@V?$allocator@D@2@@std@@@std@@@std@@@std@@@std@@QAE@PAU?$_Tree_node@U?$pair@$$CBHV?$basic_string@DU?$char_traits@D@std@@V?$allocator@D@2@@std@@@std@@PAX@1@PBV?$_Tree_val@U?$_Tree_simple_types@U?$pair@$$CBHV?$basic_string@DU?$char_traits@D@std@@V?$allocator@D@2@@std@@@std@@@std@@@1@@Z 00407470 f i datagram.obj
 0001:00006490       ??0?$_Tree_unchecked_const_iterator@V?$_Tree_val@U?$_Tree_simple_types@U?$pair@$$CBHV?$basic_string@DU?$char_traits@D@std@@V?$allocator@D@2@@std@@@std@@@std@@@std@@U_Iterator_base12@2@@std@@QAE@$$QAV01@@Z 00407490 f i datagram.obj
 0001:000064c0       ??0?$_Tree_unchecked_const_iterator@V?$_Tree_val@U?$_Tree_simple_types@U?$pair@$$CBHV?$basic_string@DU?$char_traits@D@std@@V?$allocator@D@2@@std@@@std@@@std@@@std@@U_Iterator_base12@2@@std@@QAE@ABV01@@Z 004074c0 f i datagram.obj
 0001:000064f0       ??0?$_Tree_unchecked_const_iterator@V?$_Tree_val@U?$_Tree_simple_types@U?$pair@$$CBHV?$basic_string@DU?$char_traits@D@std@@V?$allocator@D@2@@std@@@std@@@std@@@std@@U_Iterator_base12@2@@std@@QAE@PAU?$_Tree_node@U?$pair@$$CBHV?$basic_string@DU?$char_traits@D@std@@V?$allocator@D@2@@std@@@std@@PAX@1@PBV?$_Tree_val@U?$_Tree_simple_types@U?$pair@$$CBHV?$basic_string@DU?$char_traits@D@std@@V?$allocator@D@2@@std@@@std@@@std@@@1@@Z 004074f0 f i datagram.obj
 0001:00006520       ??0?$_Tree_unchecked_const_iterator@V?$_Tree_val@U?$_Tree_simple_types@U?$pair@$$CBHV?$basic_string@DU?$char_traits@D@std@@V?$allocator@D@2@@std@@@std@@@std@@@std@@U_Iterator_base12@2@@std@@QAE@XZ 00407520 f i datagram.obj
 0001:00006540       ??0?$_Tree_val@U?$_Tree_simple_types@U?$pair@$$CBHV?$basic_string@DU?$char_traits@D@std@@V?$allocator@D@2@@std@@@std@@@std@@@std@@QAE@XZ 00407540 f i datagram.obj
 0001:00006570       ??0?$allocator@D@std@@QAE@XZ 00407570 f i datagram.obj
 0001:00006580       ??0?$allocator@U?$_Tree_node@U?$pair@$$CBHV?$basic_string@DU?$char_traits@D@std@@V?$allocator@D@2@@std@@@std@@PAX@std@@@std@@QAE@XZ 00407580 f i datagram.obj
 0001:00006590       ??0?$basic_string@DU?$char_traits@D@std@@V?$allocator@D@2@@std@@QAE@$$QAV01@@Z 00407590 f i datagram.obj
 0001:00006610       ??0?$basic_string@DU?$char_traits@D@std@@V?$allocator@D@2@@std@@QAE@ABV01@@Z 00407610 f i datagram.obj
 0001:00006690       ??0?$basic_string@DU?$char_traits@D@std@@V?$allocator@D@2@@std@@QAE@ABV01@IIABV?$allocator@D@1@@Z 00407690 f i datagram.obj
 0001:00006700       ??0?$basic_string@DU?$char_traits@D@std@@V?$allocator@D@2@@std@@QAE@QBD@Z 00407700 f i datagram.obj
 0001:00006770       ??0?$basic_string@DU?$char_traits@D@std@@V?$allocator@D@2@@std@@QAE@QBDI@Z 00407770 f i datagram.obj
 0001:000067e0       ??0?$basic_string@DU?$char_traits@D@std@@V?$allocator@D@2@@std@@QAE@XZ 004077e0 f i datagram.obj
 0001:00006830       ??0?$basic_stringbuf@DU?$char_traits@D@std@@V?$allocator@D@2@@std@@QAE@H@Z 00407830 f i datagram.obj
 0001:000068b0       ??0?$basic_stringstream@DU?$char_traits@D@std@@V?$allocator@D@2@@std@@QAE@H@Z 004078b0 f i datagram.obj
 0001:00006990       ??0?$fpos@U_Mbstatet@@@std@@QAE@_J@Z 00407990 f i datagram.obj
 0001:000069d0       ??0?$map@HV?$basic_string@DU?$char_traits@D@std@@V?$allocator@D@2@@std@@U?$less@H@2@V?$allocator@U?$pair@$$CBHV?$basic_string@DU?$char_traits@D@std@@V?$allocator@D@2@@std@@@std@@@2@@std@@QAE@XZ 004079d0 f i datagram.obj
 0001:000069f0       ??0?$tuple@$$QAH@std@@QAE@$$QAV01@@Z 004079f0 f i datagram.obj
 0001:00006a20       ??0?$tuple@$$V@std@@QAE@ABV01@@Z 00407a20 f i datagram.obj
 0001:00006a30       ??0?$tuple@$$V@std@@QAE@XZ 00407a30 f i datagram.obj
 0001:00006a40       ??0_Bxty@?$_String_val@U?$_Simple_types@D@std@@@std@@QAE@XZ 00407a40 f i datagram.obj
 0001:00006a50       ??0_Iterator_base12@std@@QAE@ABU01@@Z 00407a50 f i datagram.obj
 0001:00006a80       ??0_Iterator_base12@std@@QAE@XZ 00407a80 f i datagram.obj
 0001:00006ab0       ??0_Sentry_base@?$basic_istream@DU?$char_traits@D@std@@@std@@QAE@AAV12@@Z 00407ab0 f i datagram.obj
 0001:00006b10       ??0bad_cast@std@@QAE@ABV01@@Z 00407b10 f i datagram.obj
 0001:00006b40       ??0bad_cast@std@@QAE@XZ    00407b40 f i datagram.obj
 0001:00006b70       ??0exception@std@@QAE@ABV01@@Z 00407b70 f i datagram.obj
 0001:00006bb0       ??0exception@std@@QAE@QBDH@Z 00407bb0 f i datagram.obj
 0001:00006be0       ??0sentry@?$basic_istream@DU?$char_traits@D@std@@@std@@QAE@AAV12@_N@Z 00407be0 f i datagram.obj
 0001:00006c50       ??1?$_Compressed_pair@V?$allocator@D@std@@V?$_String_val@U?$_Simple_types@D@std@@@2@$00@std@@QAE@XZ 00407c50 f i datagram.obj
 0001:00006c70       ??1?$_String_alloc@U?$_String_base_types@DV?$allocator@D@std@@@std@@@std@@QAE@XZ 00407c70 f i datagram.obj
 0001:00006cc0       ??1?$_String_val@U?$_Simple_types@D@std@@@std@@QAE@XZ 00407cc0 f i datagram.obj
 0001:00006ce0       ??1?$_Tree@V?$_Tmap_traits@HV?$basic_string@DU?$char_traits@D@std@@V?$allocator@D@2@@std@@U?$less@H@2@V?$allocator@U?$pair@$$CBHV?$basic_string@DU?$char_traits@D@std@@V?$allocator@D@2@@std@@@std@@@2@$0A@@std@@@std@@QAE@XZ 00407ce0 f i datagram.obj
 0001:00006d30       ??1?$_Tree_comp_alloc@V?$_Tmap_traits@HV?$basic_string@DU?$char_traits@D@std@@V?$allocator@D@2@@std@@U?$less@H@2@V?$allocator@U?$pair@$$CBHV?$basic_string@DU?$char_traits@D@std@@V?$allocator@D@2@@std@@@std@@@2@$0A@@std@@@std@@QAE@XZ 00407d30 f i datagram.obj
 0001:00006d90       ??1?$_Tree_const_iterator@V?$_Tree_val@U?$_Tree_simple_types@U?$pair@$$CBHV?$basic_string@DU?$char_traits@D@std@@V?$allocator@D@2@@std@@@std@@@std@@@std@@@std@@QAE@XZ 00407d90 f i datagram.obj
 0001:00006db0       ??1?$_Tree_iterator@V?$_Tree_val@U?$_Tree_simple_types@U?$pair@$$CBHV?$basic_string@DU?$char_traits@D@std@@V?$allocator@D@2@@std@@@std@@@std@@@std@@@std@@QAE@XZ 00407db0 f i datagram.obj
 0001:00006dd0       ??1?$_Tree_unchecked_const_iterator@V?$_Tree_val@U?$_Tree_simple_types@U?$pair@$$CBHV?$basic_string@DU?$char_traits@D@std@@V?$allocator@D@2@@std@@@std@@@std@@@std@@U_Iterator_base12@2@@std@@QAE@XZ 00407dd0 f i datagram.obj
 0001:00006df0       ??1?$basic_string@DU?$char_traits@D@std@@V?$allocator@D@2@@std@@QAE@XZ 00407df0 f i datagram.obj
 0001:00006e40       ??1?$basic_stringbuf@DU?$char_traits@D@std@@V?$allocator@D@2@@std@@UAE@XZ 00407e40 f i datagram.obj
 0001:00006e90       ??1?$basic_stringstream@DU?$char_traits@D@std@@V?$allocator@D@2@@std@@UAE@XZ 00407e90 f i datagram.obj
 0001:00006ef0       ??1?$map@HV?$basic_string@DU?$char_traits@D@std@@V?$allocator@D@2@@std@@U?$less@H@2@V?$allocator@U?$pair@$$CBHV?$basic_string@DU?$char_traits@D@std@@V?$allocator@D@2@@std@@@std@@@2@@std@@QAE@XZ 00407ef0 f i datagram.obj
 0001:00006f10       ??1?$pair@$$CBHV?$basic_string@DU?$char_traits@D@std@@V?$allocator@D@2@@std@@@std@@QAE@XZ 00407f10 f i datagram.obj
 0001:00006f30       ??1?$pair@V?$_Tree_iterator@V?$_Tree_val@U?$_Tree_simple_types@U?$pair@$$CBHV?$basic_string@DU?$char_traits@D@std@@V?$allocator@D@2@@std@@@std@@@std@@@std@@@std@@_N@std@@QAE@XZ 00407f30 f i datagram.obj
 0001:00006f50       ??1?$unique_ptr@V_Facet_base@std@@U?$default_delete@V_Facet_base@std@@@2@@std@@QAE@XZ 00407f50 f i datagram.obj
 0001:00006f80       ??1_Bxty@?$_String_val@U?$_Simple_types@D@std@@@std@@QAE@XZ 00407f80 f i datagram.obj
 0001:00006f90       ??1_Iterator_base12@std@@QAE@XZ 00407f90 f i datagram.obj
 0001:00006ff0       ??1_Sentry_base@?$basic_istream@DU?$char_traits@D@std@@@std@@QAE@XZ 00407ff0 f i datagram.obj
 0001:00007070       ??1bad_cast@std@@UAE@XZ    00408070 f i datagram.obj
 0001:00007090       ??1exception@std@@UAE@XZ   00408090 f i datagram.obj
 0001:000070c0       ??1locale@std@@QAE@XZ      004080c0 f i datagram.obj
 0001:00007140       ??1sentry@?$basic_istream@DU?$char_traits@D@std@@@std@@QAE@XZ 00408140 f i datagram.obj
 0001:00007160       ??4?$_Tree_const_iterator@V?$_Tree_val@U?$_Tree_simple_types@U?$pair@$$CBHV?$basic_string@DU?$char_traits@D@std@@V?$allocator@D@2@@std@@@std@@@std@@@std@@@std@@QAEAAV01@ABV01@@Z 00408160 f i datagram.obj
 0001:00007180       ??4?$_Tree_unchecked_const_iterator@V?$_Tree_val@U?$_Tree_simple_types@U?$pair@$$CBHV?$basic_string@DU?$char_traits@D@std@@V?$allocator@D@2@@std@@@std@@@std@@@std@@U_Iterator_base12@2@@std@@QAEAAV01@ABV01@@Z 00408180 f i datagram.obj
 0001:000071b0       ??4?$basic_string@DU?$char_traits@D@std@@V?$allocator@D@2@@std@@QAEAAV01@$$QAV01@@Z 004081b0 f i datagram.obj
 0001:00007240       ??4?$basic_string@DU?$char_traits@D@std@@V?$allocator@D@2@@std@@QAEAAV01@QBD@Z 00408240 f i datagram.obj
 0001:00007260       ??4_Iterator_base12@std@@QAEAAU01@ABU01@@Z 00408260 f i datagram.obj
 0001:000072e0       ??8?$_Tree_const_iterator@V?$_Tree_val@U?$_Tree_simple_types@U?$pair@$$CBHV?$basic_string@DU?$char_traits@D@std@@V?$allocator@D@2@@std@@@std@@@std@@@std@@@std@@QBE_NABV01@@Z 004082e0 f i datagram.obj
 0001:00007360       ??9?$_Tree_const_iterator@V?$_Tree_val@U?$_Tree_simple_types@U?$pair@$$CBHV?$basic_string@DU?$char_traits@D@std@@V?$allocator@D@2@@std@@@std@@@std@@@std@@@std@@QBE_NABV01@@Z 00408360 f i datagram.obj
 0001:000073a0       ??A?$XsArrayImpl@E$1?g_xsByteArrayDescriptor@@3UXsArrayDescriptor@@BUXsByteArray@@@@QBEAAEI@Z 004083a0 f i datagram.obj
 0001:000073c0       ??A?$map@HV?$basic_string@DU?$char_traits@D@std@@V?$allocator@D@2@@std@@U?$less@H@2@V?$allocator@U?$pair@$$CBHV?$basic_string@DU?$char_traits@D@std@@V?$allocator@D@2@@std@@@std@@@2@@std@@QAEAAV?$basic_string@DU?$char_traits@D@std@@V?$allocator@D@2@@1@$$QAH@Z 004083c0 f i datagram.obj
 0001:00007450       ??B?$fpos@U_Mbstatet@@@std@@QBE_JXZ 00408450 f i datagram.obj
 0001:00007480       ??Bsentry@?$basic_istream@DU?$char_traits@D@std@@@std@@QBE_NXZ 00408480 f i datagram.obj
 0001:000074a0       ??C?$_Tree_const_iterator@V?$_Tree_val@U?$_Tree_simple_types@U?$pair@$$CBHV?$basic_string@DU?$char_traits@D@std@@V?$allocator@D@2@@std@@@std@@@std@@@std@@@std@@QBEPBU?$pair@$$CBHV?$basic_string@DU?$char_traits@D@std@@V?$allocator@D@2@@std@@@1@XZ 004084a0 f i datagram.obj
 0001:000074c0       ??C?$_Tree_iterator@V?$_Tree_val@U?$_Tree_simple_types@U?$pair@$$CBHV?$basic_string@DU?$char_traits@D@std@@V?$allocator@D@2@@std@@@std@@@std@@@std@@@std@@QBEPAU?$pair@$$CBHV?$basic_string@DU?$char_traits@D@std@@V?$allocator@D@2@@std@@@1@XZ 004084c0 f i datagram.obj
 0001:000074e0       ??D?$_Tree_const_iterator@V?$_Tree_val@U?$_Tree_simple_types@U?$pair@$$CBHV?$basic_string@DU?$char_traits@D@std@@V?$allocator@D@2@@std@@@std@@@std@@@std@@@std@@QBEABU?$pair@$$CBHV?$basic_string@DU?$char_traits@D@std@@V?$allocator@D@2@@std@@@1@XZ 004084e0 f i datagram.obj
 0001:00007560       ??D?$_Tree_iterator@V?$_Tree_val@U?$_Tree_simple_types@U?$pair@$$CBHV?$basic_string@DU?$char_traits@D@std@@V?$allocator@D@2@@std@@@std@@@std@@@std@@@std@@QBEAAU?$pair@$$CBHV?$basic_string@DU?$char_traits@D@std@@V?$allocator@D@2@@std@@@1@XZ 00408560 f i datagram.obj
 0001:00007580       ??E?$_Tree_const_iterator@V?$_Tree_val@U?$_Tree_simple_types@U?$pair@$$CBHV?$basic_string@DU?$char_traits@D@std@@V?$allocator@D@2@@std@@@std@@@std@@@std@@@std@@QAE?AV01@H@Z 00408580 f i datagram.obj
 0001:00007610       ??E?$_Tree_const_iterator@V?$_Tree_val@U?$_Tree_simple_types@U?$pair@$$CBHV?$basic_string@DU?$char_traits@D@std@@V?$allocator@D@2@@std@@@std@@@std@@@std@@@std@@QAEAAV01@XZ 00408610 f i datagram.obj
 0001:00007680       ??E?$_Tree_unchecked_const_iterator@V?$_Tree_val@U?$_Tree_simple_types@U?$pair@$$CBHV?$basic_string@DU?$char_traits@D@std@@V?$allocator@D@2@@std@@@std@@@std@@@std@@U_Iterator_base12@2@@std@@QAEAAV01@XZ 00408680 f i datagram.obj
 0001:00007710       ??F?$_Tree_const_iterator@V?$_Tree_val@U?$_Tree_simple_types@U?$pair@$$CBHV?$basic_string@DU?$char_traits@D@std@@V?$allocator@D@2@@std@@@std@@@std@@@std@@@std@@QAEAAV01@XZ 00408710 f i datagram.obj
 0001:000077c0       ??F?$_Tree_iterator@V?$_Tree_val@U?$_Tree_simple_types@U?$pair@$$CBHV?$basic_string@DU?$char_traits@D@std@@V?$allocator@D@2@@std@@@std@@@std@@@std@@@std@@QAEAAV01@XZ 004087c0 f i datagram.obj
 0001:000077e0       ??F?$_Tree_unchecked_const_iterator@V?$_Tree_val@U?$_Tree_simple_types@U?$pair@$$CBHV?$basic_string@DU?$char_traits@D@std@@V?$allocator@D@2@@std@@@std@@@std@@@std@@U_Iterator_base12@2@@std@@QAEAAV01@XZ 004087e0 f i datagram.obj
 0001:00007980       ??R?$default_delete@V_Facet_base@std@@@std@@QBEXPAV_Facet_base@1@@Z 00408980 f i datagram.obj
 0001:000079c0       ??R?$less@H@std@@QBE_NABH0@Z 004089c0 f i datagram.obj
 0001:000079f0       ??_D?$basic_stringstream@DU?$char_traits@D@std@@V?$allocator@D@2@@std@@QAEXXZ 004089f0 f i datagram.obj
 0001:00007a12       ??_E?$basic_stringstream@DU?$char_traits@D@std@@V?$allocator@D@2@@std@@$4PPPPPPPM@A@AEPAXI@Z 00408a12 f i datagram.obj
 0001:00007a20       ??_G?$basic_stringbuf@DU?$char_traits@D@std@@V?$allocator@D@2@@std@@UAEPAXI@Z 00408a20 f i datagram.obj
 0001:00007a20       ??_E?$basic_stringbuf@DU?$char_traits@D@std@@V?$allocator@D@2@@std@@UAEPAXI@Z 00408a20 f i datagram.obj
 0001:00007a50       ??_G?$basic_stringstream@DU?$char_traits@D@std@@V?$allocator@D@2@@std@@UAEPAXI@Z 00408a50 f i datagram.obj
 0001:00007a50       ??_E?$basic_stringstream@DU?$char_traits@D@std@@V?$allocator@D@2@@std@@UAEPAXI@Z 00408a50 f i datagram.obj
 0001:00007a90       ??_G?$pair@$$CBHV?$basic_string@DU?$char_traits@D@std@@V?$allocator@D@2@@std@@@std@@QAEPAXI@Z 00408a90 f i datagram.obj
 0001:00007ac0       ??_Gbad_cast@std@@UAEPAXI@Z 00408ac0 f i datagram.obj
 0001:00007ac0       ??_Ebad_cast@std@@UAEPAXI@Z 00408ac0 f i datagram.obj
 0001:00007af0       ??_Eexception@std@@UAEPAXI@Z 00408af0 f i datagram.obj
 0001:00007af0       ??_Gexception@std@@UAEPAXI@Z 00408af0 f i datagram.obj
 0001:00007b20       ?_Adopt@_Iterator_base12@std@@QAEXPBU_Container_base12@2@@Z 00408b20 f i datagram.obj
 0001:00007bd0       ?_Alloc_proxy@?$_String_alloc@U?$_String_base_types@DV?$allocator@D@std@@@std@@@std@@QAEXXZ 00408bd0 f i datagram.obj
 0001:00007c50       ?_Alloc_proxy@?$_Tree_comp_alloc@V?$_Tmap_traits@HV?$basic_string@DU?$char_traits@D@std@@V?$allocator@D@2@@std@@U?$less@H@2@V?$allocator@U?$pair@$$CBHV?$basic_string@DU?$char_traits@D@std@@V?$allocator@D@2@@std@@@std@@@2@$0A@@std@@@std@@QAEXXZ 00408c50 f i datagram.obj
 0001:00007cd0       ?_Assign_rv_contents@?$basic_string@DU?$char_traits@D@std@@V?$allocator@D@2@@std@@QAEX$$QAV12@U?$integral_constant@_N$00@2@@Z 00408cd0 f i datagram.obj
 0001:00007d00       ?_Assign_rv_contents_with_alloc_always_equal@?$basic_string@DU?$char_traits@D@std@@V?$allocator@D@2@@std@@QAEX$$QAV12@U?$integral_constant@_N$00@2@@Z 00408d00 f i datagram.obj
 0001:00007db0       ?_Buyheadnode@?$_Tree_comp_alloc@V?$_Tmap_traits@HV?$basic_string@DU?$char_traits@D@std@@V?$allocator@D@2@@std@@U?$less@H@2@V?$allocator@U?$pair@$$CBHV?$basic_string@DU?$char_traits@D@std@@V?$allocator@D@2@@std@@@std@@@2@$0A@@std@@@std@@QAEPAU?$_Tree_node@U?$pair@$$CBHV?$basic_string@DU?$char_traits@D@std@@V?$allocator@D@2@@std@@@std@@PAX@2@XZ 00408db0 f i datagram.obj
 0001:00007eb0       ?_Buynode0@?$_Tree_comp_alloc@V?$_Tmap_traits@HV?$basic_string@DU?$char_traits@D@std@@V?$allocator@D@2@@std@@U?$less@H@2@V?$allocator@U?$pair@$$CBHV?$basic_string@DU?$char_traits@D@std@@V?$allocator@D@2@@std@@@std@@@2@$0A@@std@@@std@@QAEPAU?$_Tree_node@U?$pair@$$CBHV?$basic_string@DU?$char_traits@D@std@@V?$allocator@D@2@@std@@@std@@PAX@2@XZ 00408eb0 f i datagram.obj
 0001:00007fc0       ?_Calculate_growth@?$basic_string@DU?$char_traits@D@std@@V?$allocator@D@2@@std@@QBEII@Z 00408fc0 f i datagram.obj
 0001:00008040       ?_Check_offset@?$_String_val@U?$_Simple_types@D@std@@@std@@QBEXI@Z 00409040 f i datagram.obj
 0001:00008060       ?_Clamp_suffix_size@?$_String_val@U?$_Simple_types@D@std@@@std@@QBEIII@Z 00409060 f i datagram.obj
 0001:00008090       ?_Compare@?$_Tree@V?$_Tmap_traits@HV?$basic_string@DU?$char_traits@D@std@@V?$allocator@D@2@@std@@U?$less@H@2@V?$allocator@U?$pair@$$CBHV?$basic_string@DU?$char_traits@D@std@@V?$allocator@D@2@@std@@@std@@@2@$0A@@std@@@std@@IBE_NABH0@Z 00409090 f i datagram.obj
 0001:000080c0       ?_Construct@?$_Tree_comp_alloc@V?$_Tmap_traits@HV?$basic_string@DU?$char_traits@D@std@@V?$allocator@D@2@@std@@U?$less@H@2@V?$allocator@U?$pair@$$CBHV?$basic_string@DU?$char_traits@D@std@@V?$allocator@D@2@@std@@@std@@@2@$0A@@std@@@std@@QAEXXZ 004090c0 f i datagram.obj
 0001:00008160       ?_Construct_lv_contents@?$basic_string@DU?$char_traits@D@std@@V?$allocator@D@2@@std@@QAEXABV12@@Z 00409160 f i datagram.obj
 0001:00008270       ?_Destroy_if_node@?$_Tree@V?$_Tmap_traits@HV?$basic_string@DU?$char_traits@D@std@@V?$allocator@D@2@@std@@U?$less@H@2@V?$allocator@U?$pair@$$CBHV?$basic_string@DU?$char_traits@D@std@@V?$allocator@D@2@@std@@@std@@@2@$0A@@std@@@std@@IAEXPAU?$_Tree_node@U?$pair@$$CBHV?$basic_string@DU?$char_traits@D@std@@V?$allocator@D@2@@std@@@std@@PAX@2@@Z 00409270 f i datagram.obj
 0001:000082c0       ?_Eos@?$basic_string@DU?$char_traits@D@std@@V?$allocator@D@2@@std@@QAEXI@Z 004092c0 f i datagram.obj
 0001:00008300       ?_Erase@?$_Tree@V?$_Tmap_traits@HV?$basic_string@DU?$char_traits@D@std@@V?$allocator@D@2@@std@@U?$less@H@2@V?$allocator@U?$pair@$$CBHV?$basic_string@DU?$char_traits@D@std@@V?$allocator@D@2@@std@@@std@@@2@$0A@@std@@@std@@IAEXPAU?$_Tree_node@U?$pair@$$CBHV?$basic_string@DU?$char_traits@D@std@@V?$allocator@D@2@@std@@@std@@PAX@2@@Z 00409300 f i datagram.obj
 0001:00008380       ?_Extract@?$_Tree_val@U?$_Tree_simple_types@U?$pair@$$CBHV?$basic_string@DU?$char_traits@D@std@@V?$allocator@D@2@@std@@@std@@@std@@@std@@QAEPAU?$_Tree_node@U?$pair@$$CBHV?$basic_string@DU?$char_traits@D@std@@V?$allocator@D@2@@std@@@std@@PAX@2@V?$_Tree_const_iterator@V?$_Tree_val@U?$_Tree_simple_types@U?$pair@$$CBHV?$basic_string@DU?$char_traits@D@std@@V?$allocator@D@2@@std@@@std@@@std@@@std@@@2@@Z 00409380 f i datagram.obj
 0001:00008850       ?_Free_proxy@?$_String_alloc@U?$_String_base_types@DV?$allocator@D@std@@@std@@@std@@QAEXXZ 00409850 f i datagram.obj
 0001:000088c0       ?_Free_proxy@?$_Tree_comp_alloc@V?$_Tmap_traits@HV?$basic_string@DU?$char_traits@D@std@@V?$allocator@D@2@@std@@U?$less@H@2@V?$allocator@U?$pair@$$CBHV?$basic_string@DU?$char_traits@D@std@@V?$allocator@D@2@@std@@@std@@@2@$0A@@std@@@std@@QAEXXZ 004098c0 f i datagram.obj
 0001:00008930       ?_Freeheadnode@?$_Tree_comp_alloc@V?$_Tmap_traits@HV?$basic_string@DU?$char_traits@D@std@@V?$allocator@D@2@@std@@U?$less@H@2@V?$allocator@U?$pair@$$CBHV?$basic_string@DU?$char_traits@D@std@@V?$allocator@D@2@@std@@@std@@@2@$0A@@std@@@std@@QAEXPAU?$_Tree_node@U?$pair@$$CBHV?$basic_string@DU?$char_traits@D@std@@V?$allocator@D@2@@std@@@std@@PAX@2@@Z 00409930 f i datagram.obj
 0001:00008960       ?_Freenode0@?$_Tree_comp_alloc@V?$_Tmap_traits@HV?$basic_string@DU?$char_traits@D@std@@V?$allocator@D@2@@std@@U?$less@H@2@V?$allocator@U?$pair@$$CBHV?$basic_string@DU?$char_traits@D@std@@V?$allocator@D@2@@std@@@std@@@2@$0A@@std@@@std@@QAEXPAU?$_Tree_node@U?$pair@$$CBHV?$basic_string@DU?$char_traits@D@std@@V?$allocator@D@2@@std@@@std@@PAX@2@@Z 00409960 f i datagram.obj
 0001:00008990       ?_Get_data@?$_String_alloc@U?$_String_base_types@DV?$allocator@D@std@@@std@@@std@@QAEAAV?$_String_val@U?$_Simple_types@D@std@@@2@XZ 00409990 f i datagram.obj
 0001:000089b0       ?_Get_data@?$_String_alloc@U?$_String_base_types@DV?$allocator@D@std@@@std@@@std@@QBEABV?$_String_val@U?$_Simple_types@D@std@@@2@XZ 004099b0 f i datagram.obj
 0001:000089d0       ?_Get_data@?$_Tree_comp_alloc@V?$_Tmap_traits@HV?$basic_string@DU?$char_traits@D@std@@V?$allocator@D@2@@std@@U?$less@H@2@V?$allocator@U?$pair@$$CBHV?$basic_string@DU?$char_traits@D@std@@V?$allocator@D@2@@std@@@std@@@2@$0A@@std@@@std@@QAEAAV?$_Tree_val@U?$_Tree_simple_types@U?$pair@$$CBHV?$basic_string@DU?$char_traits@D@std@@V?$allocator@D@2@@std@@@std@@@std@@@2@XZ 004099d0 f i datagram.obj
 0001:000089f0       ?_Get_data@?$_Tree_comp_alloc@V?$_Tmap_traits@HV?$basic_string@DU?$char_traits@D@std@@V?$allocator@D@2@@std@@U?$less@H@2@V?$allocator@U?$pair@$$CBHV?$basic_string@DU?$char_traits@D@std@@V?$allocator@D@2@@std@@@std@@@2@$0A@@std@@@std@@QBEABV?$_Tree_val@U?$_Tree_simple_types@U?$pair@$$CBHV?$basic_string@DU?$char_traits@D@std@@V?$allocator@D@2@@std@@@std@@@std@@@2@XZ 004099f0 f i datagram.obj
 0001:00008a10       ?_Get_first@?$_Compressed_pair@U?$default_delete@V_Facet_base@std@@@std@@PAV_Facet_base@2@$00@std@@QAEAAU?$default_delete@V_Facet_base@std@@@2@XZ 00409a10 f i datagram.obj
 0001:00008a20       ?_Get_first@?$_Compressed_pair@U?$less@H@std@@V?$_Compressed_pair@V?$allocator@U?$_Tree_node@U?$pair@$$CBHV?$basic_string@DU?$char_traits@D@std@@V?$allocator@D@2@@std@@@std@@PAX@std@@@std@@V?$_Tree_val@U?$_Tree_simple_types@U?$pair@$$CBHV?$basic_string@DU?$char_traits@D@std@@V?$allocator@D@2@@std@@@std@@@std@@@2@$00@2@$00@std@@QAEAAU?$less@H@2@XZ 00409a20 f i datagram.obj
 0001:00008a30       ?_Get_first@?$_Compressed_pair@U?$less@H@std@@V?$_Compressed_pair@V?$allocator@U?$_Tree_node@U?$pair@$$CBHV?$basic_string@DU?$char_traits@D@std@@V?$allocator@D@2@@std@@@std@@PAX@std@@@std@@V?$_Tree_val@U?$_Tree_simple_types@U?$pair@$$CBHV?$basic_string@DU?$char_traits@D@std@@V?$allocator@D@2@@std@@@std@@@std@@@2@$00@2@$00@std@@QBEABU?$less@H@2@XZ 00409a30 f i datagram.obj
 0001:00008a40       ?_Get_first@?$_Compressed_pair@V?$allocator@D@std@@V?$_String_val@U?$_Simple_types@D@std@@@2@$00@std@@QAEAAV?$allocator@D@2@XZ 00409a40 f i datagram.obj
 0001:00008a50       ?_Get_first@?$_Compressed_pair@V?$allocator@D@std@@V?$_String_val@U?$_Simple_types@D@std@@@2@$00@std@@QBEABV?$allocator@D@2@XZ 00409a50 f i datagram.obj
 0001:00008a60       ?_Get_first@?$_Compressed_pair@V?$allocator@U?$_Tree_node@U?$pair@$$CBHV?$basic_string@DU?$char_traits@D@std@@V?$allocator@D@2@@std@@@std@@PAX@std@@@std@@V?$_Tree_val@U?$_Tree_simple_types@U?$pair@$$CBHV?$basic_string@DU?$char_traits@D@std@@V?$allocator@D@2@@std@@@std@@@std@@@2@$00@std@@QAEAAV?$allocator@U?$_Tree_node@U?$pair@$$CBHV?$basic_string@DU?$char_traits@D@std@@V?$allocator@D@2@@std@@@std@@PAX@std@@@2@XZ 00409a60 f i datagram.obj
 0001:00008a70       ?_Get_first@?$_Compressed_pair@V?$allocator@U?$_Tree_node@U?$pair@$$CBHV?$basic_string@DU?$char_traits@D@std@@V?$allocator@D@2@@std@@@std@@PAX@std@@@std@@V?$_Tree_val@U?$_Tree_simple_types@U?$pair@$$CBHV?$basic_string@DU?$char_traits@D@std@@V?$allocator@D@2@@std@@@std@@@std@@@2@$00@std@@QBEABV?$allocator@U?$_Tree_node@U?$pair@$$CBHV?$basic_string@DU?$char_traits@D@std@@V?$allocator@D@2@@std@@@std@@PAX@std@@@2@XZ 00409a70 f i datagram.obj
 0001:00008a80       ?_Get_second@?$_Compressed_pair@U?$default_delete@V_Facet_base@std@@@std@@PAV_Facet_base@2@$00@std@@QAEAAPAV_Facet_base@2@XZ 00409a80 f i datagram.obj
 0001:00008a90       ?_Get_second@?$_Compressed_pair@U?$default_delete@V_Facet_base@std@@@std@@PAV_Facet_base@2@$00@std@@QBEABQAV_Facet_base@2@XZ 00409a90 f i datagram.obj
 0001:00008aa0       ?_Get_second@?$_Compressed_pair@U?$less@H@std@@V?$_Compressed_pair@V?$allocator@U?$_Tree_node@U?$pair@$$CBHV?$basic_string@DU?$char_traits@D@std@@V?$allocator@D@2@@std@@@std@@PAX@std@@@std@@V?$_Tree_val@U?$_Tree_simple_types@U?$pair@$$CBHV?$basic_string@DU?$char_traits@D@std@@V?$allocator@D@2@@std@@@std@@@std@@@2@$00@2@$00@std@@QAEAAV?$_Compressed_pair@V?$allocator@U?$_Tree_node@U?$pair@$$CBHV?$basic_string@DU?$char_traits@D@std@@V?$allocator@D@2@@std@@@std@@PAX@std@@@std@@V?$_Tree_val@U?$_Tree_simple_types@U?$pair@$$CBHV?$basic_string@DU?$char_traits@D@std@@V?$allocator@D@2@@std@@@std@@@std@@@2@$00@2@XZ 00409aa0 f i datagram.obj
 0001:00008ab0       ?_Get_second@?$_Compressed_pair@U?$less@H@std@@V?$_Compressed_pair@V?$allocator@U?$_Tree_node@U?$pair@$$CBHV?$basic_string@DU?$char_traits@D@std@@V?$allocator@D@2@@std@@@std@@PAX@std@@@std@@V?$_Tree_val@U?$_Tree_simple_types@U?$pair@$$CBHV?$basic_string@DU?$char_traits@D@std@@V?$allocator@D@2@@std@@@std@@@std@@@2@$00@2@$00@std@@QBEABV?$_Compressed_pair@V?$allocator@U?$_Tree_node@U?$pair@$$CBHV?$basic_string@DU?$char_traits@D@std@@V?$allocator@D@2@@std@@@std@@PAX@std@@@std@@V?$_Tree_val@U?$_Tree_simple_types@U?$pair@$$CBHV?$basic_string@DU?$char_traits@D@std@@V?$allocator@D@2@@std@@@std@@@std@@@2@$00@2@XZ 00409ab0 f i datagram.obj
 0001:00008ac0       ?_Get_second@?$_Compressed_pair@V?$allocator@D@std@@V?$_String_val@U?$_Simple_types@D@std@@@2@$00@std@@QAEAAV?$_String_val@U?$_Simple_types@D@std@@@2@XZ 00409ac0 f i datagram.obj
 0001:00008ad0       ?_Get_second@?$_Compressed_pair@V?$allocator@D@std@@V?$_String_val@U?$_Simple_types@D@std@@@2@$00@std@@QBEABV?$_String_val@U?$_Simple_types@D@std@@@2@XZ 00409ad0 f i datagram.obj
 0001:00008ae0       ?_Get_second@?$_Compressed_pair@V?$allocator@U?$_Tree_node@U?$pair@$$CBHV?$basic_string@DU?$char_traits@D@std@@V?$allocator@D@2@@std@@@std@@PAX@std@@@std@@V?$_Tree_val@U?$_Tree_simple_types@U?$pair@$$CBHV?$basic_string@DU?$char_traits@D@std@@V?$allocator@D@2@@std@@@std@@@std@@@2@$00@std@@QAEAAV?$_Tree_val@U?$_Tree_simple_types@U?$pair@$$CBHV?$basic_string@DU?$char_traits@D@std@@V?$allocator@D@2@@std@@@std@@@std@@@2@XZ 00409ae0 f i datagram.obj
 0001:00008af0       ?_Get_second@?$_Compressed_pair@V?$allocator@U?$_Tree_node@U?$pair@$$CBHV?$basic_string@DU?$char_traits@D@std@@V?$allocator@D@2@@std@@@std@@PAX@std@@@std@@V?$_Tree_val@U?$_Tree_simple_types@U?$pair@$$CBHV?$basic_string@DU?$char_traits@D@std@@V?$allocator@D@2@@std@@@std@@@std@@@2@$00@std@@QBEABV?$_Tree_val@U?$_Tree_simple_types@U?$pair@$$CBHV?$basic_string@DU?$char_traits@D@std@@V?$allocator@D@2@@std@@@std@@@std@@@2@XZ 00409af0 f i datagram.obj
 0001:00008b00       ?_Getal@?$_String_alloc@U?$_String_base_types@DV?$allocator@D@std@@@std@@@std@@QAEAAV?$allocator@D@2@XZ 00409b00 f i datagram.obj
 0001:00008b20       ?_Getal@?$_String_alloc@U?$_String_base_types@DV?$allocator@D@std@@@std@@@std@@QBEABV?$allocator@D@2@XZ 00409b20 f i datagram.obj
 0001:00008b40       ?_Getal@?$_Tree_comp_alloc@V?$_Tmap_traits@HV?$basic_string@DU?$char_traits@D@std@@V?$allocator@D@2@@std@@U?$less@H@2@V?$allocator@U?$pair@$$CBHV?$basic_string@DU?$char_traits@D@std@@V?$allocator@D@2@@std@@@std@@@2@$0A@@std@@@std@@QAEAAV?$allocator@U?$_Tree_node@U?$pair@$$CBHV?$basic_string@DU?$char_traits@D@std@@V?$allocator@D@2@@std@@@std@@PAX@std@@@2@XZ 00409b40 f i datagram.obj
 0001:00008b60       ?_Getal@?$_Tree_comp_alloc@V?$_Tmap_traits@HV?$basic_string@DU?$char_traits@D@std@@V?$allocator@D@2@@std@@U?$less@H@2@V?$allocator@U?$pair@$$CBHV?$basic_string@DU?$char_traits@D@std@@V?$allocator@D@2@@std@@@std@@@2@$0A@@std@@@std@@QBEABV?$allocator@U?$_Tree_node@U?$pair@$$CBHV?$basic_string@DU?$char_traits@D@std@@V?$allocator@D@2@@std@@@std@@PAX@std@@@2@XZ 00409b60 f i datagram.obj
 0001:00008b80       ?_Getcomp@?$_Tree_comp_alloc@V?$_Tmap_traits@HV?$basic_string@DU?$char_traits@D@std@@V?$allocator@D@2@@std@@U?$less@H@2@V?$allocator@U?$pair@$$CBHV?$basic_string@DU?$char_traits@D@std@@V?$allocator@D@2@@std@@@std@@@2@$0A@@std@@@std@@QAEAAU?$less@H@2@XZ 00409b80 f i datagram.obj
 0001:00008ba0       ?_Getcomp@?$_Tree_comp_alloc@V?$_Tmap_traits@HV?$basic_string@DU?$char_traits@D@std@@V?$allocator@D@2@@std@@U?$less@H@2@V?$allocator@U?$pair@$$CBHV?$basic_string@DU?$char_traits@D@std@@V?$allocator@D@2@@std@@@std@@@2@$0A@@std@@@std@@QBEABU?$less@H@2@XZ 00409ba0 f i datagram.obj
 0001:00008bc0       ?_Getcont@_Iterator_base12@std@@QBEPBU_Container_base12@2@XZ 00409bc0 f i datagram.obj
 0001:00008bf0       ?_Getfacet@locale@std@@QBEPBVfacet@12@I@Z 00409bf0 f i datagram.obj
 0001:00008c80       ?_Getpfirst@?$_Tree_comp_alloc@V?$_Tmap_traits@HV?$basic_string@DU?$char_traits@D@std@@V?$allocator@D@2@@std@@U?$less@H@2@V?$allocator@U?$pair@$$CBHV?$basic_string@DU?$char_traits@D@std@@V?$allocator@D@2@@std@@@std@@@2@$0A@@std@@@std@@QBEPAPAU_Iterator_base12@2@XZ 00409c80 f i datagram.obj
 0001:00008ca0       ?_Getstate@?$basic_stringbuf@DU?$char_traits@D@std@@V?$allocator@D@2@@std@@AAEHH@Z 00409ca0 f i datagram.obj
 0001:00008d00       ?_Init@?$basic_stringbuf@DU?$char_traits@D@std@@V?$allocator@D@2@@std@@IAEXPBDIH@Z 00409d00 f i datagram.obj
 0001:00008e10       ?_Key@?$_Tree@V?$_Tmap_traits@HV?$basic_string@DU?$char_traits@D@std@@V?$allocator@D@2@@std@@U?$less@H@2@V?$allocator@U?$pair@$$CBHV?$basic_string@DU?$char_traits@D@std@@V?$allocator@D@2@@std@@@std@@@2@$0A@@std@@@std@@IBEABHPAU?$_Tree_node@U?$pair@$$CBHV?$basic_string@DU?$char_traits@D@std@@V?$allocator@D@2@@std@@@std@@PAX@2@@Z 00409e10 f i datagram.obj
 0001:00008e30       ?_Kfn@?$_Tree@V?$_Tmap_traits@HV?$basic_string@DU?$char_traits@D@std@@V?$allocator@D@2@@std@@U?$less@H@2@V?$allocator@U?$pair@$$CBHV?$basic_string@DU?$char_traits@D@std@@V?$allocator@D@2@@std@@@std@@@2@$0A@@std@@@std@@IBEABHABU?$pair@$$CBHV?$basic_string@DU?$char_traits@D@std@@V?$allocator@D@2@@std@@@2@@Z 00409e30 f i datagram.obj
 0001:00008e50       ?_Large_string_engaged@?$_String_val@U?$_Simple_types@D@std@@@std@@QBE_NXZ 00409e50 f i datagram.obj
 0001:00008e80       ?_Lmost@?$_Tree_val@U?$_Tree_simple_types@U?$pair@$$CBHV?$basic_string@DU?$char_traits@D@std@@V?$allocator@D@2@@std@@@std@@@std@@@std@@QBEAAPAU?$_Tree_node@U?$pair@$$CBHV?$basic_string@DU?$char_traits@D@std@@V?$allocator@D@2@@std@@@std@@PAX@2@XZ 00409e80 f i datagram.obj
 0001:00008ea0       ?_Lrotate@?$_Tree_val@U?$_Tree_simple_types@U?$pair@$$CBHV?$basic_string@DU?$char_traits@D@std@@V?$allocator@D@2@@std@@@std@@@std@@@std@@QAEXPAU?$_Tree_node@U?$pair@$$CBHV?$basic_string@DU?$char_traits@D@std@@V?$allocator@D@2@@std@@@std@@PAX@2@@Z 00409ea0 f i datagram.obj
 0001:00008f40       ?_Max@?$_Tree_val@U?$_Tree_simple_types@U?$pair@$$CBHV?$basic_string@DU?$char_traits@D@std@@V?$allocator@D@2@@std@@@std@@@std@@@std@@SAPAU?$_Tree_node@U?$pair@$$CBHV?$basic_string@DU?$char_traits@D@std@@V?$allocator@D@2@@std@@@std@@PAX@2@PAU32@@Z 00409f40 f i datagram.obj
 0001:00008f70       ?_Min@?$_Tree_val@U?$_Tree_simple_types@U?$pair@$$CBHV?$basic_string@DU?$char_traits@D@std@@V?$allocator@D@2@@std@@@std@@@std@@@std@@SAPAU?$_Tree_node@U?$pair@$$CBHV?$basic_string@DU?$char_traits@D@std@@V?$allocator@D@2@@std@@@std@@PAX@2@PAU32@@Z 00409f70 f i datagram.obj
 0001:00008f90       ?_Move_alloc@?$_String_alloc@U?$_String_base_types@DV?$allocator@D@std@@@std@@@std@@QAEXAAV?$allocator@D@2@@Z 00409f90 f i datagram.obj
 0001:00009010       ?_Myproxy@?$_String_alloc@U?$_String_base_types@DV?$allocator@D@std@@@std@@@std@@QAEAAPAU_Container_proxy@2@XZ 0040a010 f i datagram.obj
 0001:00009030       ?_Myproxy@?$_Tree_comp_alloc@V?$_Tmap_traits@HV?$basic_string@DU?$char_traits@D@std@@V?$allocator@D@2@@std@@U?$less@H@2@V?$allocator@U?$pair@$$CBHV?$basic_string@DU?$char_traits@D@std@@V?$allocator@D@2@@std@@@std@@@2@$0A@@std@@@std@@QAEAAPAU_Container_proxy@2@XZ 0040a030 f i datagram.obj
 0001:00009050       ?_Myptr@?$_String_val@U?$_Simple_types@D@std@@@std@@QAEPADXZ 0040a050 f i datagram.obj
 0001:00009090       ?_Myptr@?$_String_val@U?$_Simple_types@D@std@@@std@@QBEPBDXZ 0040a090 f i datagram.obj
 0001:000090d0       ?_Myptr@?$_Unique_ptr_base@V_Facet_base@std@@U?$default_delete@V_Facet_base@std@@@2@@std@@QAEAAPAV_Facet_base@2@XZ 0040a0d0 f i datagram.obj
 0001:000090f0       ?_Myptr@?$_Unique_ptr_base@V_Facet_base@std@@U?$default_delete@V_Facet_base@std@@@2@@std@@QBEABQAV_Facet_base@2@XZ 0040a0f0 f i datagram.obj
 0001:00009110       ?_Orphan_all@?$_String_alloc@U?$_String_base_types@DV?$allocator@D@std@@@std@@@std@@QAEXXZ 0040a110 f i datagram.obj
 0001:00009130       ?_Orphan_all@?$_Tree_comp_alloc@V?$_Tmap_traits@HV?$basic_string@DU?$char_traits@D@std@@V?$allocator@D@2@@std@@U?$less@H@2@V?$allocator@U?$pair@$$CBHV?$basic_string@DU?$char_traits@D@std@@V?$allocator@D@2@@std@@@std@@@2@$0A@@std@@@std@@QAEXXZ 0040a130 f i datagram.obj
 0001:00009150       ?_Orphan_me@_Iterator_base12@std@@QAEXXZ 0040a150 f i datagram.obj
 0001:00009210       ?_Orphan_ptr@?$_Tree@V?$_Tmap_traits@HV?$basic_string@DU?$char_traits@D@std@@V?$allocator@D@2@@std@@U?$less@H@2@V?$allocator@U?$pair@$$CBHV?$basic_string@DU?$char_traits@D@std@@V?$allocator@D@2@@std@@@std@@@2@$0A@@std@@@std@@IAEXPAU?$_Tree_node@U?$pair@$$CBHV?$basic_string@DU?$char_traits@D@std@@V?$allocator@D@2@@std@@@std@@PAX@2@@Z 0040a210 f i datagram.obj
 0001:000092e0       ?_Rmost@?$_Tree_val@U?$_Tree_simple_types@U?$pair@$$CBHV?$basic_string@DU?$char_traits@D@std@@V?$allocator@D@2@@std@@@std@@@std@@@std@@QBEAAPAU?$_Tree_node@U?$pair@$$CBHV?$basic_string@DU?$char_traits@D@std@@V?$allocator@D@2@@std@@@std@@PAX@2@XZ 0040a2e0 f i datagram.obj
 0001:00009300       ?_Root@?$_Tree_val@U?$_Tree_simple_types@U?$pair@$$CBHV?$basic_string@DU?$char_traits@D@std@@V?$allocator@D@2@@std@@@std@@@std@@@std@@QBEAAPAU?$_Tree_node@U?$pair@$$CBHV?$basic_string@DU?$char_traits@D@std@@V?$allocator@D@2@@std@@@std@@PAX@2@XZ 0040a300 f i datagram.obj
 0001:00009320       ?_Rrotate@?$_Tree_val@U?$_Tree_simple_types@U?$pair@$$CBHV?$basic_string@DU?$char_traits@D@std@@V?$allocator@D@2@@std@@@std@@@std@@@std@@QAEXPAU?$_Tree_node@U?$pair@$$CBHV?$basic_string@DU?$char_traits@D@std@@V?$allocator@D@2@@std@@@std@@PAX@2@@Z 0040a320 f i datagram.obj
 0001:000093c0       ?_Swap_all@?$_String_alloc@U?$_String_base_types@DV?$allocator@D@std@@@std@@@std@@QAEXAAV12@@Z 0040a3c0 f i datagram.obj
 0001:000093f0       ?_Swap_all@_Container_base12@std@@QAEXAAU12@@Z 0040a3f0 f i datagram.obj
 0001:00009480       ?_Tidy@?$_Tree@V?$_Tmap_traits@HV?$basic_string@DU?$char_traits@D@std@@V?$allocator@D@2@@std@@U?$less@H@2@V?$allocator@U?$pair@$$CBHV?$basic_string@DU?$char_traits@D@std@@V?$allocator@D@2@@std@@@std@@@2@$0A@@std@@@std@@IAEXXZ 0040a480 f i datagram.obj
 0001:00009550       ?_Tidy@?$basic_stringbuf@DU?$char_traits@D@std@@V?$allocator@D@2@@std@@IAEXXZ 0040a550 f i datagram.obj
 0001:00009600       ?_Tidy_deallocate@?$basic_string@DU?$char_traits@D@std@@V?$allocator@D@2@@std@@QAEXXZ 0040a600 f i datagram.obj
 0001:000096b0       ?_Tidy_init@?$basic_string@DU?$char_traits@D@std@@V?$allocator@D@2@@std@@QAEXXZ 0040a6b0 f i datagram.obj
 0001:00009700       ?_Xlen@?$basic_string@DU?$char_traits@D@std@@V?$allocator@D@2@@std@@SAXXZ 0040a700 f i datagram.obj
 0001:00009710       ?_Xran@?$_String_val@U?$_Simple_types@D@std@@@std@@SAXXZ 0040a710 f i datagram.obj
 0001:00009720       ?allocate@?$allocator@D@std@@QAEPADI@Z 0040a720 f i datagram.obj
 0001:00009750       ?allocate@?$allocator@U?$_Tree_node@U?$pair@$$CBHV?$basic_string@DU?$char_traits@D@std@@V?$allocator@D@2@@std@@@std@@PAX@std@@@std@@QAEPAU?$_Tree_node@U?$pair@$$CBHV?$basic_string@DU?$char_traits@D@std@@V?$allocator@D@2@@std@@@std@@PAX@2@I@Z 0040a750 f i datagram.obj
 0001:00009780       ?append@?$basic_string@DU?$char_traits@D@std@@V?$allocator@D@2@@std@@QAEAAV12@ID@Z 0040a780 f i datagram.obj
 0001:00009820       ?assign@?$basic_string@DU?$char_traits@D@std@@V?$allocator@D@2@@std@@QAEAAV12@ABV12@II@Z 0040a820 f i datagram.obj
 0001:00009880       ?assign@?$basic_string@DU?$char_traits@D@std@@V?$allocator@D@2@@std@@QAEAAV12@QBD@Z 0040a880 f i datagram.obj
 0001:000098b0       ?assign@?$basic_string@DU?$char_traits@D@std@@V?$allocator@D@2@@std@@QAEAAV12@QBDI@Z 0040a8b0 f i datagram.obj
 0001:00009940       ?assign@?$char_traits@D@std@@SAPADQADID@Z 0040a940 f i datagram.obj
 0001:00009960       ?assign@?$char_traits@D@std@@SAXAADABD@Z 0040a960 f i datagram.obj
 0001:00009970       ?begin@?$_Tree@V?$_Tmap_traits@HV?$basic_string@DU?$char_traits@D@std@@V?$allocator@D@2@@std@@U?$less@H@2@V?$allocator@U?$pair@$$CBHV?$basic_string@DU?$char_traits@D@std@@V?$allocator@D@2@@std@@@std@@@2@$0A@@std@@@std@@QAE?AV?$_Tree_iterator@V?$_Tree_val@U?$_Tree_simple_types@U?$pair@$$CBHV?$basic_string@DU?$char_traits@D@std@@V?$allocator@D@2@@std@@@std@@@std@@@std@@@2@XZ 0040a970 f i datagram.obj
 0001:000099e0       ?c_str@?$basic_string@DU?$char_traits@D@std@@V?$allocator@D@2@@std@@QBEPBDXZ 0040a9e0 f i datagram.obj
 0001:00009a30       ?clear@?$_Tree@V?$_Tmap_traits@HV?$basic_string@DU?$char_traits@D@std@@V?$allocator@D@2@@std@@U?$less@H@2@V?$allocator@U?$pair@$$CBHV?$basic_string@DU?$char_traits@D@std@@V?$allocator@D@2@@std@@@std@@@2@$0A@@std@@@std@@QAEXXZ 0040aa30 f i datagram.obj
 0001:00009ad0       ?copy@?$char_traits@D@std@@SAPADQADQBDI@Z 0040aad0 f i datagram.obj
 0001:00009af0       ?data@?$basic_string@DU?$char_traits@D@std@@V?$allocator@D@2@@std@@QBEPBDXZ 0040aaf0 f i datagram.obj
 0001:00009b40       ?deallocate@?$_Default_allocator_traits@V?$allocator@U?$_Tree_node@U?$pair@$$CBHV?$basic_string@DU?$char_traits@D@std@@V?$allocator@D@2@@std@@@std@@PAX@std@@@std@@@std@@SAXAAV?$allocator@U?$_Tree_node@U?$pair@$$CBHV?$basic_string@DU?$char_traits@D@std@@V?$allocator@D@2@@std@@@std@@PAX@std@@@2@QAU?$_Tree_node@U?$pair@$$CBHV?$basic_string@DU?$char_traits@D@std@@V?$allocator@D@2@@std@@@std@@PAX@2@I@Z 0040ab40 f i datagram.obj
 0001:00009b60       ?deallocate@?$allocator@D@std@@QAEXQADI@Z 0040ab60 f i datagram.obj
 0001:00009b80       ?deallocate@?$allocator@U?$_Tree_node@U?$pair@$$CBHV?$basic_string@DU?$char_traits@D@std@@V?$allocator@D@2@@std@@@std@@PAX@std@@@std@@QAEXQAU?$_Tree_node@U?$pair@$$CBHV?$basic_string@DU?$char_traits@D@std@@V?$allocator@D@2@@std@@@std@@PAX@2@I@Z 0040ab80 f i datagram.obj
 0001:00009ba0       ?end@?$_Tree@V?$_Tmap_traits@HV?$basic_string@DU?$char_traits@D@std@@V?$allocator@D@2@@std@@U?$less@H@2@V?$allocator@U?$pair@$$CBHV?$basic_string@DU?$char_traits@D@std@@V?$allocator@D@2@@std@@@std@@@2@$0A@@std@@@std@@QAE?AV?$_Tree_iterator@V?$_Tree_val@U?$_Tree_simple_types@U?$pair@$$CBHV?$basic_string@DU?$char_traits@D@std@@V?$allocator@D@2@@std@@@std@@@std@@@std@@@2@XZ 0040aba0 f i datagram.obj
 0001:00009c10       ?end@?$_Tree@V?$_Tmap_traits@HV?$basic_string@DU?$char_traits@D@std@@V?$allocator@D@2@@std@@U?$less@H@2@V?$allocator@U?$pair@$$CBHV?$basic_string@DU?$char_traits@D@std@@V?$allocator@D@2@@std@@@std@@@2@$0A@@std@@@std@@QBE?AV?$_Tree_const_iterator@V?$_Tree_val@U?$_Tree_simple_types@U?$pair@$$CBHV?$basic_string@DU?$char_traits@D@std@@V?$allocator@D@2@@std@@@std@@@std@@@std@@@2@XZ 0040ac10 f i datagram.obj
 0001:00009c80       ?eq@?$char_traits@D@std@@SA_NABD0@Z 0040ac80 f i datagram.obj
 0001:00009cb0       ?erase@?$_Tree@V?$_Tmap_traits@HV?$basic_string@DU?$char_traits@D@std@@V?$allocator@D@2@@std@@U?$less@H@2@V?$allocator@U?$pair@$$CBHV?$basic_string@DU?$char_traits@D@std@@V?$allocator@D@2@@std@@@std@@@2@$0A@@std@@@std@@QAE?AV?$_Tree_iterator@V?$_Tree_val@U?$_Tree_simple_types@U?$pair@$$CBHV?$basic_string@DU?$char_traits@D@std@@V?$allocator@D@2@@std@@@std@@@std@@@std@@@2@V?$_Tree_const_iterator@V?$_Tree_val@U?$_Tree_simple_types@U?$pair@$$CBHV?$basic_string@DU?$char_traits@D@std@@V?$allocator@D@2@@std@@@std@@@std@@@std@@@2@0@Z 0040acb0 f i datagram.obj
 0001:00009ea0       ?erase@?$_Tree@V?$_Tmap_traits@HV?$basic_string@DU?$char_traits@D@std@@V?$allocator@D@2@@std@@U?$less@H@2@V?$allocator@U?$pair@$$CBHV?$basic_string@DU?$char_traits@D@std@@V?$allocator@D@2@@std@@@std@@@2@$0A@@std@@@std@@QAE?AV?$_Tree_iterator@V?$_Tree_val@U?$_Tree_simple_types@U?$pair@$$CBHV?$basic_string@DU?$char_traits@D@std@@V?$allocator@D@2@@std@@@std@@@std@@@std@@@2@V?$_Tree_const_iterator@V?$_Tree_val@U?$_Tree_simple_types@U?$pair@$$CBHV?$basic_string@DU?$char_traits@D@std@@V?$allocator@D@2@@std@@@std@@@std@@@std@@@2@@Z 0040aea0 f i datagram.obj
 0001:0000a010       ?erase@?$basic_string@DU?$char_traits@D@std@@V?$allocator@D@2@@std@@QAEAAV12@I@Z 0040b010 f i datagram.obj
 0001:0000a050       ?find@?$_Tree@V?$_Tmap_traits@HV?$basic_string@DU?$char_traits@D@std@@V?$allocator@D@2@@std@@U?$less@H@2@V?$allocator@U?$pair@$$CBHV?$basic_string@DU?$char_traits@D@std@@V?$allocator@D@2@@std@@@std@@@2@$0A@@std@@@std@@QBE?AV?$_Tree_const_iterator@V?$_Tree_val@U?$_Tree_simple_types@U?$pair@$$CBHV?$basic_string@DU?$char_traits@D@std@@V?$allocator@D@2@@std@@@std@@@std@@@std@@@2@ABH@Z 0040b050 f i datagram.obj
 0001:0000a1c0       ?get@?$unique_ptr@V_Facet_base@std@@U?$default_delete@V_Facet_base@std@@@2@@std@@QBEPAV_Facet_base@2@XZ 0040b1c0 f i datagram.obj
 0001:0000a1e0       ?get_allocator@?$basic_string@DU?$char_traits@D@std@@V?$allocator@D@2@@std@@QBE?AV?$allocator@D@2@XZ 0040b1e0 f i datagram.obj
 0001:0000a200       ?get_deleter@?$_Unique_ptr_base@V_Facet_base@std@@U?$default_delete@V_Facet_base@std@@@2@@std@@QAEAAU?$default_delete@V_Facet_base@std@@@2@XZ 0040b200 f i datagram.obj
 0001:0000a220       ?hex@std@@YAAAVios_base@1@AAV21@@Z 0040b220 f i datagram.obj
 0001:0000a240       ?insert@?$basic_string@DU?$char_traits@D@std@@V?$allocator@D@2@@std@@QAEAAV12@IQBD@Z 0040b240 f i datagram.obj
 0001:0000a280       ?insert@?$basic_string@DU?$char_traits@D@std@@V?$allocator@D@2@@std@@QAEAAV12@IQBDI@Z 0040b280 f i datagram.obj
 0001:0000a3a0       ?lower_bound@?$_Tree@V?$_Tmap_traits@HV?$basic_string@DU?$char_traits@D@std@@V?$allocator@D@2@@std@@U?$less@H@2@V?$allocator@U?$pair@$$CBHV?$basic_string@DU?$char_traits@D@std@@V?$allocator@D@2@@std@@@std@@@2@$0A@@std@@@std@@QAE?AV?$_Tree_iterator@V?$_Tree_val@U?$_Tree_simple_types@U?$pair@$$CBHV?$basic_string@DU?$char_traits@D@std@@V?$allocator@D@2@@std@@@std@@@std@@@std@@@2@ABH@Z 0040b3a0 f i datagram.obj
 0001:0000a3f0       ?lower_bound@?$_Tree@V?$_Tmap_traits@HV?$basic_string@DU?$char_traits@D@std@@V?$allocator@D@2@@std@@U?$less@H@2@V?$allocator@U?$pair@$$CBHV?$basic_string@DU?$char_traits@D@std@@V?$allocator@D@2@@std@@@std@@@2@$0A@@std@@@std@@QBE?AV?$_Tree_const_iterator@V?$_Tree_val@U?$_Tree_simple_types@U?$pair@$$CBHV?$basic_string@DU?$char_traits@D@std@@V?$allocator@D@2@@std@@@std@@@std@@@std@@@2@ABH@Z 0040b3f0 f i datagram.obj
 0001:0000a440       ?max_size@?$_Default_allocator_traits@V?$allocator@D@std@@@std@@SAIABV?$allocator@D@2@@Z 0040b440 f i datagram.obj
 0001:0000a450       ?max_size@?$_Default_allocator_traits@V?$allocator@U?$_Tree_node@U?$pair@$$CBHV?$basic_string@DU?$char_traits@D@std@@V?$allocator@D@2@@std@@@std@@PAX@std@@@std@@@std@@SAIABV?$allocator@U?$_Tree_node@U?$pair@$$CBHV?$basic_string@DU?$char_traits@D@std@@V?$allocator@D@2@@std@@@std@@PAX@std@@@2@@Z 0040b450 f i datagram.obj
 0001:0000a460       ?max_size@?$_Tree@V?$_Tmap_traits@HV?$basic_string@DU?$char_traits@D@std@@V?$allocator@D@2@@std@@U?$less@H@2@V?$allocator@U?$pair@$$CBHV?$basic_string@DU?$char_traits@D@std@@V?$allocator@D@2@@std@@@std@@@2@$0A@@std@@@std@@QBEIXZ 0040b460 f i datagram.obj
 0001:0000a480       ?max_size@?$basic_string@DU?$char_traits@D@std@@V?$allocator@D@2@@std@@QBEIXZ 0040b480 f i datagram.obj
 0001:0000a4e0       ?move@?$char_traits@D@std@@SAPADQADQBDI@Z 0040b4e0 f i datagram.obj
 0001:0000a500       ?not_eof@?$char_traits@D@std@@SAHABH@Z 0040b500 f i datagram.obj
 0001:0000a550       ?overflow@?$basic_stringbuf@DU?$char_traits@D@std@@V?$allocator@D@2@@std@@MAEHH@Z 0040b550 f i datagram.obj
 0001:0000a860       ?pbackfail@?$basic_stringbuf@DU?$char_traits@D@std@@V?$allocator@D@2@@std@@MAEHH@Z 0040b860 f i datagram.obj
 0001:0000a950       ?pointer_to@?$pointer_traits@PAD@std@@SAPADAAD@Z 0040b950 f i datagram.obj
 0001:0000a970       ?pointer_to@?$pointer_traits@PAU?$pair@$$CBHV?$basic_string@DU?$char_traits@D@std@@V?$allocator@D@2@@std@@@std@@@std@@SAPAU?$pair@$$CBHV?$basic_string@DU?$char_traits@D@std@@V?$allocator@D@2@@std@@@2@AAU32@@Z 0040b970 f i datagram.obj
 0001:0000a990       ?pointer_to@?$pointer_traits@PBU?$pair@$$CBHV?$basic_string@DU?$char_traits@D@std@@V?$allocator@D@2@@std@@@std@@@std@@SAPBU?$pair@$$CBHV?$basic_string@DU?$char_traits@D@std@@V?$allocator@D@2@@std@@@2@ABU32@@Z 0040b990 f i datagram.obj
 0001:0000a9b0       ?ptrAt@?$XsArrayImpl@E$1?g_xsByteArrayDescriptor@@3UXsArrayDescriptor@@BUXsByteArray@@@@CAPAEPBXH@Z 0040b9b0 f i datagram.obj
 0001:0000a9d0       ?release@?$unique_ptr@V_Facet_base@std@@U?$default_delete@V_Facet_base@std@@@2@@std@@QAEPAV_Facet_base@2@XZ 0040b9d0 f i datagram.obj
 0001:0000aa00       ?seekoff@?$basic_stringbuf@DU?$char_traits@D@std@@V?$allocator@D@2@@std@@MAE?AV?$fpos@U_Mbstatet@@@2@_JHH@Z 0040ba00 f i datagram.obj
 0001:0000acc0       ?seekpos@?$basic_stringbuf@DU?$char_traits@D@std@@V?$allocator@D@2@@std@@MAE?AV?$fpos@U_Mbstatet@@@2@V32@H@Z 0040bcc0 f i datagram.obj
 0001:0000aec0       ?select_on_container_copy_construction@?$_Default_allocator_traits@V?$allocator@D@std@@@std@@SA?AV?$allocator@D@2@ABV32@@Z 0040bec0 f i datagram.obj
 0001:0000aed0       ?size@?$_Tree@V?$_Tmap_traits@HV?$basic_string@DU?$char_traits@D@std@@V?$allocator@D@2@@std@@U?$less@H@2@V?$allocator@U?$pair@$$CBHV?$basic_string@DU?$char_traits@D@std@@V?$allocator@D@2@@std@@@std@@@2@$0A@@std@@@std@@QBEIXZ 0040bed0 f i datagram.obj
 0001:0000aef0       ?size@?$basic_string@DU?$char_traits@D@std@@V?$allocator@D@2@@std@@QBEIXZ 0040bef0 f i datagram.obj
 0001:0000af10       ?stoi@std@@YAHABV?$basic_string@DU?$char_traits@D@std@@V?$allocator@D@2@@1@PAIH@Z 0040bf10 f i datagram.obj
 0001:0000afa0       ?str@?$basic_stringbuf@DU?$char_traits@D@std@@V?$allocator@D@2@@std@@QBE?AV?$basic_string@DU?$char_traits@D@std@@V?$allocator@D@2@@2@XZ 0040bfa0 f i datagram.obj
 0001:0000b0f0       ?str@?$basic_stringstream@DU?$char_traits@D@std@@V?$allocator@D@2@@std@@QBE?AV?$basic_string@DU?$char_traits@D@std@@V?$allocator@D@2@@2@XZ 0040c0f0 f i datagram.obj
 0001:0000b130       ?substr@?$basic_string@DU?$char_traits@D@std@@V?$allocator@D@2@@std@@QBE?AV12@II@Z 0040c130 f i datagram.obj
 0001:0000b180       ?to_char_type@?$char_traits@D@std@@SADABH@Z 0040c180 f i datagram.obj
 0001:0000b190       ?to_int_type@?$char_traits@D@std@@SAHABD@Z 0040c190 f i datagram.obj
 0001:0000b1a0       ?underflow@?$basic_stringbuf@DU?$char_traits@D@std@@V?$allocator@D@2@@std@@MAEHXZ 0040c1a0 f i datagram.obj
 0001:0000b2a0       ?what@exception@std@@UBEPBDXZ 0040c2a0 f i datagram.obj
 0001:0000b2d0       ??0EulerDatagram@@QAE@XZ   0040c2d0 f   eulerdatagram.obj
 0001:0000b340       ??1EulerDatagram@@UAE@XZ   0040c340 f   eulerdatagram.obj
 0001:0000b370       ?printData@EulerDatagram@@UBEXXZ 0040c370 f   eulerdatagram.obj
 0001:0000b650       ?deserializeData@EulerDatagram@@MAEXAAVStreamer@@@Z 0040c650 f   eulerdatagram.obj
 0001:0000b920       ??$?0$$V@?$_Compressed_pair@V?$allocator@UKinematics@EulerDatagram@@@std@@V?$_Vector_val@U?$_Simple_types@UKinematics@EulerDatagram@@@std@@@2@$00@std@@QAE@U_Zero_then_variadic_args_t@1@@Z 0040c920 f i eulerdatagram.obj
 0001:0000b940       ??$?0UKinematics@EulerDatagram@@@?$allocator@U_Container_proxy@std@@@std@@QAE@ABV?$allocator@UKinematics@EulerDatagram@@@1@@Z 0040c940 f i eulerdatagram.obj
 0001:0000b950       ??$_Copy_memmove@PAUKinematics@EulerDatagram@@PAU12@@std@@YAPAUKinematics@EulerDatagram@@PAU12@00@Z 0040c950 f i eulerdatagram.obj
 0001:0000b990       ??$_Destroy_range1@V?$allocator@UKinematics@EulerDatagram@@@std@@@std@@YAXPAUKinematics@EulerDatagram@@0AAV?$allocator@UKinematics@EulerDatagram@@@0@U?$integral_constant@_N$00@0@@Z 0040c990 f i eulerdatagram.obj
 0001:0000b9a0       ??$_Destroy_range@V?$allocator@UKinematics@EulerDatagram@@@std@@@std@@YAXPAUKinematics@EulerDatagram@@0AAV?$allocator@UKinematics@EulerDatagram@@@0@@Z 0040c9a0 f i eulerdatagram.obj
 0001:0000b9d0       ??$_Emplace_back_with_unused_capacity@ABUKinematics@EulerDatagram@@@?$vector@UKinematics@EulerDatagram@@V?$allocator@UKinematics@EulerDatagram@@@std@@@std@@AAEXABUKinematics@EulerDatagram@@@Z 0040c9d0 f i eulerdatagram.obj
 0001:0000ba60       ??$_Emplace_reallocate@ABUKinematics@EulerDatagram@@@?$vector@UKinematics@EulerDatagram@@V?$allocator@UKinematics@EulerDatagram@@@std@@@std@@QAEPAUKinematics@EulerDatagram@@QAU23@ABU23@@Z 0040ca60 f i eulerdatagram.obj
 0001:0000bc40       ??$_Get_size_of_n@$0BM@@std@@YAII@Z 0040cc40 f i eulerdatagram.obj
 0001:0000bc70       ??$_Ptr_move_cat@UKinematics@EulerDatagram@@U12@@std@@YA?AU_Really_trivial_ptr_iterator_tag@0@ABQAUKinematics@EulerDatagram@@0@Z 0040cc70 f i eulerdatagram.obj
 0001:0000bc80       ??$_Rechecked@PAUKinematics@EulerDatagram@@PAU12@@std@@YAAAPAUKinematics@EulerDatagram@@AAPAU12@QAU12@@Z 0040cc80 f i eulerdatagram.obj
 0001:0000bc90       ??$_Unchecked@PAUKinematics@EulerDatagram@@@std@@YAPAUKinematics@EulerDatagram@@PAU12@@Z 0040cc90 f i eulerdatagram.obj
 0001:0000bca0       ??$_Unfancy@UKinematics@EulerDatagram@@@std@@YAPAUKinematics@EulerDatagram@@PAU12@@Z 0040cca0 f i eulerdatagram.obj
 0001:0000bcb0       ??$_Uninitialized_move@PAUKinematics@EulerDatagram@@PAU12@V?$allocator@UKinematics@EulerDatagram@@@std@@@std@@YAPAUKinematics@EulerDatagram@@QAU12@0PAU12@AAV?$allocator@UKinematics@EulerDatagram@@@0@@Z 0040ccb0 f i eulerdatagram.obj
 0001:0000bd30       ??$_Uninitialized_move_al_unchecked@UKinematics@EulerDatagram@@U12@V?$allocator@UKinematics@EulerDatagram@@@std@@@std@@YAPAUKinematics@EulerDatagram@@QAU12@00AAV?$allocator@UKinematics@EulerDatagram@@@0@U_Really_trivial_ptr_iterator_tag@0@U?$integral_constant@_N$00@0@@Z 0040cd30 f i eulerdatagram.obj
 0001:0000bd50       ??$addressof@V?$_Vector_val@U?$_Simple_types@UKinematics@EulerDatagram@@@std@@@std@@@std@@YAPAV?$_Vector_val@U?$_Simple_types@UKinematics@EulerDatagram@@@std@@@0@AAV10@@Z 0040cd50 f i eulerdatagram.obj
 0001:0000bd60       ??$construct@UKinematics@EulerDatagram@@ABU12@@?$_Default_allocator_traits@V?$allocator@UKinematics@EulerDatagram@@@std@@@std@@SAXAAV?$allocator@UKinematics@EulerDatagram@@@1@QAUKinematics@EulerDatagram@@ABU34@@Z 0040cd60 f i eulerdatagram.obj
 0001:0000bda0       ??$emplace_back@ABUKinematics@EulerDatagram@@@?$vector@UKinematics@EulerDatagram@@V?$allocator@UKinematics@EulerDatagram@@@std@@@std@@QAEXABUKinematics@EulerDatagram@@@Z 0040cda0 f i eulerdatagram.obj
 0001:0000be00       ??$forward@ABUKinematics@EulerDatagram@@@std@@YAABUKinematics@EulerDatagram@@ABU12@@Z 0040ce00 f i eulerdatagram.obj
 0001:0000be10       ??0?$_Vector_alloc@U?$_Vec_base_types@UKinematics@EulerDatagram@@V?$allocator@UKinematics@EulerDatagram@@@std@@@std@@@std@@QAE@XZ 0040ce10 f i eulerdatagram.obj
 0001:0000be40       ??0?$_Vector_val@U?$_Simple_types@UKinematics@EulerDatagram@@@std@@@std@@QAE@XZ 0040ce40 f i eulerdatagram.obj
 0001:0000be80       ??0?$allocator@UKinematics@EulerDatagram@@@std@@QAE@XZ 0040ce80 f i eulerdatagram.obj
 0001:0000be90       ??0?$vector@UKinematics@EulerDatagram@@V?$allocator@UKinematics@EulerDatagram@@@std@@@std@@QAE@XZ 0040ce90 f i eulerdatagram.obj
 0001:0000bed0       ??0XsEuler@@QAE@NNN@Z      0040ced0 f i eulerdatagram.obj
 0001:0000bf10       ??0XsQuaternion@@QAE@NNNN@Z 0040cf10 f i eulerdatagram.obj
 0001:0000bf60       ??1?$_Vector_alloc@U?$_Vec_base_types@UKinematics@EulerDatagram@@V?$allocator@UKinematics@EulerDatagram@@@std@@@std@@@std@@QAE@XZ 0040cf60 f i eulerdatagram.obj
 0001:0000bfa0       ??1?$vector@UKinematics@EulerDatagram@@V?$allocator@UKinematics@EulerDatagram@@@std@@@std@@QAE@XZ 0040cfa0 f i eulerdatagram.obj
 0001:0000bff0       ??4XsQuaternion@@QAEAAU0@ABU0@@Z 0040cff0 f i eulerdatagram.obj
 0001:0000c050       ??AXsEuler@@QAEAANI@Z      0040d050 f i eulerdatagram.obj
 0001:0000c070       ??AXsQuaternion@@QAEAANI@Z 0040d070 f i eulerdatagram.obj
 0001:0000c090       ??_EEulerDatagram@@UAEPAXI@Z 0040d090 f i eulerdatagram.obj
 0001:0000c090       ??_GEulerDatagram@@UAEPAXI@Z 0040d090 f i eulerdatagram.obj
 0001:0000c0c0       ?_Alloc_proxy@?$_Vector_alloc@U?$_Vec_base_types@UKinematics@EulerDatagram@@V?$allocator@UKinematics@EulerDatagram@@@std@@@std@@@std@@QAEXXZ 0040d0c0 f i eulerdatagram.obj
 0001:0000c140       ?_Calculate_growth@?$vector@UKinematics@EulerDatagram@@V?$allocator@UKinematics@EulerDatagram@@@std@@@std@@ABEII@Z 0040d140 f i eulerdatagram.obj
 0001:0000c190       ?_Change_array@?$vector@UKinematics@EulerDatagram@@V?$allocator@UKinematics@EulerDatagram@@@std@@@std@@AAEXQAUKinematics@EulerDatagram@@II@Z 0040d190 f i eulerdatagram.obj
 0001:0000c230       ?_Destroy@?$vector@UKinematics@EulerDatagram@@V?$allocator@UKinematics@EulerDatagram@@@std@@@std@@AAEXPAUKinematics@EulerDatagram@@0@Z 0040d230 f i eulerdatagram.obj
 0001:0000c260       ?_Free_proxy@?$_Vector_alloc@U?$_Vec_base_types@UKinematics@EulerDatagram@@V?$allocator@UKinematics@EulerDatagram@@@std@@@std@@@std@@QAEXXZ 0040d260 f i eulerdatagram.obj
 0001:0000c2d0       ?_Get_data@?$_Vector_alloc@U?$_Vec_base_types@UKinematics@EulerDatagram@@V?$allocator@UKinematics@EulerDatagram@@@std@@@std@@@std@@QAEAAV?$_Vector_val@U?$_Simple_types@UKinematics@EulerDatagram@@@std@@@2@XZ 0040d2d0 f i eulerdatagram.obj
 0001:0000c2f0       ?_Get_data@?$_Vector_alloc@U?$_Vec_base_types@UKinematics@EulerDatagram@@V?$allocator@UKinematics@EulerDatagram@@@std@@@std@@@std@@QBEABV?$_Vector_val@U?$_Simple_types@UKinematics@EulerDatagram@@@std@@@2@XZ 0040d2f0 f i eulerdatagram.obj
 0001:0000c310       ?_Get_first@?$_Compressed_pair@V?$allocator@UKinematics@EulerDatagram@@@std@@V?$_Vector_val@U?$_Simple_types@UKinematics@EulerDatagram@@@std@@@2@$00@std@@QAEAAV?$allocator@UKinematics@EulerDatagram@@@2@XZ 0040d310 f i eulerdatagram.obj
 0001:0000c320       ?_Get_first@?$_Compressed_pair@V?$allocator@UKinematics@EulerDatagram@@@std@@V?$_Vector_val@U?$_Simple_types@UKinematics@EulerDatagram@@@std@@@2@$00@std@@QBEABV?$allocator@UKinematics@EulerDatagram@@@2@XZ 0040d320 f i eulerdatagram.obj
 0001:0000c330       ?_Get_second@?$_Compressed_pair@V?$allocator@UKinematics@EulerDatagram@@@std@@V?$_Vector_val@U?$_Simple_types@UKinematics@EulerDatagram@@@std@@@2@$00@std@@QAEAAV?$_Vector_val@U?$_Simple_types@UKinematics@EulerDatagram@@@std@@@2@XZ 0040d330 f i eulerdatagram.obj
 0001:0000c340       ?_Get_second@?$_Compressed_pair@V?$allocator@UKinematics@EulerDatagram@@@std@@V?$_Vector_val@U?$_Simple_types@UKinematics@EulerDatagram@@@std@@@2@$00@std@@QBEABV?$_Vector_val@U?$_Simple_types@UKinematics@EulerDatagram@@@std@@@2@XZ 0040d340 f i eulerdatagram.obj
 0001:0000c350       ?_Getal@?$_Vector_alloc@U?$_Vec_base_types@UKinematics@EulerDatagram@@V?$allocator@UKinematics@EulerDatagram@@@std@@@std@@@std@@QAEAAV?$allocator@UKinematics@EulerDatagram@@@2@XZ 0040d350 f i eulerdatagram.obj
 0001:0000c370       ?_Getal@?$_Vector_alloc@U?$_Vec_base_types@UKinematics@EulerDatagram@@V?$allocator@UKinematics@EulerDatagram@@@std@@@std@@@std@@QBEABV?$allocator@UKinematics@EulerDatagram@@@2@XZ 0040d370 f i eulerdatagram.obj
 0001:0000c390       ?_Getpfirst@?$_Vector_alloc@U?$_Vec_base_types@UKinematics@EulerDatagram@@V?$allocator@UKinematics@EulerDatagram@@@std@@@std@@@std@@QBEPAPAU_Iterator_base12@2@XZ 0040d390 f i eulerdatagram.obj
 0001:0000c3b0       ?_Has_unused_capacity@?$vector@UKinematics@EulerDatagram@@V?$allocator@UKinematics@EulerDatagram@@@std@@@std@@ABE_NXZ 0040d3b0 f i eulerdatagram.obj
 0001:0000c3f0       ?_Myend@?$_Vector_alloc@U?$_Vec_base_types@UKinematics@EulerDatagram@@V?$allocator@UKinematics@EulerDatagram@@@std@@@std@@@std@@QAEAAPAUKinematics@EulerDatagram@@XZ 0040d3f0 f i eulerdatagram.obj
 0001:0000c410       ?_Myend@?$_Vector_alloc@U?$_Vec_base_types@UKinematics@EulerDatagram@@V?$allocator@UKinematics@EulerDatagram@@@std@@@std@@@std@@QBEABQAUKinematics@EulerDatagram@@XZ 0040d410 f i eulerdatagram.obj
 0001:0000c430       ?_Myfirst@?$_Vector_alloc@U?$_Vec_base_types@UKinematics@EulerDatagram@@V?$allocator@UKinematics@EulerDatagram@@@std@@@std@@@std@@QAEAAPAUKinematics@EulerDatagram@@XZ 0040d430 f i eulerdatagram.obj
 0001:0000c450       ?_Myfirst@?$_Vector_alloc@U?$_Vec_base_types@UKinematics@EulerDatagram@@V?$allocator@UKinematics@EulerDatagram@@@std@@@std@@@std@@QBEABQAUKinematics@EulerDatagram@@XZ 0040d450 f i eulerdatagram.obj
 0001:0000c470       ?_Mylast@?$_Vector_alloc@U?$_Vec_base_types@UKinematics@EulerDatagram@@V?$allocator@UKinematics@EulerDatagram@@@std@@@std@@@std@@QAEAAPAUKinematics@EulerDatagram@@XZ 0040d470 f i eulerdatagram.obj
 0001:0000c490       ?_Mylast@?$_Vector_alloc@U?$_Vec_base_types@UKinematics@EulerDatagram@@V?$allocator@UKinematics@EulerDatagram@@@std@@@std@@@std@@QBEABQAUKinematics@EulerDatagram@@XZ 0040d490 f i eulerdatagram.obj
 0001:0000c4b0       ?_Myproxy@?$_Vector_alloc@U?$_Vec_base_types@UKinematics@EulerDatagram@@V?$allocator@UKinematics@EulerDatagram@@@std@@@std@@@std@@QAEAAPAU_Container_proxy@2@XZ 0040d4b0 f i eulerdatagram.obj
 0001:0000c4d0       ?_Orphan_all@?$_Vector_alloc@U?$_Vec_base_types@UKinematics@EulerDatagram@@V?$allocator@UKinematics@EulerDatagram@@@std@@@std@@@std@@QAEXXZ 0040d4d0 f i eulerdatagram.obj
 0001:0000c4f0       ?_Orphan_range@?$vector@UKinematics@EulerDatagram@@V?$allocator@UKinematics@EulerDatagram@@@std@@@std@@ABEXPAUKinematics@EulerDatagram@@0@Z 0040d4f0 f i eulerdatagram.obj
 0001:0000c5b0       ?_Tidy@?$vector@UKinematics@EulerDatagram@@V?$allocator@UKinematics@EulerDatagram@@@std@@@std@@AAEXXZ 0040d5b0 f i eulerdatagram.obj
 0001:0000c640       ?_Umove@?$vector@UKinematics@EulerDatagram@@V?$allocator@UKinematics@EulerDatagram@@@std@@@std@@AAEPAUKinematics@EulerDatagram@@PAU34@00@Z 0040d640 f i eulerdatagram.obj
 0001:0000c670       ?_Umove_if_noexcept1@?$vector@UKinematics@EulerDatagram@@V?$allocator@UKinematics@EulerDatagram@@@std@@@std@@AAEXPAUKinematics@EulerDatagram@@00U?$integral_constant@_N$00@2@@Z 0040d670 f i eulerdatagram.obj
 0001:0000c6a0       ?_Umove_if_noexcept@?$vector@UKinematics@EulerDatagram@@V?$allocator@UKinematics@EulerDatagram@@@std@@@std@@AAEXPAUKinematics@EulerDatagram@@00@Z 0040d6a0 f i eulerdatagram.obj
 0001:0000c6d0       ?_Xlength@?$vector@UKinematics@EulerDatagram@@V?$allocator@UKinematics@EulerDatagram@@@std@@@std@@CAXXZ 0040d6d0 f i eulerdatagram.obj
 0001:0000c6e0       ?_Xrange@?$vector@UKinematics@EulerDatagram@@V?$allocator@UKinematics@EulerDatagram@@@std@@@std@@CAXXZ 0040d6e0 f i eulerdatagram.obj
 0001:0000c6f0       ?allocate@?$allocator@UKinematics@EulerDatagram@@@std@@QAEPAUKinematics@EulerDatagram@@I@Z 0040d6f0 f i eulerdatagram.obj
 0001:0000c720       ?at@?$vector@UKinematics@EulerDatagram@@V?$allocator@UKinematics@EulerDatagram@@@std@@@std@@QBEABUKinematics@EulerDatagram@@I@Z 0040d720 f i eulerdatagram.obj
 0001:0000c750       ?capacity@?$vector@UKinematics@EulerDatagram@@V?$allocator@UKinematics@EulerDatagram@@@std@@@std@@QBEIXZ 0040d750 f i eulerdatagram.obj
 0001:0000c780       ?deallocate@?$allocator@UKinematics@EulerDatagram@@@std@@QAEXQAUKinematics@EulerDatagram@@I@Z 0040d780 f i eulerdatagram.obj
 0001:0000c7a0       ?fromEulerAngles@XsQuaternion@@QAEAAU1@ABUXsEuler@@@Z 0040d7a0 f i eulerdatagram.obj
 0001:0000c7d0       ?fromQuaternion@XsEuler@@QAEAAU1@ABUXsQuaternion@@@Z 0040d7d0 f i eulerdatagram.obj
 0001:0000c800       ?max_size@?$_Default_allocator_traits@V?$allocator@UKinematics@EulerDatagram@@@std@@@std@@SAIABV?$allocator@UKinematics@EulerDatagram@@@2@@Z 0040d800 f i eulerdatagram.obj
 0001:0000c810       ?max_size@?$vector@UKinematics@EulerDatagram@@V?$allocator@UKinematics@EulerDatagram@@@std@@@std@@QBEIXZ 0040d810 f i eulerdatagram.obj
 0001:0000c850       ?push_back@?$vector@UKinematics@EulerDatagram@@V?$allocator@UKinematics@EulerDatagram@@@std@@@std@@QAEXABUKinematics@EulerDatagram@@@Z 0040d850 f i eulerdatagram.obj
 0001:0000c870       ?size@?$vector@UKinematics@EulerDatagram@@V?$allocator@UKinematics@EulerDatagram@@@std@@@std@@QBEIXZ 0040d870 f i eulerdatagram.obj
 0001:0000c8a0       ??0JointAnglesDatagram@@QAE@XZ 0040d8a0 f   jointanglesdatagram.obj
 0001:0000c910       ??1JointAnglesDatagram@@UAE@XZ 0040d910 f   jointanglesdatagram.obj
 0001:0000c940       ?printData@JointAnglesDatagram@@UBEXXZ 0040d940 f   jointanglesdatagram.obj
 0001:0000cb40       ?deserializeData@JointAnglesDatagram@@MAEXAAVStreamer@@@Z 0040db40 f   jointanglesdatagram.obj
 0001:0000cbe0       ??$?0$$V@?$_Compressed_pair@V?$allocator@UJoint@JointAnglesDatagram@@@std@@V?$_Vector_val@U?$_Simple_types@UJoint@JointAnglesDatagram@@@std@@@2@$00@std@@QAE@U_Zero_then_variadic_args_t@1@@Z 0040dbe0 f i jointanglesdatagram.obj
 0001:0000cc00       ??$?0UJoint@JointAnglesDatagram@@@?$allocator@U_Container_proxy@std@@@std@@QAE@ABV?$allocator@UJoint@JointAnglesDatagram@@@1@@Z 0040dc00 f i jointanglesdatagram.obj
 0001:0000cc10       ??$_Copy_memmove@PAUJoint@JointAnglesDatagram@@PAU12@@std@@YAPAUJoint@JointAnglesDatagram@@PAU12@00@Z 0040dc10 f i jointanglesdatagram.obj
 0001:0000cc50       ??$_Destroy_range1@V?$allocator@UJoint@JointAnglesDatagram@@@std@@@std@@YAXPAUJoint@JointAnglesDatagram@@0AAV?$allocator@UJoint@JointAnglesDatagram@@@0@U?$integral_constant@_N$00@0@@Z 0040dc50 f i jointanglesdatagram.obj
 0001:0000cc60       ??$_Destroy_range@V?$allocator@UJoint@JointAnglesDatagram@@@std@@@std@@YAXPAUJoint@JointAnglesDatagram@@0AAV?$allocator@UJoint@JointAnglesDatagram@@@0@@Z 0040dc60 f i jointanglesdatagram.obj
 0001:0000cc90       ??$_Emplace_back_with_unused_capacity@ABUJoint@JointAnglesDatagram@@@?$vector@UJoint@JointAnglesDatagram@@V?$allocator@UJoint@JointAnglesDatagram@@@std@@@std@@AAEXABUJoint@JointAnglesDatagram@@@Z 0040dc90 f i jointanglesdatagram.obj
 0001:0000cd20       ??$_Emplace_reallocate@ABUJoint@JointAnglesDatagram@@@?$vector@UJoint@JointAnglesDatagram@@V?$allocator@UJoint@JointAnglesDatagram@@@std@@@std@@QAEPAUJoint@JointAnglesDatagram@@QAU23@ABU23@@Z 0040dd20 f i jointanglesdatagram.obj
 0001:0000cf00       ??$_Get_size_of_n@$0BE@@std@@YAII@Z 0040df00 f i jointanglesdatagram.obj
 0001:0000cf30       ??$_Ptr_move_cat@UJoint@JointAnglesDatagram@@U12@@std@@YA?AU_Really_trivial_ptr_iterator_tag@0@ABQAUJoint@JointAnglesDatagram@@0@Z 0040df30 f i jointanglesdatagram.obj
 0001:0000cf40       ??$_Rechecked@PAUJoint@JointAnglesDatagram@@PAU12@@std@@YAAAPAUJoint@JointAnglesDatagram@@AAPAU12@QAU12@@Z 0040df40 f i jointanglesdatagram.obj
 0001:0000cf50       ??$_Unchecked@PAUJoint@JointAnglesDatagram@@@std@@YAPAUJoint@JointAnglesDatagram@@PAU12@@Z 0040df50 f i jointanglesdatagram.obj
 0001:0000cf60       ??$_Unfancy@UJoint@JointAnglesDatagram@@@std@@YAPAUJoint@JointAnglesDatagram@@PAU12@@Z 0040df60 f i jointanglesdatagram.obj
 0001:0000cf70       ??$_Uninitialized_move@PAUJoint@JointAnglesDatagram@@PAU12@V?$allocator@UJoint@JointAnglesDatagram@@@std@@@std@@YAPAUJoint@JointAnglesDatagram@@QAU12@0PAU12@AAV?$allocator@UJoint@JointAnglesDatagram@@@0@@Z 0040df70 f i jointanglesdatagram.obj
 0001:0000cff0       ??$_Uninitialized_move_al_unchecked@UJoint@JointAnglesDatagram@@U12@V?$allocator@UJoint@JointAnglesDatagram@@@std@@@std@@YAPAUJoint@JointAnglesDatagram@@QAU12@00AAV?$allocator@UJoint@JointAnglesDatagram@@@0@U_Really_trivial_ptr_iterator_tag@0@U?$integral_constant@_N$00@0@@Z 0040dff0 f i jointanglesdatagram.obj
 0001:0000d010       ??$addressof@V?$_Vector_val@U?$_Simple_types@UJoint@JointAnglesDatagram@@@std@@@std@@@std@@YAPAV?$_Vector_val@U?$_Simple_types@UJoint@JointAnglesDatagram@@@std@@@0@AAV10@@Z 0040e010 f i jointanglesdatagram.obj
 0001:0000d020       ??$construct@UJoint@JointAnglesDatagram@@ABU12@@?$_Default_allocator_traits@V?$allocator@UJoint@JointAnglesDatagram@@@std@@@std@@SAXAAV?$allocator@UJoint@JointAnglesDatagram@@@1@QAUJoint@JointAnglesDatagram@@ABU34@@Z 0040e020 f i jointanglesdatagram.obj
 0001:0000d070       ??$emplace_back@ABUJoint@JointAnglesDatagram@@@?$vector@UJoint@JointAnglesDatagram@@V?$allocator@UJoint@JointAnglesDatagram@@@std@@@std@@QAEXABUJoint@JointAnglesDatagram@@@Z 0040e070 f i jointanglesdatagram.obj
 0001:0000d0d0       ??$forward@ABUJoint@JointAnglesDatagram@@@std@@YAABUJoint@JointAnglesDatagram@@ABU12@@Z 0040e0d0 f i jointanglesdatagram.obj
 0001:0000d0e0       ??0?$_Vector_alloc@U?$_Vec_base_types@UJoint@JointAnglesDatagram@@V?$allocator@UJoint@JointAnglesDatagram@@@std@@@std@@@std@@QAE@XZ 0040e0e0 f i jointanglesdatagram.obj
 0001:0000d110       ??0?$_Vector_val@U?$_Simple_types@UJoint@JointAnglesDatagram@@@std@@@std@@QAE@XZ 0040e110 f i jointanglesdatagram.obj
 0001:0000d150       ??0?$allocator@UJoint@JointAnglesDatagram@@@std@@QAE@XZ 0040e150 f i jointanglesdatagram.obj
 0001:0000d160       ??0?$vector@UJoint@JointAnglesDatagram@@V?$allocator@UJoint@JointAnglesDatagram@@@std@@@std@@QAE@XZ 0040e160 f i jointanglesdatagram.obj
 0001:0000d1a0       ??1?$_Vector_alloc@U?$_Vec_base_types@UJoint@JointAnglesDatagram@@V?$allocator@UJoint@JointAnglesDatagram@@@std@@@std@@@std@@QAE@XZ 0040e1a0 f i jointanglesdatagram.obj
 0001:0000d1e0       ??1?$vector@UJoint@JointAnglesDatagram@@V?$allocator@UJoint@JointAnglesDatagram@@@std@@@std@@QAE@XZ 0040e1e0 f i jointanglesdatagram.obj
 0001:0000d230       ??_GJointAnglesDatagram@@UAEPAXI@Z 0040e230 f i jointanglesdatagram.obj
 0001:0000d230       ??_EJointAnglesDatagram@@UAEPAXI@Z 0040e230 f i jointanglesdatagram.obj
 0001:0000d260       ?_Alloc_proxy@?$_Vector_alloc@U?$_Vec_base_types@UJoint@JointAnglesDatagram@@V?$allocator@UJoint@JointAnglesDatagram@@@std@@@std@@@std@@QAEXXZ 0040e260 f i jointanglesdatagram.obj
 0001:0000d2e0       ?_Calculate_growth@?$vector@UJoint@JointAnglesDatagram@@V?$allocator@UJoint@JointAnglesDatagram@@@std@@@std@@ABEII@Z 0040e2e0 f i jointanglesdatagram.obj
 0001:0000d330       ?_Change_array@?$vector@UJoint@JointAnglesDatagram@@V?$allocator@UJoint@JointAnglesDatagram@@@std@@@std@@AAEXQAUJoint@JointAnglesDatagram@@II@Z 0040e330 f i jointanglesdatagram.obj
 0001:0000d3d0       ?_Destroy@?$vector@UJoint@JointAnglesDatagram@@V?$allocator@UJoint@JointAnglesDatagram@@@std@@@std@@AAEXPAUJoint@JointAnglesDatagram@@0@Z 0040e3d0 f i jointanglesdatagram.obj
 0001:0000d400       ?_Free_proxy@?$_Vector_alloc@U?$_Vec_base_types@UJoint@JointAnglesDatagram@@V?$allocator@UJoint@JointAnglesDatagram@@@std@@@std@@@std@@QAEXXZ 0040e400 f i jointanglesdatagram.obj
 0001:0000d470       ?_Get_data@?$_Vector_alloc@U?$_Vec_base_types@UJoint@JointAnglesDatagram@@V?$allocator@UJoint@JointAnglesDatagram@@@std@@@std@@@std@@QAEAAV?$_Vector_val@U?$_Simple_types@UJoint@JointAnglesDatagram@@@std@@@2@XZ 0040e470 f i jointanglesdatagram.obj
 0001:0000d490       ?_Get_data@?$_Vector_alloc@U?$_Vec_base_types@UJoint@JointAnglesDatagram@@V?$allocator@UJoint@JointAnglesDatagram@@@std@@@std@@@std@@QBEABV?$_Vector_val@U?$_Simple_types@UJoint@JointAnglesDatagram@@@std@@@2@XZ 0040e490 f i jointanglesdatagram.obj
 0001:0000d4b0       ?_Get_first@?$_Compressed_pair@V?$allocator@UJoint@JointAnglesDatagram@@@std@@V?$_Vector_val@U?$_Simple_types@UJoint@JointAnglesDatagram@@@std@@@2@$00@std@@QAEAAV?$allocator@UJoint@JointAnglesDatagram@@@2@XZ 0040e4b0 f i jointanglesdatagram.obj
 0001:0000d4c0       ?_Get_first@?$_Compressed_pair@V?$allocator@UJoint@JointAnglesDatagram@@@std@@V?$_Vector_val@U?$_Simple_types@UJoint@JointAnglesDatagram@@@std@@@2@$00@std@@QBEABV?$allocator@UJoint@JointAnglesDatagram@@@2@XZ 0040e4c0 f i jointanglesdatagram.obj
 0001:0000d4d0       ?_Get_second@?$_Compressed_pair@V?$allocator@UJoint@JointAnglesDatagram@@@std@@V?$_Vector_val@U?$_Simple_types@UJoint@JointAnglesDatagram@@@std@@@2@$00@std@@QAEAAV?$_Vector_val@U?$_Simple_types@UJoint@JointAnglesDatagram@@@std@@@2@XZ 0040e4d0 f i jointanglesdatagram.obj
 0001:0000d4e0       ?_Get_second@?$_Compressed_pair@V?$allocator@UJoint@JointAnglesDatagram@@@std@@V?$_Vector_val@U?$_Simple_types@UJoint@JointAnglesDatagram@@@std@@@2@$00@std@@QBEABV?$_Vector_val@U?$_Simple_types@UJoint@JointAnglesDatagram@@@std@@@2@XZ 0040e4e0 f i jointanglesdatagram.obj
 0001:0000d4f0       ?_Getal@?$_Vector_alloc@U?$_Vec_base_types@UJoint@JointAnglesDatagram@@V?$allocator@UJoint@JointAnglesDatagram@@@std@@@std@@@std@@QAEAAV?$allocator@UJoint@JointAnglesDatagram@@@2@XZ 0040e4f0 f i jointanglesdatagram.obj
 0001:0000d510       ?_Getal@?$_Vector_alloc@U?$_Vec_base_types@UJoint@JointAnglesDatagram@@V?$allocator@UJoint@JointAnglesDatagram@@@std@@@std@@@std@@QBEABV?$allocator@UJoint@JointAnglesDatagram@@@2@XZ 0040e510 f i jointanglesdatagram.obj
 0001:0000d530       ?_Getpfirst@?$_Vector_alloc@U?$_Vec_base_types@UJoint@JointAnglesDatagram@@V?$allocator@UJoint@JointAnglesDatagram@@@std@@@std@@@std@@QBEPAPAU_Iterator_base12@2@XZ 0040e530 f i jointanglesdatagram.obj
 0001:0000d550       ?_Has_unused_capacity@?$vector@UJoint@JointAnglesDatagram@@V?$allocator@UJoint@JointAnglesDatagram@@@std@@@std@@ABE_NXZ 0040e550 f i jointanglesdatagram.obj
 0001:0000d590       ?_Myend@?$_Vector_alloc@U?$_Vec_base_types@UJoint@JointAnglesDatagram@@V?$allocator@UJoint@JointAnglesDatagram@@@std@@@std@@@std@@QAEAAPAUJoint@JointAnglesDatagram@@XZ 0040e590 f i jointanglesdatagram.obj
 0001:0000d5b0       ?_Myend@?$_Vector_alloc@U?$_Vec_base_types@UJoint@JointAnglesDatagram@@V?$allocator@UJoint@JointAnglesDatagram@@@std@@@std@@@std@@QBEABQAUJoint@JointAnglesDatagram@@XZ 0040e5b0 f i jointanglesdatagram.obj
 0001:0000d5d0       ?_Myfirst@?$_Vector_alloc@U?$_Vec_base_types@UJoint@JointAnglesDatagram@@V?$allocator@UJoint@JointAnglesDatagram@@@std@@@std@@@std@@QAEAAPAUJoint@JointAnglesDatagram@@XZ 0040e5d0 f i jointanglesdatagram.obj
 0001:0000d5f0       ?_Myfirst@?$_Vector_alloc@U?$_Vec_base_types@UJoint@JointAnglesDatagram@@V?$allocator@UJoint@JointAnglesDatagram@@@std@@@std@@@std@@QBEABQAUJoint@JointAnglesDatagram@@XZ 0040e5f0 f i jointanglesdatagram.obj
 0001:0000d610       ?_Mylast@?$_Vector_alloc@U?$_Vec_base_types@UJoint@JointAnglesDatagram@@V?$allocator@UJoint@JointAnglesDatagram@@@std@@@std@@@std@@QAEAAPAUJoint@JointAnglesDatagram@@XZ 0040e610 f i jointanglesdatagram.obj
 0001:0000d630       ?_Mylast@?$_Vector_alloc@U?$_Vec_base_types@UJoint@JointAnglesDatagram@@V?$allocator@UJoint@JointAnglesDatagram@@@std@@@std@@@std@@QBEABQAUJoint@JointAnglesDatagram@@XZ 0040e630 f i jointanglesdatagram.obj
 0001:0000d650       ?_Myproxy@?$_Vector_alloc@U?$_Vec_base_types@UJoint@JointAnglesDatagram@@V?$allocator@UJoint@JointAnglesDatagram@@@std@@@std@@@std@@QAEAAPAU_Container_proxy@2@XZ 0040e650 f i jointanglesdatagram.obj
 0001:0000d670       ?_Orphan_all@?$_Vector_alloc@U?$_Vec_base_types@UJoint@JointAnglesDatagram@@V?$allocator@UJoint@JointAnglesDatagram@@@std@@@std@@@std@@QAEXXZ 0040e670 f i jointanglesdatagram.obj
 0001:0000d690       ?_Orphan_range@?$vector@UJoint@JointAnglesDatagram@@V?$allocator@UJoint@JointAnglesDatagram@@@std@@@std@@ABEXPAUJoint@JointAnglesDatagram@@0@Z 0040e690 f i jointanglesdatagram.obj
 0001:0000d750       ?_Tidy@?$vector@UJoint@JointAnglesDatagram@@V?$allocator@UJoint@JointAnglesDatagram@@@std@@@std@@AAEXXZ 0040e750 f i jointanglesdatagram.obj
 0001:0000d7e0       ?_Umove@?$vector@UJoint@JointAnglesDatagram@@V?$allocator@UJoint@JointAnglesDatagram@@@std@@@std@@AAEPAUJoint@JointAnglesDatagram@@PAU34@00@Z 0040e7e0 f i jointanglesdatagram.obj
 0001:0000d810       ?_Umove_if_noexcept1@?$vector@UJoint@JointAnglesDatagram@@V?$allocator@UJoint@JointAnglesDatagram@@@std@@@std@@AAEXPAUJoint@JointAnglesDatagram@@00U?$integral_constant@_N$00@2@@Z 0040e810 f i jointanglesdatagram.obj
 0001:0000d840       ?_Umove_if_noexcept@?$vector@UJoint@JointAnglesDatagram@@V?$allocator@UJoint@JointAnglesDatagram@@@std@@@std@@AAEXPAUJoint@JointAnglesDatagram@@00@Z 0040e840 f i jointanglesdatagram.obj
 0001:0000d870       ?_Xlength@?$vector@UJoint@JointAnglesDatagram@@V?$allocator@UJoint@JointAnglesDatagram@@@std@@@std@@CAXXZ 0040e870 f i jointanglesdatagram.obj
 0001:0000d880       ?_Xrange@?$vector@UJoint@JointAnglesDatagram@@V?$allocator@UJoint@JointAnglesDatagram@@@std@@@std@@CAXXZ 0040e880 f i jointanglesdatagram.obj
 0001:0000d890       ?allocate@?$allocator@UJoint@JointAnglesDatagram@@@std@@QAEPAUJoint@JointAnglesDatagram@@I@Z 0040e890 f i jointanglesdatagram.obj
 0001:0000d8c0       ?at@?$vector@UJoint@JointAnglesDatagram@@V?$allocator@UJoint@JointAnglesDatagram@@@std@@@std@@QBEABUJoint@JointAnglesDatagram@@I@Z 0040e8c0 f i jointanglesdatagram.obj
 0001:0000d8f0       ?capacity@?$vector@UJoint@JointAnglesDatagram@@V?$allocator@UJoint@JointAnglesDatagram@@@std@@@std@@QBEIXZ 0040e8f0 f i jointanglesdatagram.obj
 0001:0000d920       ?deallocate@?$allocator@UJoint@JointAnglesDatagram@@@std@@QAEXQAUJoint@JointAnglesDatagram@@I@Z 0040e920 f i jointanglesdatagram.obj
 0001:0000d940       ?max_size@?$_Default_allocator_traits@V?$allocator@UJoint@JointAnglesDatagram@@@std@@@std@@SAIABV?$allocator@UJoint@JointAnglesDatagram@@@2@@Z 0040e940 f i jointanglesdatagram.obj
 0001:0000d950       ?max_size@?$vector@UJoint@JointAnglesDatagram@@V?$allocator@UJoint@JointAnglesDatagram@@@std@@@std@@QBEIXZ 0040e950 f i jointanglesdatagram.obj
 0001:0000d990       ?push_back@?$vector@UJoint@JointAnglesDatagram@@V?$allocator@UJoint@JointAnglesDatagram@@@std@@@std@@QAEXABUJoint@JointAnglesDatagram@@@Z 0040e990 f i jointanglesdatagram.obj
 0001:0000d9b0       ?size@?$vector@UJoint@JointAnglesDatagram@@V?$allocator@UJoint@JointAnglesDatagram@@@std@@@std@@QBEIXZ 0040e9b0 f i jointanglesdatagram.obj
 0001:0000d9e0       ??0LinearSegmentKinematicsDatagram@@QAE@XZ 0040e9e0 f   linearsegmentkinematicsdatagram.obj
 0001:0000da50       ??1LinearSegmentKinematicsDatagram@@UAE@XZ 0040ea50 f   linearsegmentkinematicsdatagram.obj
 0001:0000da80       ?printData@LinearSegmentKinematicsDatagram@@UBEXXZ 0040ea80 f   linearsegmentkinematicsdatagram.obj
 0001:0000de70       ?deserializeData@LinearSegmentKinematicsDatagram@@MAEXAAVStreamer@@@Z 0040ee70 f   linearsegmentkinematicsdatagram.obj
 0001:0000df60       ??$?0$$V@?$_Compressed_pair@V?$allocator@UKinematics@LinearSegmentKinematicsDatagram@@@std@@V?$_Vector_val@U?$_Simple_types@UKinematics@LinearSegmentKinematicsDatagram@@@std@@@2@$00@std@@QAE@U_Zero_then_variadic_args_t@1@@Z 0040ef60 f i linearsegmentkinematicsdatagram.obj
 0001:0000df80       ??$?0UKinematics@LinearSegmentKinematicsDatagram@@@?$allocator@U_Container_proxy@std@@@std@@QAE@ABV?$allocator@UKinematics@LinearSegmentKinematicsDatagram@@@1@@Z 0040ef80 f i linearsegmentkinematicsdatagram.obj
 0001:0000df90       ??$_Copy_memmove@PAUKinematics@LinearSegmentKinematicsDatagram@@PAU12@@std@@YAPAUKinematics@LinearSegmentKinematicsDatagram@@PAU12@00@Z 0040ef90 f i linearsegmentkinematicsdatagram.obj
 0001:0000dfd0       ??$_Destroy_range1@V?$allocator@UKinematics@LinearSegmentKinematicsDatagram@@@std@@@std@@YAXPAUKinematics@LinearSegmentKinematicsDatagram@@0AAV?$allocator@UKinematics@LinearSegmentKinematicsDatagram@@@0@U?$integral_constant@_N$00@0@@Z 0040efd0 f i linearsegmentkinematicsdatagram.obj
 0001:0000dfe0       ??$_Destroy_range@V?$allocator@UKinematics@LinearSegmentKinematicsDatagram@@@std@@@std@@YAXPAUKinematics@LinearSegmentKinematicsDatagram@@0AAV?$allocator@UKinematics@LinearSegmentKinematicsDatagram@@@0@@Z 0040efe0 f i linearsegmentkinematicsdatagram.obj
 0001:0000e010       ??$_Emplace_back_with_unused_capacity@ABUKinematics@LinearSegmentKinematicsDatagram@@@?$vector@UKinematics@LinearSegmentKinematicsDatagram@@V?$allocator@UKinematics@LinearSegmentKinematicsDatagram@@@std@@@std@@AAEXABUKinematics@LinearSegmentKinematicsDatagram@@@Z 0040f010 f i linearsegmentkinematicsdatagram.obj
 0001:0000e0a0       ??$_Emplace_reallocate@ABUKinematics@LinearSegmentKinematicsDatagram@@@?$vector@UKinematics@LinearSegmentKinematicsDatagram@@V?$allocator@UKinematics@LinearSegmentKinematicsDatagram@@@std@@@std@@QAEPAUKinematics@LinearSegmentKinematicsDatagram@@QAU23@ABU23@@Z 0040f0a0 f i linearsegmentkinematicsdatagram.obj
 0001:0000e280       ??$_Get_size_of_n@$0CI@@std@@YAII@Z 0040f280 f i linearsegmentkinematicsdatagram.obj
 0001:0000e2b0       ??$_Ptr_move_cat@UKinematics@LinearSegmentKinematicsDatagram@@U12@@std@@YA?AU_Really_trivial_ptr_iterator_tag@0@ABQAUKinematics@LinearSegmentKinematicsDatagram@@0@Z 0040f2b0 f i linearsegmentkinematicsdatagram.obj
 0001:0000e2c0       ??$_Rechecked@PAUKinematics@LinearSegmentKinematicsDatagram@@PAU12@@std@@YAAAPAUKinematics@LinearSegmentKinematicsDatagram@@AAPAU12@QAU12@@Z 0040f2c0 f i linearsegmentkinematicsdatagram.obj
 0001:0000e2d0       ??$_Unchecked@PAUKinematics@LinearSegmentKinematicsDatagram@@@std@@YAPAUKinematics@LinearSegmentKinematicsDatagram@@PAU12@@Z 0040f2d0 f i linearsegmentkinematicsdatagram.obj
 0001:0000e2e0       ??$_Unfancy@UKinematics@LinearSegmentKinematicsDatagram@@@std@@YAPAUKinematics@LinearSegmentKinematicsDatagram@@PAU12@@Z 0040f2e0 f i linearsegmentkinematicsdatagram.obj
 0001:0000e2f0       ??$_Uninitialized_move@PAUKinematics@LinearSegmentKinematicsDatagram@@PAU12@V?$allocator@UKinematics@LinearSegmentKinematicsDatagram@@@std@@@std@@YAPAUKinematics@LinearSegmentKinematicsDatagram@@QAU12@0PAU12@AAV?$allocator@UKinematics@LinearSegmentKinematicsDatagram@@@0@@Z 0040f2f0 f i linearsegmentkinematicsdatagram.obj
 0001:0000e370       ??$_Uninitialized_move_al_unchecked@UKinematics@LinearSegmentKinematicsDatagram@@U12@V?$allocator@UKinematics@LinearSegmentKinematicsDatagram@@@std@@@std@@YAPAUKinematics@LinearSegmentKinematicsDatagram@@QAU12@00AAV?$allocator@UKinematics@LinearSegmentKinematicsDatagram@@@0@U_Really_trivial_ptr_iterator_tag@0@U?$integral_constant@_N$00@0@@Z 0040f370 f i linearsegmentkinematicsdatagram.obj
 0001:0000e390       ??$addressof@V?$_Vector_val@U?$_Simple_types@UKinematics@LinearSegmentKinematicsDatagram@@@std@@@std@@@std@@YAPAV?$_Vector_val@U?$_Simple_types@UKinematics@LinearSegmentKinematicsDatagram@@@std@@@0@AAV10@@Z 0040f390 f i linearsegmentkinematicsdatagram.obj
 0001:0000e3a0       ??$construct@UKinematics@LinearSegmentKinematicsDatagram@@ABU12@@?$_Default_allocator_traits@V?$allocator@UKinematics@LinearSegmentKinematicsDatagram@@@std@@@std@@SAXAAV?$allocator@UKinematics@LinearSegmentKinematicsDatagram@@@1@QAUKinematics@LinearSegmentKinematicsDatagram@@ABU34@@Z 0040f3a0 f i linearsegmentkinematicsdatagram.obj
 0001:0000e3e0       ??$emplace_back@ABUKinematics@LinearSegmentKinematicsDatagram@@@?$vector@UKinematics@LinearSegmentKinematicsDatagram@@V?$allocator@UKinematics@LinearSegmentKinematicsDatagram@@@std@@@std@@QAEXABUKinematics@LinearSegmentKinematicsDatagram@@@Z 0040f3e0 f i linearsegmentkinematicsdatagram.obj
 0001:0000e440       ??$forward@ABUKinematics@LinearSegmentKinematicsDatagram@@@std@@YAABUKinematics@LinearSegmentKinematicsDatagram@@ABU12@@Z 0040f440 f i linearsegmentkinematicsdatagram.obj
 0001:0000e450       ??0?$_Vector_alloc@U?$_Vec_base_types@UKinematics@LinearSegmentKinematicsDatagram@@V?$allocator@UKinematics@LinearSegmentKinematicsDatagram@@@std@@@std@@@std@@QAE@XZ 0040f450 f i linearsegmentkinematicsdatagram.obj
 0001:0000e480       ??0?$_Vector_val@U?$_Simple_types@UKinematics@LinearSegmentKinematicsDatagram@@@std@@@std@@QAE@XZ 0040f480 f i linearsegmentkinematicsdatagram.obj
 0001:0000e4c0       ??0?$allocator@UKinematics@LinearSegmentKinematicsDatagram@@@std@@QAE@XZ 0040f4c0 f i linearsegmentkinematicsdatagram.obj
 0001:0000e4d0       ??0?$vector@UKinematics@LinearSegmentKinematicsDatagram@@V?$allocator@UKinematics@LinearSegmentKinematicsDatagram@@@std@@@std@@QAE@XZ 0040f4d0 f i linearsegmentkinematicsdatagram.obj
 0001:0000e510       ??1?$_Vector_alloc@U?$_Vec_base_types@UKinematics@LinearSegmentKinematicsDatagram@@V?$allocator@UKinematics@LinearSegmentKinematicsDatagram@@@std@@@std@@@std@@QAE@XZ 0040f510 f i linearsegmentkinematicsdatagram.obj
 0001:0000e550       ??1?$vector@UKinematics@LinearSegmentKinematicsDatagram@@V?$allocator@UKinematics@LinearSegmentKinematicsDatagram@@@std@@@std@@QAE@XZ 0040f550 f i linearsegmentkinematicsdatagram.obj
 0001:0000e5a0       ??_ELinearSegmentKinematicsDatagram@@UAEPAXI@Z 0040f5a0 f i linearsegmentkinematicsdatagram.obj
 0001:0000e5a0       ??_GLinearSegmentKinematicsDatagram@@UAEPAXI@Z 0040f5a0 f i linearsegmentkinematicsdatagram.obj
 0001:0000e5d0       ?_Alloc_proxy@?$_Vector_alloc@U?$_Vec_base_types@UKinematics@LinearSegmentKinematicsDatagram@@V?$allocator@UKinematics@LinearSegmentKinematicsDatagram@@@std@@@std@@@std@@QAEXXZ 0040f5d0 f i linearsegmentkinematicsdatagram.obj
 0001:0000e650       ?_Calculate_growth@?$vector@UKinematics@LinearSegmentKinematicsDatagram@@V?$allocator@UKinematics@LinearSegmentKinematicsDatagram@@@std@@@std@@ABEII@Z 0040f650 f i linearsegmentkinematicsdatagram.obj
 0001:0000e6a0       ?_Change_array@?$vector@UKinematics@LinearSegmentKinematicsDatagram@@V?$allocator@UKinematics@LinearSegmentKinematicsDatagram@@@std@@@std@@AAEXQAUKinematics@LinearSegmentKinematicsDatagram@@II@Z 0040f6a0 f i linearsegmentkinematicsdatagram.obj
 0001:0000e740       ?_Destroy@?$vector@UKinematics@LinearSegmentKinematicsDatagram@@V?$allocator@UKinematics@LinearSegmentKinematicsDatagram@@@std@@@std@@AAEXPAUKinematics@LinearSegmentKinematicsDatagram@@0@Z 0040f740 f i linearsegmentkinematicsdatagram.obj
 0001:0000e770       ?_Free_proxy@?$_Vector_alloc@U?$_Vec_base_types@UKinematics@LinearSegmentKinematicsDatagram@@V?$allocator@UKinematics@LinearSegmentKinematicsDatagram@@@std@@@std@@@std@@QAEXXZ 0040f770 f i linearsegmentkinematicsdatagram.obj
 0001:0000e7e0       ?_Get_data@?$_Vector_alloc@U?$_Vec_base_types@UKinematics@LinearSegmentKinematicsDatagram@@V?$allocator@UKinematics@LinearSegmentKinematicsDatagram@@@std@@@std@@@std@@QAEAAV?$_Vector_val@U?$_Simple_types@UKinematics@LinearSegmentKinematicsDatagram@@@std@@@2@XZ 0040f7e0 f i linearsegmentkinematicsdatagram.obj
 0001:0000e800       ?_Get_data@?$_Vector_alloc@U?$_Vec_base_types@UKinematics@LinearSegmentKinematicsDatagram@@V?$allocator@UKinematics@LinearSegmentKinematicsDatagram@@@std@@@std@@@std@@QBEABV?$_Vector_val@U?$_Simple_types@UKinematics@LinearSegmentKinematicsDatagram@@@std@@@2@XZ 0040f800 f i linearsegmentkinematicsdatagram.obj
 0001:0000e820       ?_Get_first@?$_Compressed_pair@V?$allocator@UKinematics@LinearSegmentKinematicsDatagram@@@std@@V?$_Vector_val@U?$_Simple_types@UKinematics@LinearSegmentKinematicsDatagram@@@std@@@2@$00@std@@QAEAAV?$allocator@UKinematics@LinearSegmentKinematicsDatagram@@@2@XZ 0040f820 f i linearsegmentkinematicsdatagram.obj
 0001:0000e830       ?_Get_first@?$_Compressed_pair@V?$allocator@UKinematics@LinearSegmentKinematicsDatagram@@@std@@V?$_Vector_val@U?$_Simple_types@UKinematics@LinearSegmentKinematicsDatagram@@@std@@@2@$00@std@@QBEABV?$allocator@UKinematics@LinearSegmentKinematicsDatagram@@@2@XZ 0040f830 f i linearsegmentkinematicsdatagram.obj
 0001:0000e840       ?_Get_second@?$_Compressed_pair@V?$allocator@UKinematics@LinearSegmentKinematicsDatagram@@@std@@V?$_Vector_val@U?$_Simple_types@UKinematics@LinearSegmentKinematicsDatagram@@@std@@@2@$00@std@@QAEAAV?$_Vector_val@U?$_Simple_types@UKinematics@LinearSegmentKinematicsDatagram@@@std@@@2@XZ 0040f840 f i linearsegmentkinematicsdatagram.obj
 0001:0000e850       ?_Get_second@?$_Compressed_pair@V?$allocator@UKinematics@LinearSegmentKinematicsDatagram@@@std@@V?$_Vector_val@U?$_Simple_types@UKinematics@LinearSegmentKinematicsDatagram@@@std@@@2@$00@std@@QBEABV?$_Vector_val@U?$_Simple_types@UKinematics@LinearSegmentKinematicsDatagram@@@std@@@2@XZ 0040f850 f i linearsegmentkinematicsdatagram.obj
 0001:0000e860       ?_Getal@?$_Vector_alloc@U?$_Vec_base_types@UKinematics@LinearSegmentKinematicsDatagram@@V?$allocator@UKinematics@LinearSegmentKinematicsDatagram@@@std@@@std@@@std@@QAEAAV?$allocator@UKinematics@LinearSegmentKinematicsDatagram@@@2@XZ 0040f860 f i linearsegmentkinematicsdatagram.obj
 0001:0000e880       ?_Getal@?$_Vector_alloc@U?$_Vec_base_types@UKinematics@LinearSegmentKinematicsDatagram@@V?$allocator@UKinematics@LinearSegmentKinematicsDatagram@@@std@@@std@@@std@@QBEABV?$allocator@UKinematics@LinearSegmentKinematicsDatagram@@@2@XZ 0040f880 f i linearsegmentkinematicsdatagram.obj
 0001:0000e8a0       ?_Getpfirst@?$_Vector_alloc@U?$_Vec_base_types@UKinematics@LinearSegmentKinematicsDatagram@@V?$allocator@UKinematics@LinearSegmentKinematicsDatagram@@@std@@@std@@@std@@QBEPAPAU_Iterator_base12@2@XZ 0040f8a0 f i linearsegmentkinematicsdatagram.obj
 0001:0000e8c0       ?_Has_unused_capacity@?$vector@UKinematics@LinearSegmentKinematicsDatagram@@V?$allocator@UKinematics@LinearSegmentKinematicsDatagram@@@std@@@std@@ABE_NXZ 0040f8c0 f i linearsegmentkinematicsdatagram.obj
 0001:0000e900       ?_Myend@?$_Vector_alloc@U?$_Vec_base_types@UKinematics@LinearSegmentKinematicsDatagram@@V?$allocator@UKinematics@LinearSegmentKinematicsDatagram@@@std@@@std@@@std@@QAEAAPAUKinematics@LinearSegmentKinematicsDatagram@@XZ 0040f900 f i linearsegmentkinematicsdatagram.obj
 0001:0000e920       ?_Myend@?$_Vector_alloc@U?$_Vec_base_types@UKinematics@LinearSegmentKinematicsDatagram@@V?$allocator@UKinematics@LinearSegmentKinematicsDatagram@@@std@@@std@@@std@@QBEABQAUKinematics@LinearSegmentKinematicsDatagram@@XZ 0040f920 f i linearsegmentkinematicsdatagram.obj
 0001:0000e940       ?_Myfirst@?$_Vector_alloc@U?$_Vec_base_types@UKinematics@LinearSegmentKinematicsDatagram@@V?$allocator@UKinematics@LinearSegmentKinematicsDatagram@@@std@@@std@@@std@@QAEAAPAUKinematics@LinearSegmentKinematicsDatagram@@XZ 0040f940 f i linearsegmentkinematicsdatagram.obj
 0001:0000e960       ?_Myfirst@?$_Vector_alloc@U?$_Vec_base_types@UKinematics@LinearSegmentKinematicsDatagram@@V?$allocator@UKinematics@LinearSegmentKinematicsDatagram@@@std@@@std@@@std@@QBEABQAUKinematics@LinearSegmentKinematicsDatagram@@XZ 0040f960 f i linearsegmentkinematicsdatagram.obj
 0001:0000e980       ?_Mylast@?$_Vector_alloc@U?$_Vec_base_types@UKinematics@LinearSegmentKinematicsDatagram@@V?$allocator@UKinematics@LinearSegmentKinematicsDatagram@@@std@@@std@@@std@@QAEAAPAUKinematics@LinearSegmentKinematicsDatagram@@XZ 0040f980 f i linearsegmentkinematicsdatagram.obj
 0001:0000e9a0       ?_Mylast@?$_Vector_alloc@U?$_Vec_base_types@UKinematics@LinearSegmentKinematicsDatagram@@V?$allocator@UKinematics@LinearSegmentKinematicsDatagram@@@std@@@std@@@std@@QBEABQAUKinematics@LinearSegmentKinematicsDatagram@@XZ 0040f9a0 f i linearsegmentkinematicsdatagram.obj
 0001:0000e9c0       ?_Myproxy@?$_Vector_alloc@U?$_Vec_base_types@UKinematics@LinearSegmentKinematicsDatagram@@V?$allocator@UKinematics@LinearSegmentKinematicsDatagram@@@std@@@std@@@std@@QAEAAPAU_Container_proxy@2@XZ 0040f9c0 f i linearsegmentkinematicsdatagram.obj
 0001:0000e9e0       ?_Orphan_all@?$_Vector_alloc@U?$_Vec_base_types@UKinematics@LinearSegmentKinematicsDatagram@@V?$allocator@UKinematics@LinearSegmentKinematicsDatagram@@@std@@@std@@@std@@QAEXXZ 0040f9e0 f i linearsegmentkinematicsdatagram.obj
 0001:0000ea00       ?_Orphan_range@?$vector@UKinematics@LinearSegmentKinematicsDatagram@@V?$allocator@UKinematics@LinearSegmentKinematicsDatagram@@@std@@@std@@ABEXPAUKinematics@LinearSegmentKinematicsDatagram@@0@Z 0040fa00 f i linearsegmentkinematicsdatagram.obj
 0001:0000eac0       ?_Tidy@?$vector@UKinematics@LinearSegmentKinematicsDatagram@@V?$allocator@UKinematics@LinearSegmentKinematicsDatagram@@@std@@@std@@AAEXXZ 0040fac0 f i linearsegmentkinematicsdatagram.obj
 0001:0000eb50       ?_Umove@?$vector@UKinematics@LinearSegmentKinematicsDatagram@@V?$allocator@UKinematics@LinearSegmentKinematicsDatagram@@@std@@@std@@AAEPAUKinematics@LinearSegmentKinematicsDatagram@@PAU34@00@Z 0040fb50 f i linearsegmentkinematicsdatagram.obj
 0001:0000eb80       ?_Umove_if_noexcept1@?$vector@UKinematics@LinearSegmentKinematicsDatagram@@V?$allocator@UKinematics@LinearSegmentKinematicsDatagram@@@std@@@std@@AAEXPAUKinematics@LinearSegmentKinematicsDatagram@@00U?$integral_constant@_N$00@2@@Z 0040fb80 f i linearsegmentkinematicsdatagram.obj
 0001:0000ebb0       ?_Umove_if_noexcept@?$vector@UKinematics@LinearSegmentKinematicsDatagram@@V?$allocator@UKinematics@LinearSegmentKinematicsDatagram@@@std@@@std@@AAEXPAUKinematics@LinearSegmentKinematicsDatagram@@00@Z 0040fbb0 f i linearsegmentkinematicsdatagram.obj
 0001:0000ebe0       ?_Xlength@?$vector@UKinematics@LinearSegmentKinematicsDatagram@@V?$allocator@UKinematics@LinearSegmentKinematicsDatagram@@@std@@@std@@CAXXZ 0040fbe0 f i linearsegmentkinematicsdatagram.obj
 0001:0000ebf0       ?_Xrange@?$vector@UKinematics@LinearSegmentKinematicsDatagram@@V?$allocator@UKinematics@LinearSegmentKinematicsDatagram@@@std@@@std@@CAXXZ 0040fbf0 f i linearsegmentkinematicsdatagram.obj
 0001:0000ec00       ?allocate@?$allocator@UKinematics@LinearSegmentKinematicsDatagram@@@std@@QAEPAUKinematics@LinearSegmentKinematicsDatagram@@I@Z 0040fc00 f i linearsegmentkinematicsdatagram.obj
 0001:0000ec30       ?at@?$vector@UKinematics@LinearSegmentKinematicsDatagram@@V?$allocator@UKinematics@LinearSegmentKinematicsDatagram@@@std@@@std@@QBEABUKinematics@LinearSegmentKinematicsDatagram@@I@Z 0040fc30 f i linearsegmentkinematicsdatagram.obj
 0001:0000ec60       ?capacity@?$vector@UKinematics@LinearSegmentKinematicsDatagram@@V?$allocator@UKinematics@LinearSegmentKinematicsDatagram@@@std@@@std@@QBEIXZ 0040fc60 f i linearsegmentkinematicsdatagram.obj
 0001:0000ec90       ?deallocate@?$allocator@UKinematics@LinearSegmentKinematicsDatagram@@@std@@QAEXQAUKinematics@LinearSegmentKinematicsDatagram@@I@Z 0040fc90 f i linearsegmentkinematicsdatagram.obj
 0001:0000ecb0       ?max_size@?$_Default_allocator_traits@V?$allocator@UKinematics@LinearSegmentKinematicsDatagram@@@std@@@std@@SAIABV?$allocator@UKinematics@LinearSegmentKinematicsDatagram@@@2@@Z 0040fcb0 f i linearsegmentkinematicsdatagram.obj
 0001:0000ecc0       ?max_size@?$vector@UKinematics@LinearSegmentKinematicsDatagram@@V?$allocator@UKinematics@LinearSegmentKinematicsDatagram@@@std@@@std@@QBEIXZ 0040fcc0 f i linearsegmentkinematicsdatagram.obj
 0001:0000ed00       ?push_back@?$vector@UKinematics@LinearSegmentKinematicsDatagram@@V?$allocator@UKinematics@LinearSegmentKinematicsDatagram@@@std@@@std@@QAEXABUKinematics@LinearSegmentKinematicsDatagram@@@Z 0040fd00 f i linearsegmentkinematicsdatagram.obj
 0001:0000ed20       ?size@?$vector@UKinematics@LinearSegmentKinematicsDatagram@@V?$allocator@UKinematics@LinearSegmentKinematicsDatagram@@@std@@@std@@QBEIXZ 0040fd20 f i linearsegmentkinematicsdatagram.obj
 0001:0000ed50       _main                      0040fd50 f   main.obj
 0001:0000ef00       ??0?$XsArrayImpl@D$1?g_xsStringDescriptor@@3UXsArrayDescriptor@@BUXsString@@@@QAE@IPBD@Z 0040ff00 f i main.obj
 0001:0000ef30       ??0XsArray@@QAE@PBUXsArrayDescriptor@@IPBX@Z 0040ff30 f i main.obj
 0001:0000ef90       ??0XsString@@QAE@ABV?$basic_string@DU?$char_traits@D@std@@V?$allocator@D@2@@std@@@Z 0040ff90 f i main.obj
 0001:0000f020       ?empty@?$basic_string@DU?$char_traits@D@std@@V?$allocator@D@2@@std@@QBE_NXZ 00410020 f i main.obj
 0001:0000f050       ?msleep@XsTime@@YAXI@Z     00410050 f i main.obj
 0001:0000f070       ??0MetaDatagram@@QAE@XZ    00410070 f   metadatagram.obj
 0001:0000f0f0       ??1MetaDatagram@@UAE@XZ    004100f0 f   metadatagram.obj
 0001:0000f120       ?printData@MetaDatagram@@UBEXXZ 00410120 f   metadatagram.obj
 0001:0000f4e0       ?deserializeData@MetaDatagram@@MAEXAAVStreamer@@@Z 004104e0 f   metadatagram.obj
 0001:0000f810       ?split@MetaDatagram@@AAE?AV?$vector@V?$basic_string@DU?$char_traits@D@std@@V?$allocator@D@2@@std@@V?$allocator@V?$basic_string@DU?$char_traits@D@std@@V?$allocator@D@2@@std@@@2@@std@@V?$basic_string@DU?$char_traits@D@std@@V?$allocator@D@2@@3@D@Z 00410810 f   metadatagram.obj
 0001:0000f930       ?join@MetaDatagram@@AAE?AV?$basic_string@DU?$char_traits@D@std@@V?$allocator@D@2@@std@@V?$vector@V?$basic_string@DU?$char_traits@D@std@@V?$allocator@D@2@@std@@V?$allocator@V?$basic_string@DU?$char_traits@D@std@@V?$allocator@D@2@@std@@@2@@3@PAD@Z 00410930 f   metadatagram.obj
 0001:0000fa10       ?itemData@MetaDatagram@@ABE?AV?$basic_string@DU?$char_traits@D@std@@V?$allocator@D@2@@std@@ABV23@@Z 00410a10 f   metadatagram.obj
 0001:0000fad0       ?hasItem@MetaDatagram@@ABE_NABV?$basic_string@DU?$char_traits@D@std@@V?$allocator@D@2@@std@@@Z 00410ad0 f   metadatagram.obj
 0001:0000fb80       ?itemCount@MetaDatagram@@ABEHXZ 00410b80 f   metadatagram.obj
 0001:0000fba0       ??$?0$$V@?$_Compressed_pair@V?$allocator@U?$_Tree_node@U?$pair@$$CBV?$basic_string@DU?$char_traits@D@std@@V?$allocator@D@2@@std@@V12@@std@@PAX@std@@@std@@V?$_Tree_val@U?$_Tree_simple_types@U?$pair@$$CBV?$basic_string@DU?$char_traits@D@std@@V?$allocator@D@2@@std@@V12@@std@@@std@@@2@$00@std@@QAE@U_Zero_then_variadic_args_t@1@@Z 00410ba0 f i metadatagram.obj
 0001:0000fbc0       ??$?0$$V@?$_Compressed_pair@V?$allocator@V?$basic_string@DU?$char_traits@D@std@@V?$allocator@D@2@@std@@@std@@V?$_Vector_val@U?$_Simple_types@V?$basic_string@DU?$char_traits@D@std@@V?$allocator@D@2@@std@@@std@@@2@$00@std@@QAE@U_Zero_then_variadic_args_t@1@@Z 00410bc0 f i metadatagram.obj
 0001:0000fbe0       ??$?0AAV?$_Tree_iterator@V?$_Tree_val@U?$_Tree_simple_types@U?$pair@$$CBV?$basic_string@DU?$char_traits@D@std@@V?$allocator@D@2@@std@@V12@@std@@@std@@@std@@@std@@_N$0A@@?$pair@V?$_Tree_iterator@V?$_Tree_val@U?$_Tree_simple_types@U?$pair@$$CBV?$basic_string@DU?$char_traits@D@std@@V?$allocator@D@2@@std@@V12@@std@@@std@@@std@@@std@@_N@std@@QAE@AAV?$_Tree_iterator@V?$_Tree_val@U?$_Tree_simple_types@U?$pair@$$CBV?$basic_string@DU?$char_traits@D@std@@V?$allocator@D@2@@std@@V12@@std@@@std@@@std@@@1@$$QA_N@Z 00410be0 f i metadatagram.obj
 0001:0000fc20       ??$?0AAV?$basic_string@DU?$char_traits@D@std@@V?$allocator@D@2@@std@@AAV01@$0A@@?$pair@V?$basic_string@DU?$char_traits@D@std@@V?$allocator@D@2@@std@@V12@@std@@QAE@AAV?$basic_string@DU?$char_traits@D@std@@V?$allocator@D@2@@1@0@Z 00410c20 f i metadatagram.obj
 0001:0000fca0       ??$?0ABU?$less@V?$basic_string@DU?$char_traits@D@std@@V?$allocator@D@2@@std@@@std@@U_Zero_then_variadic_args_t@1@@?$_Compressed_pair@U?$less@V?$basic_string@DU?$char_traits@D@std@@V?$allocator@D@2@@std@@@std@@V?$_Compressed_pair@V?$allocator@U?$_Tree_node@U?$pair@$$CBV?$basic_string@DU?$char_traits@D@std@@V?$allocator@D@2@@std@@V12@@std@@PAX@std@@@std@@V?$_Tree_val@U?$_Tree_simple_types@U?$pair@$$CBV?$basic_string@DU?$char_traits@D@std@@V?$allocator@D@2@@std@@V12@@std@@@std@@@2@$00@2@$00@std@@QAE@U_One_then_variadic_args_t@1@ABU?$less@V?$basic_string@DU?$char_traits@D@std@@V?$allocator@D@2@@std@@@1@$$QAU_Zero_then_variadic_args_t@1@@Z 00410ca0 f i metadatagram.obj
 0001:0000fce0       ??$?0PADX@?$basic_string@DU?$char_traits@D@std@@V?$allocator@D@2@@std@@QAE@PAD0ABV?$allocator@D@1@@Z 00410ce0 f i metadatagram.obj
 0001:0000fd80       ??$?0U?$_Tree_node@U?$pair@$$CBV?$basic_string@DU?$char_traits@D@std@@V?$allocator@D@2@@std@@V12@@std@@PAX@std@@@?$allocator@U_Container_proxy@std@@@std@@QAE@ABV?$allocator@U?$_Tree_node@U?$pair@$$CBV?$basic_string@DU?$char_traits@D@std@@V?$allocator@D@2@@std@@V12@@std@@PAX@std@@@1@@Z 00410d80 f i metadatagram.obj
 0001:0000fd90       ??$?0U?$integral_constant@_N$00@std@@@_Unused_parameter@std@@QAE@$$QAU?$integral_constant@_N$00@1@@Z 00410d90 f i metadatagram.obj
 0001:0000fda0       ??$?0V?$_Tree_iterator@V?$_Tree_val@U?$_Tree_simple_types@U?$pair@$$CBV?$basic_string@DU?$char_traits@D@std@@V?$allocator@D@2@@std@@V12@@std@@@std@@@std@@@std@@_N$0A@@?$pair@V?$_Tree_iterator@V?$_Tree_val@U?$_Tree_simple_types@U?$pair@$$CBV?$basic_string@DU?$char_traits@D@std@@V?$allocator@D@2@@std@@V12@@std@@@std@@@std@@@std@@_N@std@@QAE@$$QAV?$_Tree_iterator@V?$_Tree_val@U?$_Tree_simple_types@U?$pair@$$CBV?$basic_string@DU?$char_traits@D@std@@V?$allocator@D@2@@std@@V12@@std@@@std@@@std@@@1@$$QA_N@Z 00410da0 f i metadatagram.obj
 0001:0000fde0       ??$?0V?$allocator@V?$basic_string@DU?$char_traits@D@std@@V?$allocator@D@2@@std@@@std@@$$V@?$_Compressed_pair@V?$allocator@V?$basic_string@DU?$char_traits@D@std@@V?$allocator@D@2@@std@@@std@@V?$_Vector_val@U?$_Simple_types@V?$basic_string@DU?$char_traits@D@std@@V?$allocator@D@2@@std@@@std@@@2@$00@std@@QAE@U_One_then_variadic_args_t@1@$$QAV?$allocator@V?$basic_string@DU?$char_traits@D@std@@V?$allocator@D@2@@std@@@1@@Z 00410de0 f i metadatagram.obj
 0001:0000fe10       ??$?0V?$allocator@V?$basic_string@DU?$char_traits@D@std@@V?$allocator@D@2@@std@@@std@@X@?$_Vector_alloc@U?$_Vec_base_types@V?$basic_string@DU?$char_traits@D@std@@V?$allocator@D@2@@std@@V?$allocator@V?$basic_string@DU?$char_traits@D@std@@V?$allocator@D@2@@std@@@2@@std@@@std@@QAE@$$QAV?$allocator@V?$basic_string@DU?$char_traits@D@std@@V?$allocator@D@2@@std@@@1@@Z 00410e10 f i metadatagram.obj
 0001:0000fe50       ??$?0V?$basic_string@DU?$char_traits@D@std@@V?$allocator@D@2@@std@@@?$allocator@U_Container_proxy@std@@@std@@QAE@ABV?$allocator@V?$basic_string@DU?$char_traits@D@std@@V?$allocator@D@2@@std@@@1@@Z 00410e50 f i metadatagram.obj
 0001:0000fe60       ??$?0V?$basic_string@DU?$char_traits@D@std@@V?$allocator@D@2@@std@@V01@$0A@@?$pair@$$CBV?$basic_string@DU?$char_traits@D@std@@V?$allocator@D@2@@std@@V12@@std@@QAE@$$QAU?$pair@V?$basic_string@DU?$char_traits@D@std@@V?$allocator@D@2@@std@@V12@@1@@Z 00410e60 f i metadatagram.obj
 0001:0000fea0       ??$?MDU?$char_traits@D@std@@V?$allocator@D@1@@std@@YA_NABV?$basic_string@DU?$char_traits@D@std@@V?$allocator@D@2@@0@0@Z 00410ea0 f i metadatagram.obj
 0001:0000fed0       ??$_Buy_if_not_node@AAU?$pair@$$CBV?$basic_string@DU?$char_traits@D@std@@V?$allocator@D@2@@std@@V12@@std@@@?$_Tree@V?$_Tmap_traits@V?$basic_string@DU?$char_traits@D@std@@V?$allocator@D@2@@std@@V12@U?$less@V?$basic_string@DU?$char_traits@D@std@@V?$allocator@D@2@@std@@@2@V?$allocator@U?$pair@$$CBV?$basic_string@DU?$char_traits@D@std@@V?$allocator@D@2@@std@@V12@@std@@@2@$0A@@std@@@std@@IAEPAU?$_Tree_node@U?$pair@$$CBV?$basic_string@DU?$char_traits@D@std@@V?$allocator@D@2@@std@@V12@@std@@PAX@1@PAU21@AAU?$pair@$$CBV?$basic_string@DU?$char_traits@D@std@@V?$allocator@D@2@@std@@V12@@1@@Z 00410ed0 f i metadatagram.obj
 0001:0000fee0       ??$_Buynode@AAU?$pair@$$CBV?$basic_string@DU?$char_traits@D@std@@V?$allocator@D@2@@std@@V12@@std@@@?$_Tree_comp_alloc@V?$_Tmap_traits@V?$basic_string@DU?$char_traits@D@std@@V?$allocator@D@2@@std@@V12@U?$less@V?$basic_string@DU?$char_traits@D@std@@V?$allocator@D@2@@std@@@2@V?$allocator@U?$pair@$$CBV?$basic_string@DU?$char_traits@D@std@@V?$allocator@D@2@@std@@V12@@std@@@2@$0A@@std@@@std@@QAEPAU?$_Tree_node@U?$pair@$$CBV?$basic_string@DU?$char_traits@D@std@@V?$allocator@D@2@@std@@V12@@std@@PAX@1@AAU?$pair@$$CBV?$basic_string@DU?$char_traits@D@std@@V?$allocator@D@2@@std@@V12@@1@@Z 00410ee0 f i metadatagram.obj
 0001:0000ffb0       ??$_Buynode@U?$pair@V?$basic_string@DU?$char_traits@D@std@@V?$allocator@D@2@@std@@V12@@std@@@?$_Tree_comp_alloc@V?$_Tmap_traits@V?$basic_string@DU?$char_traits@D@std@@V?$allocator@D@2@@std@@V12@U?$less@V?$basic_string@DU?$char_traits@D@std@@V?$allocator@D@2@@std@@@2@V?$allocator@U?$pair@$$CBV?$basic_string@DU?$char_traits@D@std@@V?$allocator@D@2@@std@@V12@@std@@@2@$0A@@std@@@std@@QAEPAU?$_Tree_node@U?$pair@$$CBV?$basic_string@DU?$char_traits@D@std@@V?$allocator@D@2@@std@@V12@@std@@PAX@1@$$QAU?$pair@V?$basic_string@DU?$char_traits@D@std@@V?$allocator@D@2@@std@@V12@@1@@Z 00410fb0 f i metadatagram.obj
 0001:00010080       ??$_Copy@U_Copy_tag@?$_Tree@V?$_Tmap_traits@V?$basic_string@DU?$char_traits@D@std@@V?$allocator@D@2@@std@@V12@U?$less@V?$basic_string@DU?$char_traits@D@std@@V?$allocator@D@2@@std@@@2@V?$allocator@U?$pair@$$CBV?$basic_string@DU?$char_traits@D@std@@V?$allocator@D@2@@std@@V12@@std@@@2@$0A@@std@@@std@@@?$_Tree@V?$_Tmap_traits@V?$basic_string@DU?$char_traits@D@std@@V?$allocator@D@2@@std@@V12@U?$less@V?$basic_string@DU?$char_traits@D@std@@V?$allocator@D@2@@std@@@2@V?$allocator@U?$pair@$$CBV?$basic_string@DU?$char_traits@D@std@@V?$allocator@D@2@@std@@V12@@std@@@2@$0A@@std@@@std@@IAEXABV01@U_Copy_tag@01@@Z 00411080 f i metadatagram.obj
 0001:00010150       ??$_Copy_nodes@U_Copy_tag@?$_Tree@V?$_Tmap_traits@V?$basic_string@DU?$char_traits@D@std@@V?$allocator@D@2@@std@@V12@U?$less@V?$basic_string@DU?$char_traits@D@std@@V?$allocator@D@2@@std@@@2@V?$allocator@U?$pair@$$CBV?$basic_string@DU?$char_traits@D@std@@V?$allocator@D@2@@std@@V12@@std@@@2@$0A@@std@@@std@@@?$_Tree@V?$_Tmap_traits@V?$basic_string@DU?$char_traits@D@std@@V?$allocator@D@2@@std@@V12@U?$less@V?$basic_string@DU?$char_traits@D@std@@V?$allocator@D@2@@std@@@2@V?$allocator@U?$pair@$$CBV?$basic_string@DU?$char_traits@D@std@@V?$allocator@D@2@@std@@V12@@std@@@2@$0A@@std@@@std@@IAEPAU?$_Tree_node@U?$pair@$$CBV?$basic_string@DU?$char_traits@D@std@@V?$allocator@D@2@@std@@V12@@std@@PAX@1@PAU21@0U_Copy_tag@01@@Z 00411150 f i metadatagram.obj
 0001:00010270       ??$_Copy_or_move@U?$pair@$$CBV?$basic_string@DU?$char_traits@D@std@@V?$allocator@D@2@@std@@V12@@std@@U?$integral_constant@_N$0A@@2@@?$_Tree@V?$_Tmap_traits@V?$basic_string@DU?$char_traits@D@std@@V?$allocator@D@2@@std@@V12@U?$less@V?$basic_string@DU?$char_traits@D@std@@V?$allocator@D@2@@std@@@2@V?$allocator@U?$pair@$$CBV?$basic_string@DU?$char_traits@D@std@@V?$allocator@D@2@@std@@V12@@std@@@2@$0A@@std@@@std@@IAEPAU?$_Tree_node@U?$pair@$$CBV?$basic_string@DU?$char_traits@D@std@@V?$allocator@D@2@@std@@V12@@std@@PAX@1@AAU?$pair@$$CBV?$basic_string@DU?$char_traits@D@std@@V?$allocator@D@2@@std@@V12@@1@U_Copy_tag@01@U?$integral_constant@_N$0A@@1@@Z 00411270 f i metadatagram.obj
 0001:00010290       ??$_Debug_lt_pred@AAU?$less@V?$basic_string@DU?$char_traits@D@std@@V?$allocator@D@2@@std@@@std@@ABV?$basic_string@DU?$char_traits@D@std@@V?$allocator@D@2@@2@ABV32@@std@@YA_NAAU?$less@V?$basic_string@DU?$char_traits@D@std@@V?$allocator@D@2@@std@@@0@ABV?$basic_string@DU?$char_traits@D@std@@V?$allocator@D@2@@0@1PB_WI@Z 00411290 f i metadatagram.obj
 0001:00010320       ??$_Debug_lt_pred@ABU?$less@V?$basic_string@DU?$char_traits@D@std@@V?$allocator@D@2@@std@@@std@@ABV?$basic_string@DU?$char_traits@D@std@@V?$allocator@D@2@@2@ABV32@@std@@YA_NABU?$less@V?$basic_string@DU?$char_traits@D@std@@V?$allocator@D@2@@std@@@0@ABV?$basic_string@DU?$char_traits@D@std@@V?$allocator@D@2@@0@1PB_WI@Z 00411320 f i metadatagram.obj
 0001:000103b0       ??$_Debug_range2@PAD@std@@YAXPAD0PB_WIUrandom_access_iterator_tag@0@@Z 004113b0 f i metadatagram.obj
 0001:00010400       ??$_Debug_range@PAD@std@@YAXPAD0PB_WI@Z 00411400 f i metadatagram.obj
 0001:00010430       ??$_Destroy_range1@V?$allocator@V?$basic_string@DU?$char_traits@D@std@@V?$allocator@D@2@@std@@@std@@@std@@YAXPAV?$basic_string@DU?$char_traits@D@std@@V?$allocator@D@2@@0@0AAV?$allocator@V?$basic_string@DU?$char_traits@D@std@@V?$allocator@D@2@@std@@@0@U?$integral_constant@_N$0A@@0@@Z 00411430 f i metadatagram.obj
 0001:00010470       ??$_Destroy_range@V?$allocator@V?$basic_string@DU?$char_traits@D@std@@V?$allocator@D@2@@std@@@std@@@std@@YAXPAV?$basic_string@DU?$char_traits@D@std@@V?$allocator@D@2@@0@0AAV?$allocator@V?$basic_string@DU?$char_traits@D@std@@V?$allocator@D@2@@std@@@0@@Z 00411470 f i metadatagram.obj
 0001:000104a0       ??$_Emplace_back@AAV?$basic_string@DU?$char_traits@D@std@@V?$allocator@D@2@@std@@@?$_Uninitialized_backout_al@PAV?$basic_string@DU?$char_traits@D@std@@V?$allocator@D@2@@std@@V?$allocator@V?$basic_string@DU?$char_traits@D@std@@V?$allocator@D@2@@std@@@2@@std@@QAEXAAV?$basic_string@DU?$char_traits@D@std@@V?$allocator@D@2@@1@@Z 004114a0 f i metadatagram.obj
 0001:000104f0       ??$_Emplace_back@V?$basic_string@DU?$char_traits@D@std@@V?$allocator@D@2@@std@@@?$_Uninitialized_backout_al@PAV?$basic_string@DU?$char_traits@D@std@@V?$allocator@D@2@@std@@V?$allocator@V?$basic_string@DU?$char_traits@D@std@@V?$allocator@D@2@@std@@@2@@std@@QAEX$$QAV?$basic_string@DU?$char_traits@D@std@@V?$allocator@D@2@@1@@Z 004114f0 f i metadatagram.obj
 0001:00010540       ??$_Emplace_back_with_unused_capacity@ABV?$basic_string@DU?$char_traits@D@std@@V?$allocator@D@2@@std@@@?$vector@V?$basic_string@DU?$char_traits@D@std@@V?$allocator@D@2@@std@@V?$allocator@V?$basic_string@DU?$char_traits@D@std@@V?$allocator@D@2@@std@@@2@@std@@AAEXABV?$basic_string@DU?$char_traits@D@std@@V?$allocator@D@2@@1@@Z 00411540 f i metadatagram.obj
 0001:000105d0       ??$_Emplace_reallocate@ABV?$basic_string@DU?$char_traits@D@std@@V?$allocator@D@2@@std@@@?$vector@V?$basic_string@DU?$char_traits@D@std@@V?$allocator@D@2@@std@@V?$allocator@V?$basic_string@DU?$char_traits@D@std@@V?$allocator@D@2@@std@@@2@@std@@QAEPAV?$basic_string@DU?$char_traits@D@std@@V?$allocator@D@2@@1@QAV21@ABV21@@Z 004115d0 f i metadatagram.obj
 0001:000107b0       ??$_Freenode0@V?$allocator@U?$_Tree_node@U?$pair@$$CBV?$basic_string@DU?$char_traits@D@std@@V?$allocator@D@2@@std@@V12@@std@@PAX@std@@@std@@@?$_Tree_node@U?$pair@$$CBV?$basic_string@DU?$char_traits@D@std@@V?$allocator@D@2@@std@@V12@@std@@PAX@std@@SAXAAV?$allocator@U?$_Tree_node@U?$pair@$$CBV?$basic_string@DU?$char_traits@D@std@@V?$allocator@D@2@@std@@V12@@std@@PAX@std@@@1@PAU01@@Z 004117b0 f i metadatagram.obj
 0001:00010850       ??$_Get_size_of_n@$0EI@@std@@YAII@Z 00411850 f i metadatagram.obj
 0001:00010880       ??$_Insert_at@AAU?$pair@$$CBV?$basic_string@DU?$char_traits@D@std@@V?$allocator@D@2@@std@@V12@@std@@PAU?$_Tree_node@U?$pair@$$CBV?$basic_string@DU?$char_traits@D@std@@V?$allocator@D@2@@std@@V12@@std@@PAX@2@@?$_Tree@V?$_Tmap_traits@V?$basic_string@DU?$char_traits@D@std@@V?$allocator@D@2@@std@@V12@U?$less@V?$basic_string@DU?$char_traits@D@std@@V?$allocator@D@2@@std@@@2@V?$allocator@U?$pair@$$CBV?$basic_string@DU?$char_traits@D@std@@V?$allocator@D@2@@std@@V12@@std@@@2@$0A@@std@@@std@@IAE?AV?$_Tree_iterator@V?$_Tree_val@U?$_Tree_simple_types@U?$pair@$$CBV?$basic_string@DU?$char_traits@D@std@@V?$allocator@D@2@@std@@V12@@std@@@std@@@std@@@1@_NPAU?$_Tree_node@U?$pair@$$CBV?$basic_string@DU?$char_traits@D@std@@V?$allocator@D@2@@std@@V12@@std@@PAX@1@AAU?$pair@$$CBV?$basic_string@DU?$char_traits@D@std@@V?$allocator@D@2@@std@@V12@@1@1@Z 00411880 f i metadatagram.obj
 0001:00010b20       ??$_Insert_nohint@AAU?$pair@$$CBV?$basic_string@DU?$char_traits@D@std@@V?$allocator@D@2@@std@@V12@@std@@PAU?$_Tree_node@U?$pair@$$CBV?$basic_string@DU?$char_traits@D@std@@V?$allocator@D@2@@std@@V12@@std@@PAX@2@@?$_Tree@V?$_Tmap_traits@V?$basic_string@DU?$char_traits@D@std@@V?$allocator@D@2@@std@@V12@U?$less@V?$basic_string@DU?$char_traits@D@std@@V?$allocator@D@2@@std@@@2@V?$allocator@U?$pair@$$CBV?$basic_string@DU?$char_traits@D@std@@V?$allocator@D@2@@std@@V12@@std@@@2@$0A@@std@@@std@@IAE?AU?$pair@V?$_Tree_iterator@V?$_Tree_val@U?$_Tree_simple_types@U?$pair@$$CBV?$basic_string@DU?$char_traits@D@std@@V?$allocator@D@2@@std@@V12@@std@@@std@@@std@@@std@@_N@1@_NAAU?$pair@$$CBV?$basic_string@DU?$char_traits@D@std@@V?$allocator@D@2@@std@@V12@@1@PAU?$_Tree_node@U?$pair@$$CBV?$basic_string@DU?$char_traits@D@std@@V?$allocator@D@2@@std@@V12@@std@@PAX@1@@Z 00411b20 f i metadatagram.obj
 0001:00010f00       ??$_Integral_to_string@DH@std@@YA?AV?$basic_string@DU?$char_traits@D@std@@V?$allocator@D@2@@0@H@Z 00411f00 f i metadatagram.obj
 0001:00010fb0       ??$_Kfn@$$CBV?$basic_string@DU?$char_traits@D@std@@V?$allocator@D@2@@std@@V12@@?$_Tmap_traits@V?$basic_string@DU?$char_traits@D@std@@V?$allocator@D@2@@std@@V12@U?$less@V?$basic_string@DU?$char_traits@D@std@@V?$allocator@D@2@@std@@@2@V?$allocator@U?$pair@$$CBV?$basic_string@DU?$char_traits@D@std@@V?$allocator@D@2@@std@@V12@@std@@@2@$0A@@std@@SAABV?$basic_string@DU?$char_traits@D@std@@V?$allocator@D@2@@1@ABU?$pair@$$CBV?$basic_string@DU?$char_traits@D@std@@V?$allocator@D@2@@std@@V12@@1@@Z 00411fb0 f i metadatagram.obj
 0001:00010fc0       ??$_Lbound@V?$basic_string@DU?$char_traits@D@std@@V?$allocator@D@2@@std@@@?$_Tree@V?$_Tmap_traits@V?$basic_string@DU?$char_traits@D@std@@V?$allocator@D@2@@std@@V12@U?$less@V?$basic_string@DU?$char_traits@D@std@@V?$allocator@D@2@@std@@@2@V?$allocator@U?$pair@$$CBV?$basic_string@DU?$char_traits@D@std@@V?$allocator@D@2@@std@@V12@@std@@@2@$0A@@std@@@std@@IBEPAU?$_Tree_node@U?$pair@$$CBV?$basic_string@DU?$char_traits@D@std@@V?$allocator@D@2@@std@@V12@@std@@PAX@1@ABV?$basic_string@DU?$char_traits@D@std@@V?$allocator@D@2@@1@@Z 00411fc0 f i metadatagram.obj
 0001:00011030       ??$_Pocca@V?$allocator@D@std@@@std@@YAXAAV?$allocator@D@0@ABV10@@Z 00412030 f i metadatagram.obj
 0001:00011050       ??$_Pocca@V?$allocator@D@std@@@std@@YAXAAV?$allocator@D@0@ABV10@U?$integral_constant@_N$0A@@0@@Z 00412050 f i metadatagram.obj
 0001:00011060       ??$_Pocca@V?$allocator@U?$_Tree_node@U?$pair@$$CBV?$basic_string@DU?$char_traits@D@std@@V?$allocator@D@2@@std@@V12@@std@@PAX@std@@@std@@@std@@YAXAAV?$allocator@U?$_Tree_node@U?$pair@$$CBV?$basic_string@DU?$char_traits@D@std@@V?$allocator@D@2@@std@@V12@@std@@PAX@std@@@0@ABV10@@Z 00412060 f i metadatagram.obj
 0001:00011080       ??$_Pocca@V?$allocator@U?$_Tree_node@U?$pair@$$CBV?$basic_string@DU?$char_traits@D@std@@V?$allocator@D@2@@std@@V12@@std@@PAX@std@@@std@@@std@@YAXAAV?$allocator@U?$_Tree_node@U?$pair@$$CBV?$basic_string@DU?$char_traits@D@std@@V?$allocator@D@2@@std@@V12@@std@@PAX@std@@@0@ABV10@U?$integral_constant@_N$0A@@0@@Z 00412080 f i metadatagram.obj
 0001:00011090       ??$_Ptr_copy_cat@V?$basic_string@DU?$char_traits@D@std@@V?$allocator@D@2@@std@@V12@@std@@YA?AU_General_ptr_iterator_tag@0@ABQAV?$basic_string@DU?$char_traits@D@std@@V?$allocator@D@2@@0@0@Z 00412090 f i metadatagram.obj
 0001:000110a0       ??$_Ptr_move_cat@V?$basic_string@DU?$char_traits@D@std@@V?$allocator@D@2@@std@@V12@@std@@YA?AU_General_ptr_iterator_tag@0@ABQAV?$basic_string@DU?$char_traits@D@std@@V?$allocator@D@2@@0@0@Z 004120a0 f i metadatagram.obj
 0001:00011550       ??$_Rechecked@PAV?$basic_string@DU?$char_traits@D@std@@V?$allocator@D@2@@std@@PAV12@@std@@YAAAPAV?$basic_string@DU?$char_traits@D@std@@V?$allocator@D@2@@0@AAPAV10@QAV10@@Z 00412550 f i metadatagram.obj
 0001:00011560       ??$_Traits_compare@U?$char_traits@D@std@@@std@@YAHQBDI0I@Z 00412560 f i metadatagram.obj
 0001:000115c0       ??$_UIntegral_to_buff@DI@std@@YAPADPADI@Z 004125c0 f i metadatagram.obj
 0001:00011680       ??$_Ucopy@PAV?$basic_string@DU?$char_traits@D@std@@V?$allocator@D@2@@std@@@?$vector@V?$basic_string@DU?$char_traits@D@std@@V?$allocator@D@2@@std@@V?$allocator@V?$basic_string@DU?$char_traits@D@std@@V?$allocator@D@2@@std@@@2@@std@@AAEPAV?$basic_string@DU?$char_traits@D@std@@V?$allocator@D@2@@1@PAV21@00@Z 00412680 f i metadatagram.obj
 0001:000116b0       ??$_Unchecked@PAD@std@@YAPADPAD@Z 004126b0 f i metadatagram.obj
 0001:000116c0       ??$_Unchecked@PAV?$basic_string@DU?$char_traits@D@std@@V?$allocator@D@2@@std@@@std@@YAPAV?$basic_string@DU?$char_traits@D@std@@V?$allocator@D@2@@0@PAV10@@Z 004126c0 f i metadatagram.obj
 0001:000116d0       ??$_Unfancy@V?$basic_string@DU?$char_traits@D@std@@V?$allocator@D@2@@std@@@std@@YAPAV?$basic_string@DU?$char_traits@D@std@@V?$allocator@D@2@@0@PAV10@@Z 004126d0 f i metadatagram.obj
 0001:000116e0       ??$_Uninitialized_copy@PAV?$basic_string@DU?$char_traits@D@std@@V?$allocator@D@2@@std@@PAV12@V?$allocator@V?$basic_string@DU?$char_traits@D@std@@V?$allocator@D@2@@std@@@2@@std@@YAPAV?$basic_string@DU?$char_traits@D@std@@V?$allocator@D@2@@0@QAV10@0PAV10@AAV?$allocator@V?$basic_string@DU?$char_traits@D@std@@V?$allocator@D@2@@std@@@0@@Z 004126e0 f i metadatagram.obj
 0001:00011770       ??$_Uninitialized_copy_al_unchecked@PAV?$basic_string@DU?$char_traits@D@std@@V?$allocator@D@2@@std@@PAV12@V?$allocator@V?$basic_string@DU?$char_traits@D@std@@V?$allocator@D@2@@std@@@2@@std@@YAPAV?$basic_string@DU?$char_traits@D@std@@V?$allocator@D@2@@0@PAV10@QAV10@1AAV?$allocator@V?$basic_string@DU?$char_traits@D@std@@V?$allocator@D@2@@std@@@0@U_General_ptr_iterator_tag@0@U_Unused_parameter@0@@Z 00412770 f i metadatagram.obj
 0001:00011800       ??$_Uninitialized_move@PAV?$basic_string@DU?$char_traits@D@std@@V?$allocator@D@2@@std@@PAV12@V?$allocator@V?$basic_string@DU?$char_traits@D@std@@V?$allocator@D@2@@std@@@2@@std@@YAPAV?$basic_string@DU?$char_traits@D@std@@V?$allocator@D@2@@0@QAV10@0PAV10@AAV?$allocator@V?$basic_string@DU?$char_traits@D@std@@V?$allocator@D@2@@std@@@0@@Z 00412800 f i metadatagram.obj
 0001:00011890       ??$_Uninitialized_move_al_unchecked@PAV?$basic_string@DU?$char_traits@D@std@@V?$allocator@D@2@@std@@PAV12@V?$allocator@V?$basic_string@DU?$char_traits@D@std@@V?$allocator@D@2@@std@@@2@@std@@YAPAV?$basic_string@DU?$char_traits@D@std@@V?$allocator@D@2@@0@PAV10@QAV10@1AAV?$allocator@V?$basic_string@DU?$char_traits@D@std@@V?$allocator@D@2@@std@@@0@U_General_ptr_iterator_tag@0@U_Unused_parameter@0@@Z 00412890 f i metadatagram.obj
 0001:00011930       ??$addressof@$$CBU?$pair@$$CBV?$basic_string@DU?$char_traits@D@std@@V?$allocator@D@2@@std@@V12@@std@@@std@@YAPBU?$pair@$$CBV?$basic_string@DU?$char_traits@D@std@@V?$allocator@D@2@@std@@V12@@0@ABU10@@Z 00412930 f i metadatagram.obj
 0001:00011940       ??$addressof@$$CBV?$_Tree@V?$_Tmap_traits@V?$basic_string@DU?$char_traits@D@std@@V?$allocator@D@2@@std@@V12@U?$less@V?$basic_string@DU?$char_traits@D@std@@V?$allocator@D@2@@std@@@2@V?$allocator@U?$pair@$$CBV?$basic_string@DU?$char_traits@D@std@@V?$allocator@D@2@@std@@V12@@std@@@2@$0A@@std@@@std@@@std@@YAPBV?$_Tree@V?$_Tmap_traits@V?$basic_string@DU?$char_traits@D@std@@V?$allocator@D@2@@std@@V12@U?$less@V?$basic_string@DU?$char_traits@D@std@@V?$allocator@D@2@@std@@@2@V?$allocator@U?$pair@$$CBV?$basic_string@DU?$char_traits@D@std@@V?$allocator@D@2@@std@@V12@@std@@@2@$0A@@std@@@0@ABV10@@Z 00412940 f i metadatagram.obj
 0001:00011950       ??$addressof@$$CBV?$_Tree_val@U?$_Tree_simple_types@U?$pair@$$CBV?$basic_string@DU?$char_traits@D@std@@V?$allocator@D@2@@std@@V12@@std@@@std@@@std@@@std@@YAPBV?$_Tree_val@U?$_Tree_simple_types@U?$pair@$$CBV?$basic_string@DU?$char_traits@D@std@@V?$allocator@D@2@@std@@V12@@std@@@std@@@0@ABV10@@Z 00412950 f i metadatagram.obj
 0001:00011960       ??$addressof@$$CBV?$basic_string@DU?$char_traits@D@std@@V?$allocator@D@2@@std@@@std@@YAPBV?$basic_string@DU?$char_traits@D@std@@V?$allocator@D@2@@0@ABV10@@Z 00412960 f i metadatagram.obj
 0001:00011970       ??$addressof@PAU?$_Tree_node@U?$pair@$$CBV?$basic_string@DU?$char_traits@D@std@@V?$allocator@D@2@@std@@V12@@std@@PAX@std@@@std@@YAPAPAU?$_Tree_node@U?$pair@$$CBV?$basic_string@DU?$char_traits@D@std@@V?$allocator@D@2@@std@@V12@@std@@PAX@0@AAPAU10@@Z 00412970 f i metadatagram.obj
 0001:00011980       ??$addressof@U?$pair@$$CBV?$basic_string@DU?$char_traits@D@std@@V?$allocator@D@2@@std@@V12@@std@@@std@@YAPAU?$pair@$$CBV?$basic_string@DU?$char_traits@D@std@@V?$allocator@D@2@@std@@V12@@0@AAU10@@Z 00412980 f i metadatagram.obj
 0001:00011990       ??$addressof@V?$_Tree_val@U?$_Tree_simple_types@U?$pair@$$CBV?$basic_string@DU?$char_traits@D@std@@V?$allocator@D@2@@std@@V12@@std@@@std@@@std@@@std@@YAPAV?$_Tree_val@U?$_Tree_simple_types@U?$pair@$$CBV?$basic_string@DU?$char_traits@D@std@@V?$allocator@D@2@@std@@V12@@std@@@std@@@0@AAV10@@Z 00412990 f i metadatagram.obj
 0001:000119a0       ??$addressof@V?$_Vector_val@U?$_Simple_types@V?$basic_string@DU?$char_traits@D@std@@V?$allocator@D@2@@std@@@std@@@std@@@std@@YAPAV?$_Vector_val@U?$_Simple_types@V?$basic_string@DU?$char_traits@D@std@@V?$allocator@D@2@@std@@@std@@@0@AAV10@@Z 004129a0 f i metadatagram.obj
 0001:000119b0       ??$construct@PAU?$_Tree_node@U?$pair@$$CBV?$basic_string@DU?$char_traits@D@std@@V?$allocator@D@2@@std@@V12@@std@@PAX@std@@AAPAU12@@?$_Default_allocator_traits@V?$allocator@U?$_Tree_node@U?$pair@$$CBV?$basic_string@DU?$char_traits@D@std@@V?$allocator@D@2@@std@@V12@@std@@PAX@std@@@std@@@std@@SAXAAV?$allocator@U?$_Tree_node@U?$pair@$$CBV?$basic_string@DU?$char_traits@D@std@@V?$allocator@D@2@@std@@V12@@std@@PAX@std@@@1@QAPAU?$_Tree_node@U?$pair@$$CBV?$basic_string@DU?$char_traits@D@std@@V?$allocator@D@2@@std@@V12@@std@@PAX@1@AAPAU31@@Z 004129b0 f i metadatagram.obj
 0001:000119e0       ??$construct@U?$pair@$$CBV?$basic_string@DU?$char_traits@D@std@@V?$allocator@D@2@@std@@V12@@std@@AAU12@@?$_Default_allocator_traits@V?$allocator@U?$_Tree_node@U?$pair@$$CBV?$basic_string@DU?$char_traits@D@std@@V?$allocator@D@2@@std@@V12@@std@@PAX@std@@@std@@@std@@SAXAAV?$allocator@U?$_Tree_node@U?$pair@$$CBV?$basic_string@DU?$char_traits@D@std@@V?$allocator@D@2@@std@@V12@@std@@PAX@std@@@1@QAU?$pair@$$CBV?$basic_string@DU?$char_traits@D@std@@V?$allocator@D@2@@std@@V12@@1@AAU31@@Z 004129e0 f i metadatagram.obj
 0001:00011a10       ??$construct@U?$pair@$$CBV?$basic_string@DU?$char_traits@D@std@@V?$allocator@D@2@@std@@V12@@std@@U?$pair@V?$basic_string@DU?$char_traits@D@std@@V?$allocator@D@2@@std@@V12@@2@@?$_Default_allocator_traits@V?$allocator@U?$_Tree_node@U?$pair@$$CBV?$basic_string@DU?$char_traits@D@std@@V?$allocator@D@2@@std@@V12@@std@@PAX@std@@@std@@@std@@SAXAAV?$allocator@U?$_Tree_node@U?$pair@$$CBV?$basic_string@DU?$char_traits@D@std@@V?$allocator@D@2@@std@@V12@@std@@PAX@std@@@1@QAU?$pair@$$CBV?$basic_string@DU?$char_traits@D@std@@V?$allocator@D@2@@std@@V12@@1@$$QAU?$pair@V?$basic_string@DU?$char_traits@D@std@@V?$allocator@D@2@@std@@V12@@1@@Z 00412a10 f i metadatagram.obj
 0001:00011a40       ??$construct@V?$basic_string@DU?$char_traits@D@std@@V?$allocator@D@2@@std@@AAV12@@?$_Default_allocator_traits@V?$allocator@V?$basic_string@DU?$char_traits@D@std@@V?$allocator@D@2@@std@@@std@@@std@@SAXAAV?$allocator@V?$basic_string@DU?$char_traits@D@std@@V?$allocator@D@2@@std@@@1@QAV?$basic_string@DU?$char_traits@D@std@@V?$allocator@D@2@@1@AAV31@@Z 00412a40 f i metadatagram.obj
 0001:00011a70       ??$construct@V?$basic_string@DU?$char_traits@D@std@@V?$allocator@D@2@@std@@ABV12@@?$_Default_allocator_traits@V?$allocator@V?$basic_string@DU?$char_traits@D@std@@V?$allocator@D@2@@std@@@std@@@std@@SAXAAV?$allocator@V?$basic_string@DU?$char_traits@D@std@@V?$allocator@D@2@@std@@@1@QAV?$basic_string@DU?$char_traits@D@std@@V?$allocator@D@2@@1@ABV31@@Z 00412a70 f i metadatagram.obj
 0001:00011aa0       ??$construct@V?$basic_string@DU?$char_traits@D@std@@V?$allocator@D@2@@std@@V12@@?$_Default_allocator_traits@V?$allocator@V?$basic_string@DU?$char_traits@D@std@@V?$allocator@D@2@@std@@@std@@@std@@SAXAAV?$allocator@V?$basic_string@DU?$char_traits@D@std@@V?$allocator@D@2@@std@@@1@QAV?$basic_string@DU?$char_traits@D@std@@V?$allocator@D@2@@1@$$QAV31@@Z 00412aa0 f i metadatagram.obj
 0001:00011ad0       ??$destroy@PAU?$_Tree_node@U?$pair@$$CBV?$basic_string@DU?$char_traits@D@std@@V?$allocator@D@2@@std@@V12@@std@@PAX@std@@@?$_Default_allocator_traits@V?$allocator@U?$_Tree_node@U?$pair@$$CBV?$basic_string@DU?$char_traits@D@std@@V?$allocator@D@2@@std@@V12@@std@@PAX@std@@@std@@@std@@SAXAAV?$allocator@U?$_Tree_node@U?$pair@$$CBV?$basic_string@DU?$char_traits@D@std@@V?$allocator@D@2@@std@@V12@@std@@PAX@std@@@1@QAPAU?$_Tree_node@U?$pair@$$CBV?$basic_string@DU?$char_traits@D@std@@V?$allocator@D@2@@std@@V12@@std@@PAX@1@@Z 00412ad0 f i metadatagram.obj
 0001:00011ae0       ??$destroy@U?$pair@$$CBV?$basic_string@DU?$char_traits@D@std@@V?$allocator@D@2@@std@@V12@@std@@@?$_Default_allocator_traits@V?$allocator@U?$_Tree_node@U?$pair@$$CBV?$basic_string@DU?$char_traits@D@std@@V?$allocator@D@2@@std@@V12@@std@@PAX@std@@@std@@@std@@SAXAAV?$allocator@U?$_Tree_node@U?$pair@$$CBV?$basic_string@DU?$char_traits@D@std@@V?$allocator@D@2@@std@@V12@@std@@PAX@std@@@1@QAU?$pair@$$CBV?$basic_string@DU?$char_traits@D@std@@V?$allocator@D@2@@std@@V12@@1@@Z 00412ae0 f i metadatagram.obj
 0001:00011af0       ??$destroy@V?$basic_string@DU?$char_traits@D@std@@V?$allocator@D@2@@std@@@?$_Default_allocator_traits@V?$allocator@V?$basic_string@DU?$char_traits@D@std@@V?$allocator@D@2@@std@@@std@@@std@@SAXAAV?$allocator@V?$basic_string@DU?$char_traits@D@std@@V?$allocator@D@2@@std@@@1@QAV?$basic_string@DU?$char_traits@D@std@@V?$allocator@D@2@@1@@Z 00412af0 f i metadatagram.obj
 0001:00011b00       ??$emplace@U?$pair@V?$basic_string@DU?$char_traits@D@std@@V?$allocator@D@2@@std@@V12@@std@@@?$_Tree@V?$_Tmap_traits@V?$basic_string@DU?$char_traits@D@std@@V?$allocator@D@2@@std@@V12@U?$less@V?$basic_string@DU?$char_traits@D@std@@V?$allocator@D@2@@std@@@2@V?$allocator@U?$pair@$$CBV?$basic_string@DU?$char_traits@D@std@@V?$allocator@D@2@@std@@V12@@std@@@2@$0A@@std@@@std@@QAE?AU?$pair@V?$_Tree_iterator@V?$_Tree_val@U?$_Tree_simple_types@U?$pair@$$CBV?$basic_string@DU?$char_traits@D@std@@V?$allocator@D@2@@std@@V12@@std@@@std@@@std@@@std@@_N@1@$$QAU?$pair@V?$basic_string@DU?$char_traits@D@std@@V?$allocator@D@2@@std@@V12@@1@@Z 00412b00 f i metadatagram.obj
 0001:00011b60       ??$emplace_back@ABV?$basic_string@DU?$char_traits@D@std@@V?$allocator@D@2@@std@@@?$vector@V?$basic_string@DU?$char_traits@D@std@@V?$allocator@D@2@@std@@V?$allocator@V?$basic_string@DU?$char_traits@D@std@@V?$allocator@D@2@@std@@@2@@std@@QAEXABV?$basic_string@DU?$char_traits@D@std@@V?$allocator@D@2@@1@@Z 00412b60 f i metadatagram.obj
 0001:00011bc0       ??$end@D$0BF@@std@@YAPADAAY0BF@D@Z 00412bc0 f i metadatagram.obj
 0001:00011bd0       ??$forward@AAPAU?$_Tree_node@U?$pair@$$CBV?$basic_string@DU?$char_traits@D@std@@V?$allocator@D@2@@std@@V12@@std@@PAX@std@@@std@@YAAAPAU?$_Tree_node@U?$pair@$$CBV?$basic_string@DU?$char_traits@D@std@@V?$allocator@D@2@@std@@V12@@std@@PAX@0@AAPAU10@@Z 00412bd0 f i metadatagram.obj
 0001:00011be0       ??$forward@AAU?$pair@$$CBV?$basic_string@DU?$char_traits@D@std@@V?$allocator@D@2@@std@@V12@@std@@@std@@YAAAU?$pair@$$CBV?$basic_string@DU?$char_traits@D@std@@V?$allocator@D@2@@std@@V12@@0@AAU10@@Z 00412be0 f i metadatagram.obj
 0001:00011bf0       ??$forward@AAV?$_Tree_iterator@V?$_Tree_val@U?$_Tree_simple_types@U?$pair@$$CBV?$basic_string@DU?$char_traits@D@std@@V?$allocator@D@2@@std@@V12@@std@@@std@@@std@@@std@@@std@@YAAAV?$_Tree_iterator@V?$_Tree_val@U?$_Tree_simple_types@U?$pair@$$CBV?$basic_string@DU?$char_traits@D@std@@V?$allocator@D@2@@std@@V12@@std@@@std@@@std@@@0@AAV10@@Z 00412bf0 f i metadatagram.obj
 0001:00011c00       ??$forward@AAV?$basic_string@DU?$char_traits@D@std@@V?$allocator@D@2@@std@@@std@@YAAAV?$basic_string@DU?$char_traits@D@std@@V?$allocator@D@2@@0@AAV10@@Z 00412c00 f i metadatagram.obj
 0001:00011c10       ??$forward@ABU?$less@V?$basic_string@DU?$char_traits@D@std@@V?$allocator@D@2@@std@@@std@@@std@@YAABU?$less@V?$basic_string@DU?$char_traits@D@std@@V?$allocator@D@2@@std@@@0@ABU10@@Z 00412c10 f i metadatagram.obj
 0001:00011c20       ??$forward@ABV?$basic_string@DU?$char_traits@D@std@@V?$allocator@D@2@@std@@@std@@YAABV?$basic_string@DU?$char_traits@D@std@@V?$allocator@D@2@@0@ABV10@@Z 00412c20 f i metadatagram.obj
 0001:00011c30       ??$forward@U?$pair@V?$basic_string@DU?$char_traits@D@std@@V?$allocator@D@2@@std@@V12@@std@@@std@@YA$$QAU?$pair@V?$basic_string@DU?$char_traits@D@std@@V?$allocator@D@2@@std@@V12@@0@AAU10@@Z 00412c30 f i metadatagram.obj
 0001:00011c40       ??$forward@V?$_Tree_iterator@V?$_Tree_val@U?$_Tree_simple_types@U?$pair@$$CBV?$basic_string@DU?$char_traits@D@std@@V?$allocator@D@2@@std@@V12@@std@@@std@@@std@@@std@@@std@@YA$$QAV?$_Tree_iterator@V?$_Tree_val@U?$_Tree_simple_types@U?$pair@$$CBV?$basic_string@DU?$char_traits@D@std@@V?$allocator@D@2@@std@@V12@@std@@@std@@@std@@@0@AAV10@@Z 00412c40 f i metadatagram.obj
 0001:00011c50       ??$forward@V?$allocator@V?$basic_string@DU?$char_traits@D@std@@V?$allocator@D@2@@std@@@std@@@std@@YA$$QAV?$allocator@V?$basic_string@DU?$char_traits@D@std@@V?$allocator@D@2@@std@@@0@AAV10@@Z 00412c50 f i metadatagram.obj
 0001:00011c60       ??$forward@V?$basic_string@DU?$char_traits@D@std@@V?$allocator@D@2@@std@@@std@@YA$$QAV?$basic_string@DU?$char_traits@D@std@@V?$allocator@D@2@@0@AAV10@@Z 00412c60 f i metadatagram.obj
 0001:00011c70       ??$getline@DU?$char_traits@D@std@@V?$allocator@D@2@@std@@YAAAV?$basic_istream@DU?$char_traits@D@std@@@0@$$QAV10@AAV?$basic_string@DU?$char_traits@D@std@@V?$allocator@D@2@@0@D@Z 00412c70 f i metadatagram.obj
 0001:00011e70       ??$getline@DU?$char_traits@D@std@@V?$allocator@D@2@@std@@YAAAV?$basic_istream@DU?$char_traits@D@std@@@0@AAV10@AAV?$basic_string@DU?$char_traits@D@std@@V?$allocator@D@2@@0@D@Z 00412e70 f i metadatagram.obj
 0001:00011ea0       ??$insert@U?$pair@V?$basic_string@DU?$char_traits@D@std@@V?$allocator@D@2@@std@@V12@@std@@X@?$map@V?$basic_string@DU?$char_traits@D@std@@V?$allocator@D@2@@std@@V12@U?$less@V?$basic_string@DU?$char_traits@D@std@@V?$allocator@D@2@@std@@@2@V?$allocator@U?$pair@$$CBV?$basic_string@DU?$char_traits@D@std@@V?$allocator@D@2@@std@@V12@@std@@@2@@std@@QAE?AU?$pair@V?$_Tree_iterator@V?$_Tree_val@U?$_Tree_simple_types@U?$pair@$$CBV?$basic_string@DU?$char_traits@D@std@@V?$allocator@D@2@@std@@V12@@std@@@std@@@std@@@std@@_N@1@$$QAU?$pair@V?$basic_string@DU?$char_traits@D@std@@V?$allocator@D@2@@std@@V12@@1@@Z 00412ea0 f i metadatagram.obj
 0001:00011ee0       ??$move@AAV?$allocator@V?$basic_string@DU?$char_traits@D@std@@V?$allocator@D@2@@std@@@std@@@std@@YA$$QAV?$allocator@V?$basic_string@DU?$char_traits@D@std@@V?$allocator@D@2@@std@@@0@AAV10@@Z 00412ee0 f i metadatagram.obj
 0001:00011ef0       ??$move@AAV?$vector@V?$basic_string@DU?$char_traits@D@std@@V?$allocator@D@2@@std@@V?$allocator@V?$basic_string@DU?$char_traits@D@std@@V?$allocator@D@2@@std@@@2@@std@@@std@@YA$$QAV?$vector@V?$basic_string@DU?$char_traits@D@std@@V?$allocator@D@2@@std@@V?$allocator@V?$basic_string@DU?$char_traits@D@std@@V?$allocator@D@2@@std@@@2@@0@AAV10@@Z 00412ef0 f i metadatagram.obj
 0001:00011f00       ??0?$_Tree@V?$_Tmap_traits@V?$basic_string@DU?$char_traits@D@std@@V?$allocator@D@2@@std@@V12@U?$less@V?$basic_string@DU?$char_traits@D@std@@V?$allocator@D@2@@std@@@2@V?$allocator@U?$pair@$$CBV?$basic_string@DU?$char_traits@D@std@@V?$allocator@D@2@@std@@V12@@std@@@2@$0A@@std@@@std@@QAE@ABU?$less@V?$basic_string@DU?$char_traits@D@std@@V?$allocator@D@2@@std@@@1@@Z 00412f00 f i metadatagram.obj
 0001:00011f20       ??0?$_Tree_comp_alloc@V?$_Tmap_traits@V?$basic_string@DU?$char_traits@D@std@@V?$allocator@D@2@@std@@V12@U?$less@V?$basic_string@DU?$char_traits@D@std@@V?$allocator@D@2@@std@@@2@V?$allocator@U?$pair@$$CBV?$basic_string@DU?$char_traits@D@std@@V?$allocator@D@2@@std@@V12@@std@@@2@$0A@@std@@@std@@QAE@ABU?$less@V?$basic_string@DU?$char_traits@D@std@@V?$allocator@D@2@@std@@@1@@Z 00412f20 f i metadatagram.obj
 0001:00011f50       ??0?$_Tree_const_iterator@V?$_Tree_val@U?$_Tree_simple_types@U?$pair@$$CBV?$basic_string@DU?$char_traits@D@std@@V?$allocator@D@2@@std@@V12@@std@@@std@@@std@@@std@@QAE@$$QAV01@@Z 00412f50 f i metadatagram.obj
 0001:00011f70       ??0?$_Tree_const_iterator@V?$_Tree_val@U?$_Tree_simple_types@U?$pair@$$CBV?$basic_string@DU?$char_traits@D@std@@V?$allocator@D@2@@std@@V12@@std@@@std@@@std@@@std@@QAE@ABV01@@Z 00412f70 f i metadatagram.obj
 0001:00011f90       ??0?$_Tree_const_iterator@V?$_Tree_val@U?$_Tree_simple_types@U?$pair@$$CBV?$basic_string@DU?$char_traits@D@std@@V?$allocator@D@2@@std@@V12@@std@@@std@@@std@@@std@@QAE@PAU?$_Tree_node@U?$pair@$$CBV?$basic_string@DU?$char_traits@D@std@@V?$allocator@D@2@@std@@V12@@std@@PAX@1@PBV?$_Tree_val@U?$_Tree_simple_types@U?$pair@$$CBV?$basic_string@DU?$char_traits@D@std@@V?$allocator@D@2@@std@@V12@@std@@@std@@@1@@Z 00412f90 f i metadatagram.obj
 0001:00011fb0       ??0?$_Tree_iterator@V?$_Tree_val@U?$_Tree_simple_types@U?$pair@$$CBV?$basic_string@DU?$char_traits@D@std@@V?$allocator@D@2@@std@@V12@@std@@@std@@@std@@@std@@QAE@$$QAV01@@Z 00412fb0 f i metadatagram.obj
 0001:00011fd0       ??0?$_Tree_iterator@V?$_Tree_val@U?$_Tree_simple_types@U?$pair@$$CBV?$basic_string@DU?$char_traits@D@std@@V?$allocator@D@2@@std@@V12@@std@@@std@@@std@@@std@@QAE@ABV01@@Z 00412fd0 f i metadatagram.obj
 0001:00011ff0       ??0?$_Tree_iterator@V?$_Tree_val@U?$_Tree_simple_types@U?$pair@$$CBV?$basic_string@DU?$char_traits@D@std@@V?$allocator@D@2@@std@@V12@@std@@@std@@@std@@@std@@QAE@PAU?$_Tree_node@U?$pair@$$CBV?$basic_string@DU?$char_traits@D@std@@V?$allocator@D@2@@std@@V12@@std@@PAX@1@PBV?$_Tree_val@U?$_Tree_simple_types@U?$pair@$$CBV?$basic_string@DU?$char_traits@D@std@@V?$allocator@D@2@@std@@V12@@std@@@std@@@1@@Z 00412ff0 f i metadatagram.obj
 0001:00012010       ??0?$_Tree_unchecked_const_iterator@V?$_Tree_val@U?$_Tree_simple_types@U?$pair@$$CBV?$basic_string@DU?$char_traits@D@std@@V?$allocator@D@2@@std@@V12@@std@@@std@@@std@@U_Iterator_base12@2@@std@@QAE@$$QAV01@@Z 00413010 f i metadatagram.obj
 0001:00012040       ??0?$_Tree_unchecked_const_iterator@V?$_Tree_val@U?$_Tree_simple_types@U?$pair@$$CBV?$basic_string@DU?$char_traits@D@std@@V?$allocator@D@2@@std@@V12@@std@@@std@@@std@@U_Iterator_base12@2@@std@@QAE@ABV01@@Z 00413040 f i metadatagram.obj
 0001:00012070       ??0?$_Tree_unchecked_const_iterator@V?$_Tree_val@U?$_Tree_simple_types@U?$pair@$$CBV?$basic_string@DU?$char_traits@D@std@@V?$allocator@D@2@@std@@V12@@std@@@std@@@std@@U_Iterator_base12@2@@std@@QAE@PAU?$_Tree_node@U?$pair@$$CBV?$basic_string@DU?$char_traits@D@std@@V?$allocator@D@2@@std@@V12@@std@@PAX@1@PBV?$_Tree_val@U?$_Tree_simple_types@U?$pair@$$CBV?$basic_string@DU?$char_traits@D@std@@V?$allocator@D@2@@std@@V12@@std@@@std@@@1@@Z 00413070 f i metadatagram.obj
 0001:000120a0       ??0?$_Tree_val@U?$_Tree_simple_types@U?$pair@$$CBV?$basic_string@DU?$char_traits@D@std@@V?$allocator@D@2@@std@@V12@@std@@@std@@@std@@QAE@XZ 004130a0 f i metadatagram.obj
 0001:000120d0       ??0?$_Uninitialized_backout_al@PAV?$basic_string@DU?$char_traits@D@std@@V?$allocator@D@2@@std@@V?$allocator@V?$basic_string@DU?$char_traits@D@std@@V?$allocator@D@2@@std@@@2@@std@@QAE@PAV?$basic_string@DU?$char_traits@D@std@@V?$allocator@D@2@@1@AAV?$allocator@V?$basic_string@DU?$char_traits@D@std@@V?$allocator@D@2@@std@@@1@@Z 004130d0 f i metadatagram.obj
 0001:00012100       ??0?$_Vector_alloc@U?$_Vec_base_types@V?$basic_string@DU?$char_traits@D@std@@V?$allocator@D@2@@std@@V?$allocator@V?$basic_string@DU?$char_traits@D@std@@V?$allocator@D@2@@std@@@2@@std@@@std@@QAE@XZ 00413100 f i metadatagram.obj
 0001:00012130       ??0?$_Vector_val@U?$_Simple_types@V?$basic_string@DU?$char_traits@D@std@@V?$allocator@D@2@@std@@@std@@@std@@QAE@XZ 00413130 f i metadatagram.obj
 0001:00012170       ??0?$allocator@U?$_Tree_node@U?$pair@$$CBV?$basic_string@DU?$char_traits@D@std@@V?$allocator@D@2@@std@@V12@@std@@PAX@std@@@std@@QAE@XZ 00413170 f i metadatagram.obj
 0001:00012180       ??0?$allocator@V?$basic_string@DU?$char_traits@D@std@@V?$allocator@D@2@@std@@@std@@QAE@XZ 00413180 f i metadatagram.obj
 0001:00012190       ??0?$basic_stringbuf@DU?$char_traits@D@std@@V?$allocator@D@2@@std@@QAE@ABV?$basic_string@DU?$char_traits@D@std@@V?$allocator@D@2@@1@H@Z 00413190 f i metadatagram.obj
 0001:00012220       ??0?$basic_stringstream@DU?$char_traits@D@std@@V?$allocator@D@2@@std@@QAE@ABV?$basic_string@DU?$char_traits@D@std@@V?$allocator@D@2@@1@H@Z 00413220 f i metadatagram.obj
 0001:00012300       ??0?$map@V?$basic_string@DU?$char_traits@D@std@@V?$allocator@D@2@@std@@V12@U?$less@V?$basic_string@DU?$char_traits@D@std@@V?$allocator@D@2@@std@@@2@V?$allocator@U?$pair@$$CBV?$basic_string@DU?$char_traits@D@std@@V?$allocator@D@2@@std@@V12@@std@@@2@@std@@QAE@XZ 00413300 f i metadatagram.obj
 0001:00012320       ??0?$pair@$$CBV?$basic_string@DU?$char_traits@D@std@@V?$allocator@D@2@@std@@V12@@std@@QAE@ABU01@@Z 00413320 f i metadatagram.obj
 0001:00012390       ??0?$vector@V?$basic_string@DU?$char_traits@D@std@@V?$allocator@D@2@@std@@V?$allocator@V?$basic_string@DU?$char_traits@D@std@@V?$allocator@D@2@@std@@@2@@std@@QAE@$$QAV01@@Z 00413390 f i metadatagram.obj
 0001:00012410       ??0?$vector@V?$basic_string@DU?$char_traits@D@std@@V?$allocator@D@2@@std@@V?$allocator@V?$basic_string@DU?$char_traits@D@std@@V?$allocator@D@2@@std@@@2@@std@@QAE@ABV01@@Z 00413410 f i metadatagram.obj
 0001:00012500       ??0?$vector@V?$basic_string@DU?$char_traits@D@std@@V?$allocator@D@2@@std@@V?$allocator@V?$basic_string@DU?$char_traits@D@std@@V?$allocator@D@2@@std@@@2@@std@@QAE@XZ 00413500 f i metadatagram.obj
 0001:00012540       ??1?$_Tree@V?$_Tmap_traits@V?$basic_string@DU?$char_traits@D@std@@V?$allocator@D@2@@std@@V12@U?$less@V?$basic_string@DU?$char_traits@D@std@@V?$allocator@D@2@@std@@@2@V?$allocator@U?$pair@$$CBV?$basic_string@DU?$char_traits@D@std@@V?$allocator@D@2@@std@@V12@@std@@@2@$0A@@std@@@std@@QAE@XZ 00413540 f i metadatagram.obj
 0001:00012590       ??1?$_Tree_comp_alloc@V?$_Tmap_traits@V?$basic_string@DU?$char_traits@D@std@@V?$allocator@D@2@@std@@V12@U?$less@V?$basic_string@DU?$char_traits@D@std@@V?$allocator@D@2@@std@@@2@V?$allocator@U?$pair@$$CBV?$basic_string@DU?$char_traits@D@std@@V?$allocator@D@2@@std@@V12@@std@@@2@$0A@@std@@@std@@QAE@XZ 00413590 f i metadatagram.obj
 0001:000125f0       ??1?$_Tree_const_iterator@V?$_Tree_val@U?$_Tree_simple_types@U?$pair@$$CBV?$basic_string@DU?$char_traits@D@std@@V?$allocator@D@2@@std@@V12@@std@@@std@@@std@@@std@@QAE@XZ 004135f0 f i metadatagram.obj
 0001:00012610       ??1?$_Tree_iterator@V?$_Tree_val@U?$_Tree_simple_types@U?$pair@$$CBV?$basic_string@DU?$char_traits@D@std@@V?$allocator@D@2@@std@@V12@@std@@@std@@@std@@@std@@QAE@XZ 00413610 f i metadatagram.obj
 0001:00012630       ??1?$_Tree_unchecked_const_iterator@V?$_Tree_val@U?$_Tree_simple_types@U?$pair@$$CBV?$basic_string@DU?$char_traits@D@std@@V?$allocator@D@2@@std@@V12@@std@@@std@@@std@@U_Iterator_base12@2@@std@@QAE@XZ 00413630 f i metadatagram.obj
 0001:00012650       ??1?$_Uninitialized_backout_al@PAV?$basic_string@DU?$char_traits@D@std@@V?$allocator@D@2@@std@@V?$allocator@V?$basic_string@DU?$char_traits@D@std@@V?$allocator@D@2@@std@@@2@@std@@QAE@XZ 00413650 f i metadatagram.obj
 0001:000126b0       ??1?$_Vector_alloc@U?$_Vec_base_types@V?$basic_string@DU?$char_traits@D@std@@V?$allocator@D@2@@std@@V?$allocator@V?$basic_string@DU?$char_traits@D@std@@V?$allocator@D@2@@std@@@2@@std@@@std@@QAE@XZ 004136b0 f i metadatagram.obj
 0001:000126f0       ??1?$map@V?$basic_string@DU?$char_traits@D@std@@V?$allocator@D@2@@std@@V12@U?$less@V?$basic_string@DU?$char_traits@D@std@@V?$allocator@D@2@@std@@@2@V?$allocator@U?$pair@$$CBV?$basic_string@DU?$char_traits@D@std@@V?$allocator@D@2@@std@@V12@@std@@@2@@std@@QAE@XZ 004136f0 f i metadatagram.obj
 0001:00012710       ??1?$pair@$$CBV?$basic_string@DU?$char_traits@D@std@@V?$allocator@D@2@@std@@V12@@std@@QAE@XZ 00413710 f i metadatagram.obj
 0001:00012730       ??1?$pair@V?$_Tree_iterator@V?$_Tree_val@U?$_Tree_simple_types@U?$pair@$$CBV?$basic_string@DU?$char_traits@D@std@@V?$allocator@D@2@@std@@V12@@std@@@std@@@std@@@std@@_N@std@@QAE@XZ 00413730 f i metadatagram.obj
 0001:00012750       ??1?$pair@V?$basic_string@DU?$char_traits@D@std@@V?$allocator@D@2@@std@@V12@@std@@QAE@XZ 00413750 f i metadatagram.obj
 0001:00012770       ??1?$vector@V?$basic_string@DU?$char_traits@D@std@@V?$allocator@D@2@@std@@V?$allocator@V?$basic_string@DU?$char_traits@D@std@@V?$allocator@D@2@@std@@@2@@std@@QAE@XZ 00413770 f i metadatagram.obj
 0001:000127c0       ??4?$_Tree@V?$_Tmap_traits@V?$basic_string@DU?$char_traits@D@std@@V?$allocator@D@2@@std@@V12@U?$less@V?$basic_string@DU?$char_traits@D@std@@V?$allocator@D@2@@std@@@2@V?$allocator@U?$pair@$$CBV?$basic_string@DU?$char_traits@D@std@@V?$allocator@D@2@@std@@V12@@std@@@2@$0A@@std@@@std@@QAEAAV01@ABV01@@Z 004137c0 f i metadatagram.obj
 0001:00012820       ??4?$basic_string@DU?$char_traits@D@std@@V?$allocator@D@2@@std@@QAEAAV01@ABV01@@Z 00413820 f i metadatagram.obj
 0001:00012890       ??4?$map@V?$basic_string@DU?$char_traits@D@std@@V?$allocator@D@2@@std@@V12@U?$less@V?$basic_string@DU?$char_traits@D@std@@V?$allocator@D@2@@std@@@2@V?$allocator@U?$pair@$$CBV?$basic_string@DU?$char_traits@D@std@@V?$allocator@D@2@@std@@V12@@std@@@2@@std@@QAEAAV01@ABV01@@Z 00413890 f i metadatagram.obj
 0001:000128b0       ??8?$_Tree_const_iterator@V?$_Tree_val@U?$_Tree_simple_types@U?$pair@$$CBV?$basic_string@DU?$char_traits@D@std@@V?$allocator@D@2@@std@@V12@@std@@@std@@@std@@@std@@QBE_NABV01@@Z 004138b0 f i metadatagram.obj
 0001:00012930       ??9?$_Tree_const_iterator@V?$_Tree_val@U?$_Tree_simple_types@U?$pair@$$CBV?$basic_string@DU?$char_traits@D@std@@V?$allocator@D@2@@std@@V12@@std@@@std@@@std@@@std@@QBE_NABV01@@Z 00413930 f i metadatagram.obj
 0001:00012970       ??A?$vector@V?$basic_string@DU?$char_traits@D@std@@V?$allocator@D@2@@std@@V?$allocator@V?$basic_string@DU?$char_traits@D@std@@V?$allocator@D@2@@std@@@2@@std@@QAEAAV?$basic_string@DU?$char_traits@D@std@@V?$allocator@D@2@@1@I@Z 00413970 f i metadatagram.obj
 0001:000129d0       ??C?$_Tree_const_iterator@V?$_Tree_val@U?$_Tree_simple_types@U?$pair@$$CBV?$basic_string@DU?$char_traits@D@std@@V?$allocator@D@2@@std@@V12@@std@@@std@@@std@@@std@@QBEPBU?$pair@$$CBV?$basic_string@DU?$char_traits@D@std@@V?$allocator@D@2@@std@@V12@@1@XZ 004139d0 f i metadatagram.obj
 0001:000129f0       ??D?$_Tree_const_iterator@V?$_Tree_val@U?$_Tree_simple_types@U?$pair@$$CBV?$basic_string@DU?$char_traits@D@std@@V?$allocator@D@2@@std@@V12@@std@@@std@@@std@@@std@@QBEABU?$pair@$$CBV?$basic_string@DU?$char_traits@D@std@@V?$allocator@D@2@@std@@V12@@1@XZ 004139f0 f i metadatagram.obj
 0001:00012a70       ??E?$_Tree_const_iterator@V?$_Tree_val@U?$_Tree_simple_types@U?$pair@$$CBV?$basic_string@DU?$char_traits@D@std@@V?$allocator@D@2@@std@@V12@@std@@@std@@@std@@@std@@QAE?AV01@H@Z 00413a70 f i metadatagram.obj
 0001:00012b00       ??E?$_Tree_const_iterator@V?$_Tree_val@U?$_Tree_simple_types@U?$pair@$$CBV?$basic_string@DU?$char_traits@D@std@@V?$allocator@D@2@@std@@V12@@std@@@std@@@std@@@std@@QAEAAV01@XZ 00413b00 f i metadatagram.obj
 0001:00012b70       ??E?$_Tree_unchecked_const_iterator@V?$_Tree_val@U?$_Tree_simple_types@U?$pair@$$CBV?$basic_string@DU?$char_traits@D@std@@V?$allocator@D@2@@std@@V12@@std@@@std@@@std@@U_Iterator_base12@2@@std@@QAEAAV01@XZ 00413b70 f i metadatagram.obj
 0001:00012c00       ??F?$_Tree_const_iterator@V?$_Tree_val@U?$_Tree_simple_types@U?$pair@$$CBV?$basic_string@DU?$char_traits@D@std@@V?$allocator@D@2@@std@@V12@@std@@@std@@@std@@@std@@QAEAAV01@XZ 00413c00 f i metadatagram.obj
 0001:00012cb0       ??F?$_Tree_iterator@V?$_Tree_val@U?$_Tree_simple_types@U?$pair@$$CBV?$basic_string@DU?$char_traits@D@std@@V?$allocator@D@2@@std@@V12@@std@@@std@@@std@@@std@@QAEAAV01@XZ 00413cb0 f i metadatagram.obj
 0001:00012cd0       ??F?$_Tree_unchecked_const_iterator@V?$_Tree_val@U?$_Tree_simple_types@U?$pair@$$CBV?$basic_string@DU?$char_traits@D@std@@V?$allocator@D@2@@std@@V12@@std@@@std@@@std@@U_Iterator_base12@2@@std@@QAEAAV01@XZ 00413cd0 f i metadatagram.obj
 0001:00012ed0       ??R?$less@V?$basic_string@DU?$char_traits@D@std@@V?$allocator@D@2@@std@@@std@@QBE_NABV?$basic_string@DU?$char_traits@D@std@@V?$allocator@D@2@@1@0@Z 00413ed0 f i metadatagram.obj
 0001:00012ef0       ??Y?$basic_string@DU?$char_traits@D@std@@V?$allocator@D@2@@std@@QAEAAV01@D@Z 00413ef0 f i metadatagram.obj
 0001:00012f10       ??_G?$basic_string@DU?$char_traits@D@std@@V?$allocator@D@2@@std@@QAEPAXI@Z 00413f10 f i metadatagram.obj
 0001:00012f40       ??_G?$pair@$$CBV?$basic_string@DU?$char_traits@D@std@@V?$allocator@D@2@@std@@V12@@std@@QAEPAXI@Z 00413f40 f i metadatagram.obj
 0001:00012f70       ??_GMetaDatagram@@UAEPAXI@Z 00413f70 f i metadatagram.obj
 0001:00012f70       ??_EMetaDatagram@@UAEPAXI@Z 00413f70 f i metadatagram.obj
 0001:00012fa0       ?_Alloc_proxy@?$_Tree_comp_alloc@V?$_Tmap_traits@V?$basic_string@DU?$char_traits@D@std@@V?$allocator@D@2@@std@@V12@U?$less@V?$basic_string@DU?$char_traits@D@std@@V?$allocator@D@2@@std@@@2@V?$allocator@U?$pair@$$CBV?$basic_string@DU?$char_traits@D@std@@V?$allocator@D@2@@std@@V12@@std@@@2@$0A@@std@@@std@@QAEXXZ 00413fa0 f i metadatagram.obj
 0001:00013020       ?_Alloc_proxy@?$_Vector_alloc@U?$_Vec_base_types@V?$basic_string@DU?$char_traits@D@std@@V?$allocator@D@2@@std@@V?$allocator@V?$basic_string@DU?$char_traits@D@std@@V?$allocator@D@2@@std@@@2@@std@@@std@@QAEXXZ 00414020 f i metadatagram.obj
 0001:000130a0       ?_Buy@?$vector@V?$basic_string@DU?$char_traits@D@std@@V?$allocator@D@2@@std@@V?$allocator@V?$basic_string@DU?$char_traits@D@std@@V?$allocator@D@2@@std@@@2@@std@@AAE_NI@Z 004140a0 f i metadatagram.obj
 0001:00013150       ?_Buyheadnode@?$_Tree_comp_alloc@V?$_Tmap_traits@V?$basic_string@DU?$char_traits@D@std@@V?$allocator@D@2@@std@@V12@U?$less@V?$basic_string@DU?$char_traits@D@std@@V?$allocator@D@2@@std@@@2@V?$allocator@U?$pair@$$CBV?$basic_string@DU?$char_traits@D@std@@V?$allocator@D@2@@std@@V12@@std@@@2@$0A@@std@@@std@@QAEPAU?$_Tree_node@U?$pair@$$CBV?$basic_string@DU?$char_traits@D@std@@V?$allocator@D@2@@std@@V12@@std@@PAX@2@XZ 00414150 f i metadatagram.obj
 0001:00013250       ?_Buynode0@?$_Tree_comp_alloc@V?$_Tmap_traits@V?$basic_string@DU?$char_traits@D@std@@V?$allocator@D@2@@std@@V12@U?$less@V?$basic_string@DU?$char_traits@D@std@@V?$allocator@D@2@@std@@@2@V?$allocator@U?$pair@$$CBV?$basic_string@DU?$char_traits@D@std@@V?$allocator@D@2@@std@@V12@@std@@@2@$0A@@std@@@std@@QAEPAU?$_Tree_node@U?$pair@$$CBV?$basic_string@DU?$char_traits@D@std@@V?$allocator@D@2@@std@@V12@@std@@PAX@2@XZ 00414250 f i metadatagram.obj
 0001:00013360       ?_Calculate_growth@?$vector@V?$basic_string@DU?$char_traits@D@std@@V?$allocator@D@2@@std@@V?$allocator@V?$basic_string@DU?$char_traits@D@std@@V?$allocator@D@2@@std@@@2@@std@@ABEII@Z 00414360 f i metadatagram.obj
 0001:000133b0       ?_Change_array@?$vector@V?$basic_string@DU?$char_traits@D@std@@V?$allocator@D@2@@std@@V?$allocator@V?$basic_string@DU?$char_traits@D@std@@V?$allocator@D@2@@std@@@2@@std@@AAEXQAV?$basic_string@DU?$char_traits@D@std@@V?$allocator@D@2@@2@II@Z 004143b0 f i metadatagram.obj
 0001:00013450       ?_Compare@?$_Tree@V?$_Tmap_traits@V?$basic_string@DU?$char_traits@D@std@@V?$allocator@D@2@@std@@V12@U?$less@V?$basic_string@DU?$char_traits@D@std@@V?$allocator@D@2@@std@@@2@V?$allocator@U?$pair@$$CBV?$basic_string@DU?$char_traits@D@std@@V?$allocator@D@2@@std@@V12@@std@@@2@$0A@@std@@@std@@IBE_NABV?$basic_string@DU?$char_traits@D@std@@V?$allocator@D@2@@2@0@Z 00414450 f i metadatagram.obj
 0001:00013480       ?_Construct@?$_Tree_comp_alloc@V?$_Tmap_traits@V?$basic_string@DU?$char_traits@D@std@@V?$allocator@D@2@@std@@V12@U?$less@V?$basic_string@DU?$char_traits@D@std@@V?$allocator@D@2@@std@@@2@V?$allocator@U?$pair@$$CBV?$basic_string@DU?$char_traits@D@std@@V?$allocator@D@2@@std@@V12@@std@@@2@$0A@@std@@@std@@QAEXXZ 00414480 f i metadatagram.obj
 0001:00013520       ?_Construct@?$basic_string@DU?$char_traits@D@std@@V?$allocator@D@2@@std@@QAEXQAD0Urandom_access_iterator_tag@2@@Z 00414520 f i metadatagram.obj
 0001:00013560       ?_Copy_alloc@?$_String_alloc@U?$_String_base_types@DV?$allocator@D@std@@@std@@@std@@QAEXABV?$allocator@D@2@@Z 00414560 f i metadatagram.obj
 0001:000135a0       ?_Copy_alloc@?$_Tree_comp_alloc@V?$_Tmap_traits@V?$basic_string@DU?$char_traits@D@std@@V?$allocator@D@2@@std@@V12@U?$less@V?$basic_string@DU?$char_traits@D@std@@V?$allocator@D@2@@std@@@2@V?$allocator@U?$pair@$$CBV?$basic_string@DU?$char_traits@D@std@@V?$allocator@D@2@@std@@V12@@std@@@2@$0A@@std@@@std@@QAEXABV?$allocator@U?$_Tree_node@U?$pair@$$CBV?$basic_string@DU?$char_traits@D@std@@V?$allocator@D@2@@std@@V12@@std@@PAX@std@@@2@@Z 004145a0 f i metadatagram.obj
 0001:00013610       ?_Destroy@?$vector@V?$basic_string@DU?$char_traits@D@std@@V?$allocator@D@2@@std@@V?$allocator@V?$basic_string@DU?$char_traits@D@std@@V?$allocator@D@2@@std@@@2@@std@@AAEXPAV?$basic_string@DU?$char_traits@D@std@@V?$allocator@D@2@@2@0@Z 00414610 f i metadatagram.obj
 0001:00013640       ?_Destroy_if_node@?$_Tree@V?$_Tmap_traits@V?$basic_string@DU?$char_traits@D@std@@V?$allocator@D@2@@std@@V12@U?$less@V?$basic_string@DU?$char_traits@D@std@@V?$allocator@D@2@@std@@@2@V?$allocator@U?$pair@$$CBV?$basic_string@DU?$char_traits@D@std@@V?$allocator@D@2@@std@@V12@@std@@@2@$0A@@std@@@std@@IAEXPAU?$_Tree_node@U?$pair@$$CBV?$basic_string@DU?$char_traits@D@std@@V?$allocator@D@2@@std@@V12@@std@@PAX@2@@Z 00414640 f i metadatagram.obj
 0001:00013690       ?_Erase@?$_Tree@V?$_Tmap_traits@V?$basic_string@DU?$char_traits@D@std@@V?$allocator@D@2@@std@@V12@U?$less@V?$basic_string@DU?$char_traits@D@std@@V?$allocator@D@2@@std@@@2@V?$allocator@U?$pair@$$CBV?$basic_string@DU?$char_traits@D@std@@V?$allocator@D@2@@std@@V12@@std@@@2@$0A@@std@@@std@@IAEXPAU?$_Tree_node@U?$pair@$$CBV?$basic_string@DU?$char_traits@D@std@@V?$allocator@D@2@@std@@V12@@std@@PAX@2@@Z 00414690 f i metadatagram.obj
 0001:00013710       ?_Extract@?$_Tree_val@U?$_Tree_simple_types@U?$pair@$$CBV?$basic_string@DU?$char_traits@D@std@@V?$allocator@D@2@@std@@V12@@std@@@std@@@std@@QAEPAU?$_Tree_node@U?$pair@$$CBV?$basic_string@DU?$char_traits@D@std@@V?$allocator@D@2@@std@@V12@@std@@PAX@2@V?$_Tree_const_iterator@V?$_Tree_val@U?$_Tree_simple_types@U?$pair@$$CBV?$basic_string@DU?$char_traits@D@std@@V?$allocator@D@2@@std@@V12@@std@@@std@@@std@@@2@@Z 00414710 f i metadatagram.obj
 0001:00013be0       ?_Free_proxy@?$_Tree_comp_alloc@V?$_Tmap_traits@V?$basic_string@DU?$char_traits@D@std@@V?$allocator@D@2@@std@@V12@U?$less@V?$basic_string@DU?$char_traits@D@std@@V?$allocator@D@2@@std@@@2@V?$allocator@U?$pair@$$CBV?$basic_string@DU?$char_traits@D@std@@V?$allocator@D@2@@std@@V12@@std@@@2@$0A@@std@@@std@@QAEXXZ 00414be0 f i metadatagram.obj
 0001:00013c50       ?_Free_proxy@?$_Vector_alloc@U?$_Vec_base_types@V?$basic_string@DU?$char_traits@D@std@@V?$allocator@D@2@@std@@V?$allocator@V?$basic_string@DU?$char_traits@D@std@@V?$allocator@D@2@@std@@@2@@std@@@std@@QAEXXZ 00414c50 f i metadatagram.obj
 0001:00013cc0       ?_Freeheadnode@?$_Tree_comp_alloc@V?$_Tmap_traits@V?$basic_string@DU?$char_traits@D@std@@V?$allocator@D@2@@std@@V12@U?$less@V?$basic_string@DU?$char_traits@D@std@@V?$allocator@D@2@@std@@@2@V?$allocator@U?$pair@$$CBV?$basic_string@DU?$char_traits@D@std@@V?$allocator@D@2@@std@@V12@@std@@@2@$0A@@std@@@std@@QAEXPAU?$_Tree_node@U?$pair@$$CBV?$basic_string@DU?$char_traits@D@std@@V?$allocator@D@2@@std@@V12@@std@@PAX@2@@Z 00414cc0 f i metadatagram.obj
 0001:00013cf0       ?_Freenode0@?$_Tree_comp_alloc@V?$_Tmap_traits@V?$basic_string@DU?$char_traits@D@std@@V?$allocator@D@2@@std@@V12@U?$less@V?$basic_string@DU?$char_traits@D@std@@V?$allocator@D@2@@std@@@2@V?$allocator@U?$pair@$$CBV?$basic_string@DU?$char_traits@D@std@@V?$allocator@D@2@@std@@V12@@std@@@2@$0A@@std@@@std@@QAEXPAU?$_Tree_node@U?$pair@$$CBV?$basic_string@DU?$char_traits@D@std@@V?$allocator@D@2@@std@@V12@@std@@PAX@2@@Z 00414cf0 f i metadatagram.obj
 0001:00013d20       ?_Get_data@?$_Tree_comp_alloc@V?$_Tmap_traits@V?$basic_string@DU?$char_traits@D@std@@V?$allocator@D@2@@std@@V12@U?$less@V?$basic_string@DU?$char_traits@D@std@@V?$allocator@D@2@@std@@@2@V?$allocator@U?$pair@$$CBV?$basic_string@DU?$char_traits@D@std@@V?$allocator@D@2@@std@@V12@@std@@@2@$0A@@std@@@std@@QAEAAV?$_Tree_val@U?$_Tree_simple_types@U?$pair@$$CBV?$basic_string@DU?$char_traits@D@std@@V?$allocator@D@2@@std@@V12@@std@@@std@@@2@XZ 00414d20 f i metadatagram.obj
 0001:00013d40       ?_Get_data@?$_Tree_comp_alloc@V?$_Tmap_traits@V?$basic_string@DU?$char_traits@D@std@@V?$allocator@D@2@@std@@V12@U?$less@V?$basic_string@DU?$char_traits@D@std@@V?$allocator@D@2@@std@@@2@V?$allocator@U?$pair@$$CBV?$basic_string@DU?$char_traits@D@std@@V?$allocator@D@2@@std@@V12@@std@@@2@$0A@@std@@@std@@QBEABV?$_Tree_val@U?$_Tree_simple_types@U?$pair@$$CBV?$basic_string@DU?$char_traits@D@std@@V?$allocator@D@2@@std@@V12@@std@@@std@@@2@XZ 00414d40 f i metadatagram.obj
 0001:00013d60       ?_Get_data@?$_Vector_alloc@U?$_Vec_base_types@V?$basic_string@DU?$char_traits@D@std@@V?$allocator@D@2@@std@@V?$allocator@V?$basic_string@DU?$char_traits@D@std@@V?$allocator@D@2@@std@@@2@@std@@@std@@QAEAAV?$_Vector_val@U?$_Simple_types@V?$basic_string@DU?$char_traits@D@std@@V?$allocator@D@2@@std@@@std@@@2@XZ 00414d60 f i metadatagram.obj
 0001:00013d80       ?_Get_data@?$_Vector_alloc@U?$_Vec_base_types@V?$basic_string@DU?$char_traits@D@std@@V?$allocator@D@2@@std@@V?$allocator@V?$basic_string@DU?$char_traits@D@std@@V?$allocator@D@2@@std@@@2@@std@@@std@@QBEABV?$_Vector_val@U?$_Simple_types@V?$basic_string@DU?$char_traits@D@std@@V?$allocator@D@2@@std@@@std@@@2@XZ 00414d80 f i metadatagram.obj
 0001:00013da0       ?_Get_first@?$_Compressed_pair@U?$less@V?$basic_string@DU?$char_traits@D@std@@V?$allocator@D@2@@std@@@std@@V?$_Compressed_pair@V?$allocator@U?$_Tree_node@U?$pair@$$CBV?$basic_string@DU?$char_traits@D@std@@V?$allocator@D@2@@std@@V12@@std@@PAX@std@@@std@@V?$_Tree_val@U?$_Tree_simple_types@U?$pair@$$CBV?$basic_string@DU?$char_traits@D@std@@V?$allocator@D@2@@std@@V12@@std@@@std@@@2@$00@2@$00@std@@QAEAAU?$less@V?$basic_string@DU?$char_traits@D@std@@V?$allocator@D@2@@std@@@2@XZ 00414da0 f i metadatagram.obj
 0001:00013db0       ?_Get_first@?$_Compressed_pair@U?$less@V?$basic_string@DU?$char_traits@D@std@@V?$allocator@D@2@@std@@@std@@V?$_Compressed_pair@V?$allocator@U?$_Tree_node@U?$pair@$$CBV?$basic_string@DU?$char_traits@D@std@@V?$allocator@D@2@@std@@V12@@std@@PAX@std@@@std@@V?$_Tree_val@U?$_Tree_simple_types@U?$pair@$$CBV?$basic_string@DU?$char_traits@D@std@@V?$allocator@D@2@@std@@V12@@std@@@std@@@2@$00@2@$00@std@@QBEABU?$less@V?$basic_string@DU?$char_traits@D@std@@V?$allocator@D@2@@std@@@2@XZ 00414db0 f i metadatagram.obj
 0001:00013dc0       ?_Get_first@?$_Compressed_pair@V?$allocator@U?$_Tree_node@U?$pair@$$CBV?$basic_string@DU?$char_traits@D@std@@V?$allocator@D@2@@std@@V12@@std@@PAX@std@@@std@@V?$_Tree_val@U?$_Tree_simple_types@U?$pair@$$CBV?$basic_string@DU?$char_traits@D@std@@V?$allocator@D@2@@std@@V12@@std@@@std@@@2@$00@std@@QAEAAV?$allocator@U?$_Tree_node@U?$pair@$$CBV?$basic_string@DU?$char_traits@D@std@@V?$allocator@D@2@@std@@V12@@std@@PAX@std@@@2@XZ 00414dc0 f i metadatagram.obj
 0001:00013dd0       ?_Get_first@?$_Compressed_pair@V?$allocator@U?$_Tree_node@U?$pair@$$CBV?$basic_string@DU?$char_traits@D@std@@V?$allocator@D@2@@std@@V12@@std@@PAX@std@@@std@@V?$_Tree_val@U?$_Tree_simple_types@U?$pair@$$CBV?$basic_string@DU?$char_traits@D@std@@V?$allocator@D@2@@std@@V12@@std@@@std@@@2@$00@std@@QBEABV?$allocator@U?$_Tree_node@U?$pair@$$CBV?$basic_string@DU?$char_traits@D@std@@V?$allocator@D@2@@std@@V12@@std@@PAX@std@@@2@XZ 00414dd0 f i metadatagram.obj
 0001:00013de0       ?_Get_first@?$_Compressed_pair@V?$allocator@V?$basic_string@DU?$char_traits@D@std@@V?$allocator@D@2@@std@@@std@@V?$_Vector_val@U?$_Simple_types@V?$basic_string@DU?$char_traits@D@std@@V?$allocator@D@2@@std@@@std@@@2@$00@std@@QAEAAV?$allocator@V?$basic_string@DU?$char_traits@D@std@@V?$allocator@D@2@@std@@@2@XZ 00414de0 f i metadatagram.obj
 0001:00013df0       ?_Get_first@?$_Compressed_pair@V?$allocator@V?$basic_string@DU?$char_traits@D@std@@V?$allocator@D@2@@std@@@std@@V?$_Vector_val@U?$_Simple_types@V?$basic_string@DU?$char_traits@D@std@@V?$allocator@D@2@@std@@@std@@@2@$00@std@@QBEABV?$allocator@V?$basic_string@DU?$char_traits@D@std@@V?$allocator@D@2@@std@@@2@XZ 00414df0 f i metadatagram.obj
 0001:00013e00       ?_Get_second@?$_Compressed_pair@U?$less@V?$basic_string@DU?$char_traits@D@std@@V?$allocator@D@2@@std@@@std@@V?$_Compressed_pair@V?$allocator@U?$_Tree_node@U?$pair@$$CBV?$basic_string@DU?$char_traits@D@std@@V?$allocator@D@2@@std@@V12@@std@@PAX@std@@@std@@V?$_Tree_val@U?$_Tree_simple_types@U?$pair@$$CBV?$basic_string@DU?$char_traits@D@std@@V?$allocator@D@2@@std@@V12@@std@@@std@@@2@$00@2@$00@std@@QAEAAV?$_Compressed_pair@V?$allocator@U?$_Tree_node@U?$pair@$$CBV?$basic_string@DU?$char_traits@D@std@@V?$allocator@D@2@@std@@V12@@std@@PAX@std@@@std@@V?$_Tree_val@U?$_Tree_simple_types@U?$pair@$$CBV?$basic_string@DU?$char_traits@D@std@@V?$allocator@D@2@@std@@V12@@std@@@std@@@2@$00@2@XZ 00414e00 f i metadatagram.obj
 0001:00013e10       ?_Get_second@?$_Compressed_pair@U?$less@V?$basic_string@DU?$char_traits@D@std@@V?$allocator@D@2@@std@@@std@@V?$_Compressed_pair@V?$allocator@U?$_Tree_node@U?$pair@$$CBV?$basic_string@DU?$char_traits@D@std@@V?$allocator@D@2@@std@@V12@@std@@PAX@std@@@std@@V?$_Tree_val@U?$_Tree_simple_types@U?$pair@$$CBV?$basic_string@DU?$char_traits@D@std@@V?$allocator@D@2@@std@@V12@@std@@@std@@@2@$00@2@$00@std@@QBEABV?$_Compressed_pair@V?$allocator@U?$_Tree_node@U?$pair@$$CBV?$basic_string@DU?$char_traits@D@std@@V?$allocator@D@2@@std@@V12@@std@@PAX@std@@@std@@V?$_Tree_val@U?$_Tree_simple_types@U?$pair@$$CBV?$basic_string@DU?$char_traits@D@std@@V?$allocator@D@2@@std@@V12@@std@@@std@@@2@$00@2@XZ 00414e10 f i metadatagram.obj
 0001:00013e20       ?_Get_second@?$_Compressed_pair@V?$allocator@U?$_Tree_node@U?$pair@$$CBV?$basic_string@DU?$char_traits@D@std@@V?$allocator@D@2@@std@@V12@@std@@PAX@std@@@std@@V?$_Tree_val@U?$_Tree_simple_types@U?$pair@$$CBV?$basic_string@DU?$char_traits@D@std@@V?$allocator@D@2@@std@@V12@@std@@@std@@@2@$00@std@@QAEAAV?$_Tree_val@U?$_Tree_simple_types@U?$pair@$$CBV?$basic_string@DU?$char_traits@D@std@@V?$allocator@D@2@@std@@V12@@std@@@std@@@2@XZ 00414e20 f i metadatagram.obj
 0001:00013e30       ?_Get_second@?$_Compressed_pair@V?$allocator@U?$_Tree_node@U?$pair@$$CBV?$basic_string@DU?$char_traits@D@std@@V?$allocator@D@2@@std@@V12@@std@@PAX@std@@@std@@V?$_Tree_val@U?$_Tree_simple_types@U?$pair@$$CBV?$basic_string@DU?$char_traits@D@std@@V?$allocator@D@2@@std@@V12@@std@@@std@@@2@$00@std@@QBEABV?$_Tree_val@U?$_Tree_simple_types@U?$pair@$$CBV?$basic_string@DU?$char_traits@D@std@@V?$allocator@D@2@@std@@V12@@std@@@std@@@2@XZ 00414e30 f i metadatagram.obj
 0001:00013e40       ?_Get_second@?$_Compressed_pair@V?$allocator@V?$basic_string@DU?$char_traits@D@std@@V?$allocator@D@2@@std@@@std@@V?$_Vector_val@U?$_Simple_types@V?$basic_string@DU?$char_traits@D@std@@V?$allocator@D@2@@std@@@std@@@2@$00@std@@QAEAAV?$_Vector_val@U?$_Simple_types@V?$basic_string@DU?$char_traits@D@std@@V?$allocator@D@2@@std@@@std@@@2@XZ 00414e40 f i metadatagram.obj
 0001:00013e50       ?_Get_second@?$_Compressed_pair@V?$allocator@V?$basic_string@DU?$char_traits@D@std@@V?$allocator@D@2@@std@@@std@@V?$_Vector_val@U?$_Simple_types@V?$basic_string@DU?$char_traits@D@std@@V?$allocator@D@2@@std@@@std@@@2@$00@std@@QBEABV?$_Vector_val@U?$_Simple_types@V?$basic_string@DU?$char_traits@D@std@@V?$allocator@D@2@@std@@@std@@@2@XZ 00414e50 f i metadatagram.obj
 0001:00013e60       ?_Getal@?$_Tree_comp_alloc@V?$_Tmap_traits@V?$basic_string@DU?$char_traits@D@std@@V?$allocator@D@2@@std@@V12@U?$less@V?$basic_string@DU?$char_traits@D@std@@V?$allocator@D@2@@std@@@2@V?$allocator@U?$pair@$$CBV?$basic_string@DU?$char_traits@D@std@@V?$allocator@D@2@@std@@V12@@std@@@2@$0A@@std@@@std@@QAEAAV?$allocator@U?$_Tree_node@U?$pair@$$CBV?$basic_string@DU?$char_traits@D@std@@V?$allocator@D@2@@std@@V12@@std@@PAX@std@@@2@XZ 00414e60 f i metadatagram.obj
 0001:00013e80       ?_Getal@?$_Tree_comp_alloc@V?$_Tmap_traits@V?$basic_string@DU?$char_traits@D@std@@V?$allocator@D@2@@std@@V12@U?$less@V?$basic_string@DU?$char_traits@D@std@@V?$allocator@D@2@@std@@@2@V?$allocator@U?$pair@$$CBV?$basic_string@DU?$char_traits@D@std@@V?$allocator@D@2@@std@@V12@@std@@@2@$0A@@std@@@std@@QBEABV?$allocator@U?$_Tree_node@U?$pair@$$CBV?$basic_string@DU?$char_traits@D@std@@V?$allocator@D@2@@std@@V12@@std@@PAX@std@@@2@XZ 00414e80 f i metadatagram.obj
 0001:00013ea0       ?_Getal@?$_Vector_alloc@U?$_Vec_base_types@V?$basic_string@DU?$char_traits@D@std@@V?$allocator@D@2@@std@@V?$allocator@V?$basic_string@DU?$char_traits@D@std@@V?$allocator@D@2@@std@@@2@@std@@@std@@QAEAAV?$allocator@V?$basic_string@DU?$char_traits@D@std@@V?$allocator@D@2@@std@@@2@XZ 00414ea0 f i metadatagram.obj
 0001:00013ec0       ?_Getal@?$_Vector_alloc@U?$_Vec_base_types@V?$basic_string@DU?$char_traits@D@std@@V?$allocator@D@2@@std@@V?$allocator@V?$basic_string@DU?$char_traits@D@std@@V?$allocator@D@2@@std@@@2@@std@@@std@@QBEABV?$allocator@V?$basic_string@DU?$char_traits@D@std@@V?$allocator@D@2@@std@@@2@XZ 00414ec0 f i metadatagram.obj
 0001:00013ee0       ?_Getcomp@?$_Tree_comp_alloc@V?$_Tmap_traits@V?$basic_string@DU?$char_traits@D@std@@V?$allocator@D@2@@std@@V12@U?$less@V?$basic_string@DU?$char_traits@D@std@@V?$allocator@D@2@@std@@@2@V?$allocator@U?$pair@$$CBV?$basic_string@DU?$char_traits@D@std@@V?$allocator@D@2@@std@@V12@@std@@@2@$0A@@std@@@std@@QAEAAU?$less@V?$basic_string@DU?$char_traits@D@std@@V?$allocator@D@2@@std@@@2@XZ 00414ee0 f i metadatagram.obj
 0001:00013f00       ?_Getcomp@?$_Tree_comp_alloc@V?$_Tmap_traits@V?$basic_string@DU?$char_traits@D@std@@V?$allocator@D@2@@std@@V12@U?$less@V?$basic_string@DU?$char_traits@D@std@@V?$allocator@D@2@@std@@@2@V?$allocator@U?$pair@$$CBV?$basic_string@DU?$char_traits@D@std@@V?$allocator@D@2@@std@@V12@@std@@@2@$0A@@std@@@std@@QBEABU?$less@V?$basic_string@DU?$char_traits@D@std@@V?$allocator@D@2@@std@@@2@XZ 00414f00 f i metadatagram.obj
 0001:00013f20       ?_Getpfirst@?$_Tree_comp_alloc@V?$_Tmap_traits@V?$basic_string@DU?$char_traits@D@std@@V?$allocator@D@2@@std@@V12@U?$less@V?$basic_string@DU?$char_traits@D@std@@V?$allocator@D@2@@std@@@2@V?$allocator@U?$pair@$$CBV?$basic_string@DU?$char_traits@D@std@@V?$allocator@D@2@@std@@V12@@std@@@2@$0A@@std@@@std@@QBEPAPAU_Iterator_base12@2@XZ 00414f20 f i metadatagram.obj
 0001:00013f40       ?_Getpfirst@?$_Vector_alloc@U?$_Vec_base_types@V?$basic_string@DU?$char_traits@D@std@@V?$allocator@D@2@@std@@V?$allocator@V?$basic_string@DU?$char_traits@D@std@@V?$allocator@D@2@@std@@@2@@std@@@std@@QBEPAPAU_Iterator_base12@2@XZ 00414f40 f i metadatagram.obj
 0001:00013f60       ?_Has_unused_capacity@?$vector@V?$basic_string@DU?$char_traits@D@std@@V?$allocator@D@2@@std@@V?$allocator@V?$basic_string@DU?$char_traits@D@std@@V?$allocator@D@2@@std@@@2@@std@@ABE_NXZ 00414f60 f i metadatagram.obj
 0001:00013fa0       ?_Key@?$_Tree@V?$_Tmap_traits@V?$basic_string@DU?$char_traits@D@std@@V?$allocator@D@2@@std@@V12@U?$less@V?$basic_string@DU?$char_traits@D@std@@V?$allocator@D@2@@std@@@2@V?$allocator@U?$pair@$$CBV?$basic_string@DU?$char_traits@D@std@@V?$allocator@D@2@@std@@V12@@std@@@2@$0A@@std@@@std@@IBEABV?$basic_string@DU?$char_traits@D@std@@V?$allocator@D@2@@2@PAU?$_Tree_node@U?$pair@$$CBV?$basic_string@DU?$char_traits@D@std@@V?$allocator@D@2@@std@@V12@@std@@PAX@2@@Z 00414fa0 f i metadatagram.obj
 0001:00013fc0       ?_Kfn@?$_Tree@V?$_Tmap_traits@V?$basic_string@DU?$char_traits@D@std@@V?$allocator@D@2@@std@@V12@U?$less@V?$basic_string@DU?$char_traits@D@std@@V?$allocator@D@2@@std@@@2@V?$allocator@U?$pair@$$CBV?$basic_string@DU?$char_traits@D@std@@V?$allocator@D@2@@std@@V12@@std@@@2@$0A@@std@@@std@@IBEABV?$basic_string@DU?$char_traits@D@std@@V?$allocator@D@2@@2@ABU?$pair@$$CBV?$basic_string@DU?$char_traits@D@std@@V?$allocator@D@2@@std@@V12@@2@@Z 00414fc0 f i metadatagram.obj
 0001:00013fe0       ?_Lmost@?$_Tree_val@U?$_Tree_simple_types@U?$pair@$$CBV?$basic_string@DU?$char_traits@D@std@@V?$allocator@D@2@@std@@V12@@std@@@std@@@std@@QBEAAPAU?$_Tree_node@U?$pair@$$CBV?$basic_string@DU?$char_traits@D@std@@V?$allocator@D@2@@std@@V12@@std@@PAX@2@XZ 00414fe0 f i metadatagram.obj
 0001:00014000       ?_Lrotate@?$_Tree_val@U?$_Tree_simple_types@U?$pair@$$CBV?$basic_string@DU?$char_traits@D@std@@V?$allocator@D@2@@std@@V12@@std@@@std@@@std@@QAEXPAU?$_Tree_node@U?$pair@$$CBV?$basic_string@DU?$char_traits@D@std@@V?$allocator@D@2@@std@@V12@@std@@PAX@2@@Z 00415000 f i metadatagram.obj
 0001:000140a0       ?_Max@?$_Tree_val@U?$_Tree_simple_types@U?$pair@$$CBV?$basic_string@DU?$char_traits@D@std@@V?$allocator@D@2@@std@@V12@@std@@@std@@@std@@SAPAU?$_Tree_node@U?$pair@$$CBV?$basic_string@DU?$char_traits@D@std@@V?$allocator@D@2@@std@@V12@@std@@PAX@2@PAU32@@Z 004150a0 f i metadatagram.obj
 0001:000140d0       ?_Min@?$_Tree_val@U?$_Tree_simple_types@U?$pair@$$CBV?$basic_string@DU?$char_traits@D@std@@V?$allocator@D@2@@std@@V12@@std@@@std@@@std@@SAPAU?$_Tree_node@U?$pair@$$CBV?$basic_string@DU?$char_traits@D@std@@V?$allocator@D@2@@std@@V12@@std@@PAX@2@PAU32@@Z 004150d0 f i metadatagram.obj
 0001:000140f0       ?_Move_from@?$vector@V?$basic_string@DU?$char_traits@D@std@@V?$allocator@D@2@@std@@V?$allocator@V?$basic_string@DU?$char_traits@D@std@@V?$allocator@D@2@@std@@@2@@std@@AAEX$$QAV12@U?$integral_constant@_N$00@2@@Z 004150f0 f i metadatagram.obj
 0001:000141b0       ?_Myend@?$_Vector_alloc@U?$_Vec_base_types@V?$basic_string@DU?$char_traits@D@std@@V?$allocator@D@2@@std@@V?$allocator@V?$basic_string@DU?$char_traits@D@std@@V?$allocator@D@2@@std@@@2@@std@@@std@@QAEAAPAV?$basic_string@DU?$char_traits@D@std@@V?$allocator@D@2@@2@XZ 004151b0 f i metadatagram.obj
 0001:000141d0       ?_Myend@?$_Vector_alloc@U?$_Vec_base_types@V?$basic_string@DU?$char_traits@D@std@@V?$allocator@D@2@@std@@V?$allocator@V?$basic_string@DU?$char_traits@D@std@@V?$allocator@D@2@@std@@@2@@std@@@std@@QBEABQAV?$basic_string@DU?$char_traits@D@std@@V?$allocator@D@2@@2@XZ 004151d0 f i metadatagram.obj
 0001:000141f0       ?_Myfirst@?$_Vector_alloc@U?$_Vec_base_types@V?$basic_string@DU?$char_traits@D@std@@V?$allocator@D@2@@std@@V?$allocator@V?$basic_string@DU?$char_traits@D@std@@V?$allocator@D@2@@std@@@2@@std@@@std@@QAEAAPAV?$basic_string@DU?$char_traits@D@std@@V?$allocator@D@2@@2@XZ 004151f0 f i metadatagram.obj
 0001:00014210       ?_Myfirst@?$_Vector_alloc@U?$_Vec_base_types@V?$basic_string@DU?$char_traits@D@std@@V?$allocator@D@2@@std@@V?$allocator@V?$basic_string@DU?$char_traits@D@std@@V?$allocator@D@2@@std@@@2@@std@@@std@@QBEABQAV?$basic_string@DU?$char_traits@D@std@@V?$allocator@D@2@@2@XZ 00415210 f i metadatagram.obj
 0001:00014230       ?_Mylast@?$_Vector_alloc@U?$_Vec_base_types@V?$basic_string@DU?$char_traits@D@std@@V?$allocator@D@2@@std@@V?$allocator@V?$basic_string@DU?$char_traits@D@std@@V?$allocator@D@2@@std@@@2@@std@@@std@@QAEAAPAV?$basic_string@DU?$char_traits@D@std@@V?$allocator@D@2@@2@XZ 00415230 f i metadatagram.obj
 0001:00014250       ?_Mylast@?$_Vector_alloc@U?$_Vec_base_types@V?$basic_string@DU?$char_traits@D@std@@V?$allocator@D@2@@std@@V?$allocator@V?$basic_string@DU?$char_traits@D@std@@V?$allocator@D@2@@std@@@2@@std@@@std@@QBEABQAV?$basic_string@DU?$char_traits@D@std@@V?$allocator@D@2@@2@XZ 00415250 f i metadatagram.obj
 0001:00014270       ?_Myproxy@?$_Tree_comp_alloc@V?$_Tmap_traits@V?$basic_string@DU?$char_traits@D@std@@V?$allocator@D@2@@std@@V12@U?$less@V?$basic_string@DU?$char_traits@D@std@@V?$allocator@D@2@@std@@@2@V?$allocator@U?$pair@$$CBV?$basic_string@DU?$char_traits@D@std@@V?$allocator@D@2@@std@@V12@@std@@@2@$0A@@std@@@std@@QAEAAPAU_Container_proxy@2@XZ 00415270 f i metadatagram.obj
 0001:00014290       ?_Myproxy@?$_Vector_alloc@U?$_Vec_base_types@V?$basic_string@DU?$char_traits@D@std@@V?$allocator@D@2@@std@@V?$allocator@V?$basic_string@DU?$char_traits@D@std@@V?$allocator@D@2@@std@@@2@@std@@@std@@QAEAAPAU_Container_proxy@2@XZ 00415290 f i metadatagram.obj
 0001:000142b0       ?_Orphan_all@?$_Tree_comp_alloc@V?$_Tmap_traits@V?$basic_string@DU?$char_traits@D@std@@V?$allocator@D@2@@std@@V12@U?$less@V?$basic_string@DU?$char_traits@D@std@@V?$allocator@D@2@@std@@@2@V?$allocator@U?$pair@$$CBV?$basic_string@DU?$char_traits@D@std@@V?$allocator@D@2@@std@@V12@@std@@@2@$0A@@std@@@std@@QAEXXZ 004152b0 f i metadatagram.obj
 0001:000142d0       ?_Orphan_all@?$_Vector_alloc@U?$_Vec_base_types@V?$basic_string@DU?$char_traits@D@std@@V?$allocator@D@2@@std@@V?$allocator@V?$basic_string@DU?$char_traits@D@std@@V?$allocator@D@2@@std@@@2@@std@@@std@@QAEXXZ 004152d0 f i metadatagram.obj
 0001:000142f0       ?_Orphan_ptr@?$_Tree@V?$_Tmap_traits@V?$basic_string@DU?$char_traits@D@std@@V?$allocator@D@2@@std@@V12@U?$less@V?$basic_string@DU?$char_traits@D@std@@V?$allocator@D@2@@std@@@2@V?$allocator@U?$pair@$$CBV?$basic_string@DU?$char_traits@D@std@@V?$allocator@D@2@@std@@V12@@std@@@2@$0A@@std@@@std@@IAEXPAU?$_Tree_node@U?$pair@$$CBV?$basic_string@DU?$char_traits@D@std@@V?$allocator@D@2@@std@@V12@@std@@PAX@2@@Z 004152f0 f i metadatagram.obj
 0001:000143c0       ?_Orphan_range@?$vector@V?$basic_string@DU?$char_traits@D@std@@V?$allocator@D@2@@std@@V?$allocator@V?$basic_string@DU?$char_traits@D@std@@V?$allocator@D@2@@std@@@2@@std@@ABEXPAV?$basic_string@DU?$char_traits@D@std@@V?$allocator@D@2@@2@0@Z 004153c0 f i metadatagram.obj
 0001:00014480       ?_Release@?$_Uninitialized_backout_al@PAV?$basic_string@DU?$char_traits@D@std@@V?$allocator@D@2@@std@@V?$allocator@V?$basic_string@DU?$char_traits@D@std@@V?$allocator@D@2@@std@@@2@@std@@QAEPAV?$basic_string@DU?$char_traits@D@std@@V?$allocator@D@2@@2@XZ 00415480 f i metadatagram.obj
 0001:000144a0       ?_Rmost@?$_Tree_val@U?$_Tree_simple_types@U?$pair@$$CBV?$basic_string@DU?$char_traits@D@std@@V?$allocator@D@2@@std@@V12@@std@@@std@@@std@@QBEAAPAU?$_Tree_node@U?$pair@$$CBV?$basic_string@DU?$char_traits@D@std@@V?$allocator@D@2@@std@@V12@@std@@PAX@2@XZ 004154a0 f i metadatagram.obj
 0001:000144c0       ?_Root@?$_Tree_val@U?$_Tree_simple_types@U?$pair@$$CBV?$basic_string@DU?$char_traits@D@std@@V?$allocator@D@2@@std@@V12@@std@@@std@@@std@@QBEAAPAU?$_Tree_node@U?$pair@$$CBV?$basic_string@DU?$char_traits@D@std@@V?$allocator@D@2@@std@@V12@@std@@PAX@2@XZ 004154c0 f i metadatagram.obj
 0001:000144e0       ?_Rrotate@?$_Tree_val@U?$_Tree_simple_types@U?$pair@$$CBV?$basic_string@DU?$char_traits@D@std@@V?$allocator@D@2@@std@@V12@@std@@@std@@@std@@QAEXPAU?$_Tree_node@U?$pair@$$CBV?$basic_string@DU?$char_traits@D@std@@V?$allocator@D@2@@std@@V12@@std@@PAX@2@@Z 004154e0 f i metadatagram.obj
 0001:00014580       ?_Swap_all@?$_Vector_alloc@U?$_Vec_base_types@V?$basic_string@DU?$char_traits@D@std@@V?$allocator@D@2@@std@@V?$allocator@V?$basic_string@DU?$char_traits@D@std@@V?$allocator@D@2@@std@@@2@@std@@@std@@QAEXAAV12@@Z 00415580 f i metadatagram.obj
 0001:000145b0       ?_Tidy@?$_Tree@V?$_Tmap_traits@V?$basic_string@DU?$char_traits@D@std@@V?$allocator@D@2@@std@@V12@U?$less@V?$basic_string@DU?$char_traits@D@std@@V?$allocator@D@2@@std@@@2@V?$allocator@U?$pair@$$CBV?$basic_string@DU?$char_traits@D@std@@V?$allocator@D@2@@std@@V12@@std@@@2@$0A@@std@@@std@@IAEXXZ 004155b0 f i metadatagram.obj
 0001:00014680       ?_Tidy@?$vector@V?$basic_string@DU?$char_traits@D@std@@V?$allocator@D@2@@std@@V?$allocator@V?$basic_string@DU?$char_traits@D@std@@V?$allocator@D@2@@std@@@2@@std@@AAEXXZ 00415680 f i metadatagram.obj
 0001:00014710       ?_Umove@?$vector@V?$basic_string@DU?$char_traits@D@std@@V?$allocator@D@2@@std@@V?$allocator@V?$basic_string@DU?$char_traits@D@std@@V?$allocator@D@2@@std@@@2@@std@@AAEPAV?$basic_string@DU?$char_traits@D@std@@V?$allocator@D@2@@2@PAV32@00@Z 00415710 f i metadatagram.obj
 0001:00014740       ?_Umove_if_noexcept1@?$vector@V?$basic_string@DU?$char_traits@D@std@@V?$allocator@D@2@@std@@V?$allocator@V?$basic_string@DU?$char_traits@D@std@@V?$allocator@D@2@@std@@@2@@std@@AAEXPAV?$basic_string@DU?$char_traits@D@std@@V?$allocator@D@2@@2@00U?$integral_constant@_N$00@2@@Z 00415740 f i metadatagram.obj
 0001:00014770       ?_Umove_if_noexcept@?$vector@V?$basic_string@DU?$char_traits@D@std@@V?$allocator@D@2@@std@@V?$allocator@V?$basic_string@DU?$char_traits@D@std@@V?$allocator@D@2@@std@@@2@@std@@AAEXPAV?$basic_string@DU?$char_traits@D@std@@V?$allocator@D@2@@2@00@Z 00415770 f i metadatagram.obj
 0001:000147a0       ?_Xlength@?$vector@V?$basic_string@DU?$char_traits@D@std@@V?$allocator@D@2@@std@@V?$allocator@V?$basic_string@DU?$char_traits@D@std@@V?$allocator@D@2@@std@@@2@@std@@CAXXZ 004157a0 f i metadatagram.obj
 0001:000147b0       ?_Xrange@?$vector@V?$basic_string@DU?$char_traits@D@std@@V?$allocator@D@2@@std@@V?$allocator@V?$basic_string@DU?$char_traits@D@std@@V?$allocator@D@2@@std@@@2@@std@@CAXXZ 004157b0 f i metadatagram.obj
 0001:000147c0       ?allocate@?$allocator@U?$_Tree_node@U?$pair@$$CBV?$basic_string@DU?$char_traits@D@std@@V?$allocator@D@2@@std@@V12@@std@@PAX@std@@@std@@QAEPAU?$_Tree_node@U?$pair@$$CBV?$basic_string@DU?$char_traits@D@std@@V?$allocator@D@2@@std@@V12@@std@@PAX@2@I@Z 004157c0 f i metadatagram.obj
 0001:000147f0       ?allocate@?$allocator@V?$basic_string@DU?$char_traits@D@std@@V?$allocator@D@2@@std@@@std@@QAEPAV?$basic_string@DU?$char_traits@D@std@@V?$allocator@D@2@@2@I@Z 004157f0 f i metadatagram.obj
 0001:00014820       ?append@?$basic_string@DU?$char_traits@D@std@@V?$allocator@D@2@@std@@QAEAAV12@ABV12@@Z 00415820 f i metadatagram.obj
 0001:00014860       ?append@?$basic_string@DU?$char_traits@D@std@@V?$allocator@D@2@@std@@QAEAAV12@QBD@Z 00415860 f i metadatagram.obj
 0001:00014890       ?append@?$basic_string@DU?$char_traits@D@std@@V?$allocator@D@2@@std@@QAEAAV12@QBDI@Z 00415890 f i metadatagram.obj
 0001:00014930       ?at@?$vector@V?$basic_string@DU?$char_traits@D@std@@V?$allocator@D@2@@std@@V?$allocator@V?$basic_string@DU?$char_traits@D@std@@V?$allocator@D@2@@std@@@2@@std@@QAEAAV?$basic_string@DU?$char_traits@D@std@@V?$allocator@D@2@@2@I@Z 00415930 f i metadatagram.obj
 0001:00014960       ?begin@?$_Tree@V?$_Tmap_traits@V?$basic_string@DU?$char_traits@D@std@@V?$allocator@D@2@@std@@V12@U?$less@V?$basic_string@DU?$char_traits@D@std@@V?$allocator@D@2@@std@@@2@V?$allocator@U?$pair@$$CBV?$basic_string@DU?$char_traits@D@std@@V?$allocator@D@2@@std@@V12@@std@@@2@$0A@@std@@@std@@QAE?AV?$_Tree_iterator@V?$_Tree_val@U?$_Tree_simple_types@U?$pair@$$CBV?$basic_string@DU?$char_traits@D@std@@V?$allocator@D@2@@std@@V12@@std@@@std@@@std@@@2@XZ 00415960 f i metadatagram.obj
 0001:000149d0       ?capacity@?$vector@V?$basic_string@DU?$char_traits@D@std@@V?$allocator@D@2@@std@@V?$allocator@V?$basic_string@DU?$char_traits@D@std@@V?$allocator@D@2@@std@@@2@@std@@QBEIXZ 004159d0 f i metadatagram.obj
 0001:00014a00       ?clear@?$_Tree@V?$_Tmap_traits@V?$basic_string@DU?$char_traits@D@std@@V?$allocator@D@2@@std@@V12@U?$less@V?$basic_string@DU?$char_traits@D@std@@V?$allocator@D@2@@std@@@2@V?$allocator@U?$pair@$$CBV?$basic_string@DU?$char_traits@D@std@@V?$allocator@D@2@@std@@V12@@std@@@2@$0A@@std@@@std@@QAEXXZ 00415a00 f i metadatagram.obj
 0001:00014aa0       ?compare@?$basic_string@DU?$char_traits@D@std@@V?$allocator@D@2@@std@@QBEHABV12@@Z 00415aa0 f i metadatagram.obj
 0001:00014b20       ?compare@?$char_traits@D@std@@SAHQBD0I@Z 00415b20 f i metadatagram.obj
 0001:00014b40       ?deallocate@?$_Default_allocator_traits@V?$allocator@U?$_Tree_node@U?$pair@$$CBV?$basic_string@DU?$char_traits@D@std@@V?$allocator@D@2@@std@@V12@@std@@PAX@std@@@std@@@std@@SAXAAV?$allocator@U?$_Tree_node@U?$pair@$$CBV?$basic_string@DU?$char_traits@D@std@@V?$allocator@D@2@@std@@V12@@std@@PAX@std@@@2@QAU?$_Tree_node@U?$pair@$$CBV?$basic_string@DU?$char_traits@D@std@@V?$allocator@D@2@@std@@V12@@std@@PAX@2@I@Z 00415b40 f i metadatagram.obj
 0001:00014b60       ?deallocate@?$allocator@U?$_Tree_node@U?$pair@$$CBV?$basic_string@DU?$char_traits@D@std@@V?$allocator@D@2@@std@@V12@@std@@PAX@std@@@std@@QAEXQAU?$_Tree_node@U?$pair@$$CBV?$basic_string@DU?$char_traits@D@std@@V?$allocator@D@2@@std@@V12@@std@@PAX@2@I@Z 00415b60 f i metadatagram.obj
 0001:00014b80       ?deallocate@?$allocator@V?$basic_string@DU?$char_traits@D@std@@V?$allocator@D@2@@std@@@std@@QAEXQAV?$basic_string@DU?$char_traits@D@std@@V?$allocator@D@2@@2@I@Z 00415b80 f i metadatagram.obj
 0001:00014ba0       ?end@?$_Tree@V?$_Tmap_traits@V?$basic_string@DU?$char_traits@D@std@@V?$allocator@D@2@@std@@V12@U?$less@V?$basic_string@DU?$char_traits@D@std@@V?$allocator@D@2@@std@@@2@V?$allocator@U?$pair@$$CBV?$basic_string@DU?$char_traits@D@std@@V?$allocator@D@2@@std@@V12@@std@@@2@$0A@@std@@@std@@QAE?AV?$_Tree_iterator@V?$_Tree_val@U?$_Tree_simple_types@U?$pair@$$CBV?$basic_string@DU?$char_traits@D@std@@V?$allocator@D@2@@std@@V12@@std@@@std@@@std@@@2@XZ 00415ba0 f i metadatagram.obj
 0001:00014c10       ?end@?$_Tree@V?$_Tmap_traits@V?$basic_string@DU?$char_traits@D@std@@V?$allocator@D@2@@std@@V12@U?$less@V?$basic_string@DU?$char_traits@D@std@@V?$allocator@D@2@@std@@@2@V?$allocator@U?$pair@$$CBV?$basic_string@DU?$char_traits@D@std@@V?$allocator@D@2@@std@@V12@@std@@@2@$0A@@std@@@std@@QBE?AV?$_Tree_const_iterator@V?$_Tree_val@U?$_Tree_simple_types@U?$pair@$$CBV?$basic_string@DU?$char_traits@D@std@@V?$allocator@D@2@@std@@V12@@std@@@std@@@std@@@2@XZ 00415c10 f i metadatagram.obj
 0001:00014c80       ?erase@?$_Tree@V?$_Tmap_traits@V?$basic_string@DU?$char_traits@D@std@@V?$allocator@D@2@@std@@V12@U?$less@V?$basic_string@DU?$char_traits@D@std@@V?$allocator@D@2@@std@@@2@V?$allocator@U?$pair@$$CBV?$basic_string@DU?$char_traits@D@std@@V?$allocator@D@2@@std@@V12@@std@@@2@$0A@@std@@@std@@QAE?AV?$_Tree_iterator@V?$_Tree_val@U?$_Tree_simple_types@U?$pair@$$CBV?$basic_string@DU?$char_traits@D@std@@V?$allocator@D@2@@std@@V12@@std@@@std@@@std@@@2@V?$_Tree_const_iterator@V?$_Tree_val@U?$_Tree_simple_types@U?$pair@$$CBV?$basic_string@DU?$char_traits@D@std@@V?$allocator@D@2@@std@@V12@@std@@@std@@@std@@@2@0@Z 00415c80 f i metadatagram.obj
 0001:00014e70       ?erase@?$_Tree@V?$_Tmap_traits@V?$basic_string@DU?$char_traits@D@std@@V?$allocator@D@2@@std@@V12@U?$less@V?$basic_string@DU?$char_traits@D@std@@V?$allocator@D@2@@std@@@2@V?$allocator@U?$pair@$$CBV?$basic_string@DU?$char_traits@D@std@@V?$allocator@D@2@@std@@V12@@std@@@2@$0A@@std@@@std@@QAE?AV?$_Tree_iterator@V?$_Tree_val@U?$_Tree_simple_types@U?$pair@$$CBV?$basic_string@DU?$char_traits@D@std@@V?$allocator@D@2@@std@@V12@@std@@@std@@@std@@@2@V?$_Tree_const_iterator@V?$_Tree_val@U?$_Tree_simple_types@U?$pair@$$CBV?$basic_string@DU?$char_traits@D@std@@V?$allocator@D@2@@std@@V12@@std@@@std@@@std@@@2@@Z 00415e70 f i metadatagram.obj
 0001:00014fe0       ?find@?$_Tree@V?$_Tmap_traits@V?$basic_string@DU?$char_traits@D@std@@V?$allocator@D@2@@std@@V12@U?$less@V?$basic_string@DU?$char_traits@D@std@@V?$allocator@D@2@@std@@@2@V?$allocator@U?$pair@$$CBV?$basic_string@DU?$char_traits@D@std@@V?$allocator@D@2@@std@@V12@@std@@@2@$0A@@std@@@std@@QBE?AV?$_Tree_const_iterator@V?$_Tree_val@U?$_Tree_simple_types@U?$pair@$$CBV?$basic_string@DU?$char_traits@D@std@@V?$allocator@D@2@@std@@V12@@std@@@std@@@std@@@2@ABV?$basic_string@DU?$char_traits@D@std@@V?$allocator@D@2@@2@@Z 00415fe0 f i metadatagram.obj
 0001:00015150       ?lower_bound@?$_Tree@V?$_Tmap_traits@V?$basic_string@DU?$char_traits@D@std@@V?$allocator@D@2@@std@@V12@U?$less@V?$basic_string@DU?$char_traits@D@std@@V?$allocator@D@2@@std@@@2@V?$allocator@U?$pair@$$CBV?$basic_string@DU?$char_traits@D@std@@V?$allocator@D@2@@std@@V12@@std@@@2@$0A@@std@@@std@@QBE?AV?$_Tree_const_iterator@V?$_Tree_val@U?$_Tree_simple_types@U?$pair@$$CBV?$basic_string@DU?$char_traits@D@std@@V?$allocator@D@2@@std@@V12@@std@@@std@@@std@@@2@ABV?$basic_string@DU?$char_traits@D@std@@V?$allocator@D@2@@2@@Z 00416150 f i metadatagram.obj
 0001:000151a0       ?max_size@?$_Default_allocator_traits@V?$allocator@U?$_Tree_node@U?$pair@$$CBV?$basic_string@DU?$char_traits@D@std@@V?$allocator@D@2@@std@@V12@@std@@PAX@std@@@std@@@std@@SAIABV?$allocator@U?$_Tree_node@U?$pair@$$CBV?$basic_string@DU?$char_traits@D@std@@V?$allocator@D@2@@std@@V12@@std@@PAX@std@@@2@@Z 004161a0 f i metadatagram.obj
 0001:000151b0       ?max_size@?$_Default_allocator_traits@V?$allocator@V?$basic_string@DU?$char_traits@D@std@@V?$allocator@D@2@@std@@@std@@@std@@SAIABV?$allocator@V?$basic_string@DU?$char_traits@D@std@@V?$allocator@D@2@@std@@@2@@Z 004161b0 f i metadatagram.obj
 0001:000151c0       ?max_size@?$_Tree@V?$_Tmap_traits@V?$basic_string@DU?$char_traits@D@std@@V?$allocator@D@2@@std@@V12@U?$less@V?$basic_string@DU?$char_traits@D@std@@V?$allocator@D@2@@std@@@2@V?$allocator@U?$pair@$$CBV?$basic_string@DU?$char_traits@D@std@@V?$allocator@D@2@@std@@V12@@std@@@2@$0A@@std@@@std@@QBEIXZ 004161c0 f i metadatagram.obj
 0001:000151e0       ?max_size@?$vector@V?$basic_string@DU?$char_traits@D@std@@V?$allocator@D@2@@std@@V?$allocator@V?$basic_string@DU?$char_traits@D@std@@V?$allocator@D@2@@std@@@2@@std@@QBEIXZ 004161e0 f i metadatagram.obj
 0001:00015220       ?pointer_to@?$pointer_traits@PBU?$pair@$$CBV?$basic_string@DU?$char_traits@D@std@@V?$allocator@D@2@@std@@V12@@std@@@std@@SAPBU?$pair@$$CBV?$basic_string@DU?$char_traits@D@std@@V?$allocator@D@2@@std@@V12@@2@ABU32@@Z 00416220 f i metadatagram.obj
 0001:00015240       ?push_back@?$basic_string@DU?$char_traits@D@std@@V?$allocator@D@2@@std@@QAEXD@Z 00416240 f i metadatagram.obj
 0001:000152d0       ?push_back@?$vector@V?$basic_string@DU?$char_traits@D@std@@V?$allocator@D@2@@std@@V?$allocator@V?$basic_string@DU?$char_traits@D@std@@V?$allocator@D@2@@std@@@2@@std@@QAEXABV?$basic_string@DU?$char_traits@D@std@@V?$allocator@D@2@@2@@Z 004162d0 f i metadatagram.obj
 0001:000152f0       ?select_on_container_copy_construction@?$_Default_allocator_traits@V?$allocator@V?$basic_string@DU?$char_traits@D@std@@V?$allocator@D@2@@std@@@std@@@std@@SA?AV?$allocator@V?$basic_string@DU?$char_traits@D@std@@V?$allocator@D@2@@std@@@2@ABV32@@Z 004162f0 f i metadatagram.obj
 0001:00015300       ?size@?$_Tree@V?$_Tmap_traits@V?$basic_string@DU?$char_traits@D@std@@V?$allocator@D@2@@std@@V12@U?$less@V?$basic_string@DU?$char_traits@D@std@@V?$allocator@D@2@@std@@@2@V?$allocator@U?$pair@$$CBV?$basic_string@DU?$char_traits@D@std@@V?$allocator@D@2@@std@@V12@@std@@@2@$0A@@std@@@std@@QBEIXZ 00416300 f i metadatagram.obj
 0001:00015320       ?size@?$vector@V?$basic_string@DU?$char_traits@D@std@@V?$allocator@D@2@@std@@V?$allocator@V?$basic_string@DU?$char_traits@D@std@@V?$allocator@D@2@@std@@@2@@std@@QBEIXZ 00416320 f i metadatagram.obj
 0001:00015350       ?to_string@std@@YA?AV?$basic_string@DU?$char_traits@D@std@@V?$allocator@D@2@@1@H@Z 00416350 f i metadatagram.obj
 0001:00015380       ??0ParserManager@@QAE@XZ   00416380 f   parsermanager.obj
 0001:00015390       ??1ParserManager@@QAE@XZ   00416390 f   parsermanager.obj
 0001:000153a0       ?readDatagram@ParserManager@@QAEXABUXsByteArray@@@Z 004163a0 f   parsermanager.obj
 0001:00015400       ?createDgram@ParserManager@@AAEPAVDatagram@@W4StreamingProtocol@@@Z 00416400 f   parsermanager.obj
 0001:000157c0       ??0PositionDatagram@@QAE@XZ 004167c0 f   positiondatagram.obj
 0001:00015830       ??1PositionDatagram@@UAE@XZ 00416830 f   positiondatagram.obj
 0001:00015860       ?printData@PositionDatagram@@UBEXXZ 00416860 f   positiondatagram.obj
 0001:00015a20       ?deserializeData@PositionDatagram@@MAEXAAVStreamer@@@Z 00416a20 f   positiondatagram.obj
 0001:00015b00       ??$?0$$V@?$_Compressed_pair@V?$allocator@UVirtualMarkerSet@PositionDatagram@@@std@@V?$_Vector_val@U?$_Simple_types@UVirtualMarkerSet@PositionDatagram@@@std@@@2@$00@std@@QAE@U_Zero_then_variadic_args_t@1@@Z 00416b00 f i positiondatagram.obj
 0001:00015b20       ??$?0UVirtualMarkerSet@PositionDatagram@@@?$allocator@U_Container_proxy@std@@@std@@QAE@ABV?$allocator@UVirtualMarkerSet@PositionDatagram@@@1@@Z 00416b20 f i positiondatagram.obj
 0001:00015b30       ??$_Copy_memmove@PAUVirtualMarkerSet@PositionDatagram@@PAU12@@std@@YAPAUVirtualMarkerSet@PositionDatagram@@PAU12@00@Z 00416b30 f i positiondatagram.obj
 0001:00015b70       ??$_Destroy_range1@V?$allocator@UVirtualMarkerSet@PositionDatagram@@@std@@@std@@YAXPAUVirtualMarkerSet@PositionDatagram@@0AAV?$allocator@UVirtualMarkerSet@PositionDatagram@@@0@U?$integral_constant@_N$00@0@@Z 00416b70 f i positiondatagram.obj
 0001:00015b80       ??$_Destroy_range@V?$allocator@UVirtualMarkerSet@PositionDatagram@@@std@@@std@@YAXPAUVirtualMarkerSet@PositionDatagram@@0AAV?$allocator@UVirtualMarkerSet@PositionDatagram@@@0@@Z 00416b80 f i positiondatagram.obj
 0001:00015bb0       ??$_Emplace_back_with_unused_capacity@ABUVirtualMarkerSet@PositionDatagram@@@?$vector@UVirtualMarkerSet@PositionDatagram@@V?$allocator@UVirtualMarkerSet@PositionDatagram@@@std@@@std@@AAEXABUVirtualMarkerSet@PositionDatagram@@@Z 00416bb0 f i positiondatagram.obj
 0001:00015c40       ??$_Emplace_reallocate@ABUVirtualMarkerSet@PositionDatagram@@@?$vector@UVirtualMarkerSet@PositionDatagram@@V?$allocator@UVirtualMarkerSet@PositionDatagram@@@std@@@std@@QAEPAUVirtualMarkerSet@PositionDatagram@@QAU23@ABU23@@Z 00416c40 f i positiondatagram.obj
 0001:00015e20       ??$_Get_size_of_n@$0BA@@std@@YAII@Z 00416e20 f i positiondatagram.obj
 0001:00015e50       ??$_Ptr_move_cat@UVirtualMarkerSet@PositionDatagram@@U12@@std@@YA?AU_Really_trivial_ptr_iterator_tag@0@ABQAUVirtualMarkerSet@PositionDatagram@@0@Z 00416e50 f i positiondatagram.obj
 0001:00015e60       ??$_Rechecked@PAUVirtualMarkerSet@PositionDatagram@@PAU12@@std@@YAAAPAUVirtualMarkerSet@PositionDatagram@@AAPAU12@QAU12@@Z 00416e60 f i positiondatagram.obj
 0001:00015e70       ??$_Unchecked@PAUVirtualMarkerSet@PositionDatagram@@@std@@YAPAUVirtualMarkerSet@PositionDatagram@@PAU12@@Z 00416e70 f i positiondatagram.obj
 0001:00015e80       ??$_Unfancy@UVirtualMarkerSet@PositionDatagram@@@std@@YAPAUVirtualMarkerSet@PositionDatagram@@PAU12@@Z 00416e80 f i positiondatagram.obj
 0001:00015e90       ??$_Uninitialized_move@PAUVirtualMarkerSet@PositionDatagram@@PAU12@V?$allocator@UVirtualMarkerSet@PositionDatagram@@@std@@@std@@YAPAUVirtualMarkerSet@PositionDatagram@@QAU12@0PAU12@AAV?$allocator@UVirtualMarkerSet@PositionDatagram@@@0@@Z 00416e90 f i positiondatagram.obj
 0001:00015f10       ??$_Uninitialized_move_al_unchecked@UVirtualMarkerSet@PositionDatagram@@U12@V?$allocator@UVirtualMarkerSet@PositionDatagram@@@std@@@std@@YAPAUVirtualMarkerSet@PositionDatagram@@QAU12@00AAV?$allocator@UVirtualMarkerSet@PositionDatagram@@@0@U_Really_trivial_ptr_iterator_tag@0@U?$integral_constant@_N$00@0@@Z 00416f10 f i positiondatagram.obj
 0001:00015f30       ??$addressof@V?$_Vector_val@U?$_Simple_types@UVirtualMarkerSet@PositionDatagram@@@std@@@std@@@std@@YAPAV?$_Vector_val@U?$_Simple_types@UVirtualMarkerSet@PositionDatagram@@@std@@@0@AAV10@@Z 00416f30 f i positiondatagram.obj
 0001:00015f40       ??$construct@UVirtualMarkerSet@PositionDatagram@@ABU12@@?$_Default_allocator_traits@V?$allocator@UVirtualMarkerSet@PositionDatagram@@@std@@@std@@SAXAAV?$allocator@UVirtualMarkerSet@PositionDatagram@@@1@QAUVirtualMarkerSet@PositionDatagram@@ABU34@@Z 00416f40 f i positiondatagram.obj
 0001:00015f80       ??$emplace_back@ABUVirtualMarkerSet@PositionDatagram@@@?$vector@UVirtualMarkerSet@PositionDatagram@@V?$allocator@UVirtualMarkerSet@PositionDatagram@@@std@@@std@@QAEXABUVirtualMarkerSet@PositionDatagram@@@Z 00416f80 f i positiondatagram.obj
 0001:00015fe0       ??$forward@ABUVirtualMarkerSet@PositionDatagram@@@std@@YAABUVirtualMarkerSet@PositionDatagram@@ABU12@@Z 00416fe0 f i positiondatagram.obj
 0001:00015ff0       ??0?$_Vector_alloc@U?$_Vec_base_types@UVirtualMarkerSet@PositionDatagram@@V?$allocator@UVirtualMarkerSet@PositionDatagram@@@std@@@std@@@std@@QAE@XZ 00416ff0 f i positiondatagram.obj
 0001:00016020       ??0?$_Vector_val@U?$_Simple_types@UVirtualMarkerSet@PositionDatagram@@@std@@@std@@QAE@XZ 00417020 f i positiondatagram.obj
 0001:00016060       ??0?$allocator@UVirtualMarkerSet@PositionDatagram@@@std@@QAE@XZ 00417060 f i positiondatagram.obj
 0001:00016070       ??0?$vector@UVirtualMarkerSet@PositionDatagram@@V?$allocator@UVirtualMarkerSet@PositionDatagram@@@std@@@std@@QAE@XZ 00417070 f i positiondatagram.obj
 0001:000160b0       ??1?$_Vector_alloc@U?$_Vec_base_types@UVirtualMarkerSet@PositionDatagram@@V?$allocator@UVirtualMarkerSet@PositionDatagram@@@std@@@std@@@std@@QAE@XZ 004170b0 f i positiondatagram.obj
 0001:000160f0       ??1?$vector@UVirtualMarkerSet@PositionDatagram@@V?$allocator@UVirtualMarkerSet@PositionDatagram@@@std@@@std@@QAE@XZ 004170f0 f i positiondatagram.obj
 0001:00016140       ??_GPositionDatagram@@UAEPAXI@Z 00417140 f i positiondatagram.obj
 0001:00016140       ??_EPositionDatagram@@UAEPAXI@Z 00417140 f i positiondatagram.obj
 0001:00016170       ?_Alloc_proxy@?$_Vector_alloc@U?$_Vec_base_types@UVirtualMarkerSet@PositionDatagram@@V?$allocator@UVirtualMarkerSet@PositionDatagram@@@std@@@std@@@std@@QAEXXZ 00417170 f i positiondatagram.obj
 0001:000161f0       ?_Calculate_growth@?$vector@UVirtualMarkerSet@PositionDatagram@@V?$allocator@UVirtualMarkerSet@PositionDatagram@@@std@@@std@@ABEII@Z 004171f0 f i positiondatagram.obj
 0001:00016240       ?_Change_array@?$vector@UVirtualMarkerSet@PositionDatagram@@V?$allocator@UVirtualMarkerSet@PositionDatagram@@@std@@@std@@AAEXQAUVirtualMarkerSet@PositionDatagram@@II@Z 00417240 f i positiondatagram.obj
 0001:000162e0       ?_Destroy@?$vector@UVirtualMarkerSet@PositionDatagram@@V?$allocator@UVirtualMarkerSet@PositionDatagram@@@std@@@std@@AAEXPAUVirtualMarkerSet@PositionDatagram@@0@Z 004172e0 f i positiondatagram.obj
 0001:00016310       ?_Free_proxy@?$_Vector_alloc@U?$_Vec_base_types@UVirtualMarkerSet@PositionDatagram@@V?$allocator@UVirtualMarkerSet@PositionDatagram@@@std@@@std@@@std@@QAEXXZ 00417310 f i positiondatagram.obj
 0001:00016380       ?_Get_data@?$_Vector_alloc@U?$_Vec_base_types@UVirtualMarkerSet@PositionDatagram@@V?$allocator@UVirtualMarkerSet@PositionDatagram@@@std@@@std@@@std@@QAEAAV?$_Vector_val@U?$_Simple_types@UVirtualMarkerSet@PositionDatagram@@@std@@@2@XZ 00417380 f i positiondatagram.obj
 0001:000163a0       ?_Get_data@?$_Vector_alloc@U?$_Vec_base_types@UVirtualMarkerSet@PositionDatagram@@V?$allocator@UVirtualMarkerSet@PositionDatagram@@@std@@@std@@@std@@QBEABV?$_Vector_val@U?$_Simple_types@UVirtualMarkerSet@PositionDatagram@@@std@@@2@XZ 004173a0 f i positiondatagram.obj
 0001:000163c0       ?_Get_first@?$_Compressed_pair@V?$allocator@UVirtualMarkerSet@PositionDatagram@@@std@@V?$_Vector_val@U?$_Simple_types@UVirtualMarkerSet@PositionDatagram@@@std@@@2@$00@std@@QAEAAV?$allocator@UVirtualMarkerSet@PositionDatagram@@@2@XZ 004173c0 f i positiondatagram.obj
 0001:000163d0       ?_Get_first@?$_Compressed_pair@V?$allocator@UVirtualMarkerSet@PositionDatagram@@@std@@V?$_Vector_val@U?$_Simple_types@UVirtualMarkerSet@PositionDatagram@@@std@@@2@$00@std@@QBEABV?$allocator@UVirtualMarkerSet@PositionDatagram@@@2@XZ 004173d0 f i positiondatagram.obj
 0001:000163e0       ?_Get_second@?$_Compressed_pair@V?$allocator@UVirtualMarkerSet@PositionDatagram@@@std@@V?$_Vector_val@U?$_Simple_types@UVirtualMarkerSet@PositionDatagram@@@std@@@2@$00@std@@QAEAAV?$_Vector_val@U?$_Simple_types@UVirtualMarkerSet@PositionDatagram@@@std@@@2@XZ 004173e0 f i positiondatagram.obj
 0001:000163f0       ?_Get_second@?$_Compressed_pair@V?$allocator@UVirtualMarkerSet@PositionDatagram@@@std@@V?$_Vector_val@U?$_Simple_types@UVirtualMarkerSet@PositionDatagram@@@std@@@2@$00@std@@QBEABV?$_Vector_val@U?$_Simple_types@UVirtualMarkerSet@PositionDatagram@@@std@@@2@XZ 004173f0 f i positiondatagram.obj
 0001:00016400       ?_Getal@?$_Vector_alloc@U?$_Vec_base_types@UVirtualMarkerSet@PositionDatagram@@V?$allocator@UVirtualMarkerSet@PositionDatagram@@@std@@@std@@@std@@QAEAAV?$allocator@UVirtualMarkerSet@PositionDatagram@@@2@XZ 00417400 f i positiondatagram.obj
 0001:00016420       ?_Getal@?$_Vector_alloc@U?$_Vec_base_types@UVirtualMarkerSet@PositionDatagram@@V?$allocator@UVirtualMarkerSet@PositionDatagram@@@std@@@std@@@std@@QBEABV?$allocator@UVirtualMarkerSet@PositionDatagram@@@2@XZ 00417420 f i positiondatagram.obj
 0001:00016440       ?_Getpfirst@?$_Vector_alloc@U?$_Vec_base_types@UVirtualMarkerSet@PositionDatagram@@V?$allocator@UVirtualMarkerSet@PositionDatagram@@@std@@@std@@@std@@QBEPAPAU_Iterator_base12@2@XZ 00417440 f i positiondatagram.obj
 0001:00016460       ?_Has_unused_capacity@?$vector@UVirtualMarkerSet@PositionDatagram@@V?$allocator@UVirtualMarkerSet@PositionDatagram@@@std@@@std@@ABE_NXZ 00417460 f i positiondatagram.obj
 0001:000164a0       ?_Myend@?$_Vector_alloc@U?$_Vec_base_types@UVirtualMarkerSet@PositionDatagram@@V?$allocator@UVirtualMarkerSet@PositionDatagram@@@std@@@std@@@std@@QAEAAPAUVirtualMarkerSet@PositionDatagram@@XZ 004174a0 f i positiondatagram.obj
 0001:000164c0       ?_Myend@?$_Vector_alloc@U?$_Vec_base_types@UVirtualMarkerSet@PositionDatagram@@V?$allocator@UVirtualMarkerSet@PositionDatagram@@@std@@@std@@@std@@QBEABQAUVirtualMarkerSet@PositionDatagram@@XZ 004174c0 f i positiondatagram.obj
 0001:000164e0       ?_Myfirst@?$_Vector_alloc@U?$_Vec_base_types@UVirtualMarkerSet@PositionDatagram@@V?$allocator@UVirtualMarkerSet@PositionDatagram@@@std@@@std@@@std@@QAEAAPAUVirtualMarkerSet@PositionDatagram@@XZ 004174e0 f i positiondatagram.obj
 0001:00016500       ?_Myfirst@?$_Vector_alloc@U?$_Vec_base_types@UVirtualMarkerSet@PositionDatagram@@V?$allocator@UVirtualMarkerSet@PositionDatagram@@@std@@@std@@@std@@QBEABQAUVirtualMarkerSet@PositionDatagram@@XZ 00417500 f i positiondatagram.obj
 0001:00016520       ?_Mylast@?$_Vector_alloc@U?$_Vec_base_types@UVirtualMarkerSet@PositionDatagram@@V?$allocator@UVirtualMarkerSet@PositionDatagram@@@std@@@std@@@std@@QAEAAPAUVirtualMarkerSet@PositionDatagram@@XZ 00417520 f i positiondatagram.obj
 0001:00016540       ?_Mylast@?$_Vector_alloc@U?$_Vec_base_types@UVirtualMarkerSet@PositionDatagram@@V?$allocator@UVirtualMarkerSet@PositionDatagram@@@std@@@std@@@std@@QBEABQAUVirtualMarkerSet@PositionDatagram@@XZ 00417540 f i positiondatagram.obj
 0001:00016560       ?_Myproxy@?$_Vector_alloc@U?$_Vec_base_types@UVirtualMarkerSet@PositionDatagram@@V?$allocator@UVirtualMarkerSet@PositionDatagram@@@std@@@std@@@std@@QAEAAPAU_Container_proxy@2@XZ 00417560 f i positiondatagram.obj
 0001:00016580       ?_Orphan_all@?$_Vector_alloc@U?$_Vec_base_types@UVirtualMarkerSet@PositionDatagram@@V?$allocator@UVirtualMarkerSet@PositionDatagram@@@std@@@std@@@std@@QAEXXZ 00417580 f i positiondatagram.obj
 0001:000165a0       ?_Orphan_range@?$vector@UVirtualMarkerSet@PositionDatagram@@V?$allocator@UVirtualMarkerSet@PositionDatagram@@@std@@@std@@ABEXPAUVirtualMarkerSet@PositionDatagram@@0@Z 004175a0 f i positiondatagram.obj
 0001:00016660       ?_Tidy@?$vector@UVirtualMarkerSet@PositionDatagram@@V?$allocator@UVirtualMarkerSet@PositionDatagram@@@std@@@std@@AAEXXZ 00417660 f i positiondatagram.obj
 0001:000166f0       ?_Umove@?$vector@UVirtualMarkerSet@PositionDatagram@@V?$allocator@UVirtualMarkerSet@PositionDatagram@@@std@@@std@@AAEPAUVirtualMarkerSet@PositionDatagram@@PAU34@00@Z 004176f0 f i positiondatagram.obj
 0001:00016720       ?_Umove_if_noexcept1@?$vector@UVirtualMarkerSet@PositionDatagram@@V?$allocator@UVirtualMarkerSet@PositionDatagram@@@std@@@std@@AAEXPAUVirtualMarkerSet@PositionDatagram@@00U?$integral_constant@_N$00@2@@Z 00417720 f i positiondatagram.obj
 0001:00016750       ?_Umove_if_noexcept@?$vector@UVirtualMarkerSet@PositionDatagram@@V?$allocator@UVirtualMarkerSet@PositionDatagram@@@std@@@std@@AAEXPAUVirtualMarkerSet@PositionDatagram@@00@Z 00417750 f i positiondatagram.obj
 0001:00016780       ?_Xlength@?$vector@UVirtualMarkerSet@PositionDatagram@@V?$allocator@UVirtualMarkerSet@PositionDatagram@@@std@@@std@@CAXXZ 00417780 f i positiondatagram.obj
 0001:00016790       ?_Xrange@?$vector@UVirtualMarkerSet@PositionDatagram@@V?$allocator@UVirtualMarkerSet@PositionDatagram@@@std@@@std@@CAXXZ 00417790 f i positiondatagram.obj
 0001:000167a0       ?allocate@?$allocator@UVirtualMarkerSet@PositionDatagram@@@std@@QAEPAUVirtualMarkerSet@PositionDatagram@@I@Z 004177a0 f i positiondatagram.obj
 0001:000167d0       ?at@?$vector@UVirtualMarkerSet@PositionDatagram@@V?$allocator@UVirtualMarkerSet@PositionDatagram@@@std@@@std@@QBEABUVirtualMarkerSet@PositionDatagram@@I@Z 004177d0 f i positiondatagram.obj
 0001:00016810       ?capacity@?$vector@UVirtualMarkerSet@PositionDatagram@@V?$allocator@UVirtualMarkerSet@PositionDatagram@@@std@@@std@@QBEIXZ 00417810 f i positiondatagram.obj
 0001:00016840       ?deallocate@?$allocator@UVirtualMarkerSet@PositionDatagram@@@std@@QAEXQAUVirtualMarkerSet@PositionDatagram@@I@Z 00417840 f i positiondatagram.obj
 0001:00016860       ?max_size@?$_Default_allocator_traits@V?$allocator@UVirtualMarkerSet@PositionDatagram@@@std@@@std@@SAIABV?$allocator@UVirtualMarkerSet@PositionDatagram@@@2@@Z 00417860 f i positiondatagram.obj
 0001:00016870       ?max_size@?$vector@UVirtualMarkerSet@PositionDatagram@@V?$allocator@UVirtualMarkerSet@PositionDatagram@@@std@@@std@@QBEIXZ 00417870 f i positiondatagram.obj
 0001:000168b0       ?push_back@?$vector@UVirtualMarkerSet@PositionDatagram@@V?$allocator@UVirtualMarkerSet@PositionDatagram@@@std@@@std@@QAEXABUVirtualMarkerSet@PositionDatagram@@@Z 004178b0 f i positiondatagram.obj
 0001:000168d0       ?size@?$vector@UVirtualMarkerSet@PositionDatagram@@V?$allocator@UVirtualMarkerSet@PositionDatagram@@@std@@@std@@QBEIXZ 004178d0 f i positiondatagram.obj
 0001:00016900       ??0QuaternionDatagram@@QAE@XZ 00417900 f   quaterniondatagram.obj
 0001:00016970       ??1QuaternionDatagram@@UAE@XZ 00417970 f   quaterniondatagram.obj
 0001:000169a0       ?printData@QuaternionDatagram@@UBEXXZ 004179a0 f   quaterniondatagram.obj
 0001:00016cc0       ?deserializeData@QuaternionDatagram@@MAEXAAVStreamer@@@Z 00417cc0 f   quaterniondatagram.obj
 0001:00016dc0       ??$?0$$V@?$_Compressed_pair@V?$allocator@UKinematics@QuaternionDatagram@@@std@@V?$_Vector_val@U?$_Simple_types@UKinematics@QuaternionDatagram@@@std@@@2@$00@std@@QAE@U_Zero_then_variadic_args_t@1@@Z 00417dc0 f i quaterniondatagram.obj
 0001:00016de0       ??$?0UKinematics@QuaternionDatagram@@@?$allocator@U_Container_proxy@std@@@std@@QAE@ABV?$allocator@UKinematics@QuaternionDatagram@@@1@@Z 00417de0 f i quaterniondatagram.obj
 0001:00016df0       ??$_Copy_memmove@PAUKinematics@QuaternionDatagram@@PAU12@@std@@YAPAUKinematics@QuaternionDatagram@@PAU12@00@Z 00417df0 f i quaterniondatagram.obj
 0001:00016e30       ??$_Destroy_range1@V?$allocator@UKinematics@QuaternionDatagram@@@std@@@std@@YAXPAUKinematics@QuaternionDatagram@@0AAV?$allocator@UKinematics@QuaternionDatagram@@@0@U?$integral_constant@_N$00@0@@Z 00417e30 f i quaterniondatagram.obj
 0001:00016e40       ??$_Destroy_range@V?$allocator@UKinematics@QuaternionDatagram@@@std@@@std@@YAXPAUKinematics@QuaternionDatagram@@0AAV?$allocator@UKinematics@QuaternionDatagram@@@0@@Z 00417e40 f i quaterniondatagram.obj
 0001:00016e70       ??$_Emplace_back_with_unused_capacity@ABUKinematics@QuaternionDatagram@@@?$vector@UKinematics@QuaternionDatagram@@V?$allocator@UKinematics@QuaternionDatagram@@@std@@@std@@AAEXABUKinematics@QuaternionDatagram@@@Z 00417e70 f i quaterniondatagram.obj
 0001:00016f00       ??$_Emplace_reallocate@ABUKinematics@QuaternionDatagram@@@?$vector@UKinematics@QuaternionDatagram@@V?$allocator@UKinematics@QuaternionDatagram@@@std@@@std@@QAEPAUKinematics@QuaternionDatagram@@QAU23@ABU23@@Z 00417f00 f i quaterniondatagram.obj
 0001:000170e0       ??$_Get_size_of_n@$0CA@@std@@YAII@Z 004180e0 f i quaterniondatagram.obj
 0001:00017110       ??$_Ptr_move_cat@UKinematics@QuaternionDatagram@@U12@@std@@YA?AU_Really_trivial_ptr_iterator_tag@0@ABQAUKinematics@QuaternionDatagram@@0@Z 00418110 f i quaterniondatagram.obj
 0001:00017120       ??$_Rechecked@PAUKinematics@QuaternionDatagram@@PAU12@@std@@YAAAPAUKinematics@QuaternionDatagram@@AAPAU12@QAU12@@Z 00418120 f i quaterniondatagram.obj
 0001:00017130       ??$_Unchecked@PAUKinematics@QuaternionDatagram@@@std@@YAPAUKinematics@QuaternionDatagram@@PAU12@@Z 00418130 f i quaterniondatagram.obj
 0001:00017140       ??$_Unfancy@UKinematics@QuaternionDatagram@@@std@@YAPAUKinematics@QuaternionDatagram@@PAU12@@Z 00418140 f i quaterniondatagram.obj
 0001:00017150       ??$_Uninitialized_move@PAUKinematics@QuaternionDatagram@@PAU12@V?$allocator@UKinematics@QuaternionDatagram@@@std@@@std@@YAPAUKinematics@QuaternionDatagram@@QAU12@0PAU12@AAV?$allocator@UKinematics@QuaternionDatagram@@@0@@Z 00418150 f i quaterniondatagram.obj
 0001:000171d0       ??$_Uninitialized_move_al_unchecked@UKinematics@QuaternionDatagram@@U12@V?$allocator@UKinematics@QuaternionDatagram@@@std@@@std@@YAPAUKinematics@QuaternionDatagram@@QAU12@00AAV?$allocator@UKinematics@QuaternionDatagram@@@0@U_Really_trivial_ptr_iterator_tag@0@U?$integral_constant@_N$00@0@@Z 004181d0 f i quaterniondatagram.obj
 0001:000171f0       ??$addressof@V?$_Vector_val@U?$_Simple_types@UKinematics@QuaternionDatagram@@@std@@@std@@@std@@YAPAV?$_Vector_val@U?$_Simple_types@UKinematics@QuaternionDatagram@@@std@@@0@AAV10@@Z 004181f0 f i quaterniondatagram.obj
 0001:00017200       ??$construct@UKinematics@QuaternionDatagram@@ABU12@@?$_Default_allocator_traits@V?$allocator@UKinematics@QuaternionDatagram@@@std@@@std@@SAXAAV?$allocator@UKinematics@QuaternionDatagram@@@1@QAUKinematics@QuaternionDatagram@@ABU34@@Z 00418200 f i quaterniondatagram.obj
 0001:00017240       ??$emplace_back@ABUKinematics@QuaternionDatagram@@@?$vector@UKinematics@QuaternionDatagram@@V?$allocator@UKinematics@QuaternionDatagram@@@std@@@std@@QAEXABUKinematics@QuaternionDatagram@@@Z 00418240 f i quaterniondatagram.obj
 0001:000172a0       ??$forward@ABUKinematics@QuaternionDatagram@@@std@@YAABUKinematics@QuaternionDatagram@@ABU12@@Z 004182a0 f i quaterniondatagram.obj
 0001:000172b0       ??0?$_Vector_alloc@U?$_Vec_base_types@UKinematics@QuaternionDatagram@@V?$allocator@UKinematics@QuaternionDatagram@@@std@@@std@@@std@@QAE@XZ 004182b0 f i quaterniondatagram.obj
 0001:000172e0       ??0?$_Vector_val@U?$_Simple_types@UKinematics@QuaternionDatagram@@@std@@@std@@QAE@XZ 004182e0 f i quaterniondatagram.obj
 0001:00017320       ??0?$allocator@UKinematics@QuaternionDatagram@@@std@@QAE@XZ 00418320 f i quaterniondatagram.obj
 0001:00017330       ??0?$vector@UKinematics@QuaternionDatagram@@V?$allocator@UKinematics@QuaternionDatagram@@@std@@@std@@QAE@XZ 00418330 f i quaterniondatagram.obj
 0001:00017370       ??1?$_Vector_alloc@U?$_Vec_base_types@UKinematics@QuaternionDatagram@@V?$allocator@UKinematics@QuaternionDatagram@@@std@@@std@@@std@@QAE@XZ 00418370 f i quaterniondatagram.obj
 0001:000173b0       ??1?$vector@UKinematics@QuaternionDatagram@@V?$allocator@UKinematics@QuaternionDatagram@@@std@@@std@@QAE@XZ 004183b0 f i quaterniondatagram.obj
 0001:00017400       ??_EQuaternionDatagram@@UAEPAXI@Z 00418400 f i quaterniondatagram.obj
 0001:00017400       ??_GQuaternionDatagram@@UAEPAXI@Z 00418400 f i quaterniondatagram.obj
 0001:00017430       ?_Alloc_proxy@?$_Vector_alloc@U?$_Vec_base_types@UKinematics@QuaternionDatagram@@V?$allocator@UKinematics@QuaternionDatagram@@@std@@@std@@@std@@QAEXXZ 00418430 f i quaterniondatagram.obj
 0001:000174b0       ?_Calculate_growth@?$vector@UKinematics@QuaternionDatagram@@V?$allocator@UKinematics@QuaternionDatagram@@@std@@@std@@ABEII@Z 004184b0 f i quaterniondatagram.obj
 0001:00017500       ?_Change_array@?$vector@UKinematics@QuaternionDatagram@@V?$allocator@UKinematics@QuaternionDatagram@@@std@@@std@@AAEXQAUKinematics@QuaternionDatagram@@II@Z 00418500 f i quaterniondatagram.obj
 0001:000175a0       ?_Destroy@?$vector@UKinematics@QuaternionDatagram@@V?$allocator@UKinematics@QuaternionDatagram@@@std@@@std@@AAEXPAUKinematics@QuaternionDatagram@@0@Z 004185a0 f i quaterniondatagram.obj
 0001:000175d0       ?_Free_proxy@?$_Vector_alloc@U?$_Vec_base_types@UKinematics@QuaternionDatagram@@V?$allocator@UKinematics@QuaternionDatagram@@@std@@@std@@@std@@QAEXXZ 004185d0 f i quaterniondatagram.obj
 0001:00017640       ?_Get_data@?$_Vector_alloc@U?$_Vec_base_types@UKinematics@QuaternionDatagram@@V?$allocator@UKinematics@QuaternionDatagram@@@std@@@std@@@std@@QAEAAV?$_Vector_val@U?$_Simple_types@UKinematics@QuaternionDatagram@@@std@@@2@XZ 00418640 f i quaterniondatagram.obj
 0001:00017660       ?_Get_data@?$_Vector_alloc@U?$_Vec_base_types@UKinematics@QuaternionDatagram@@V?$allocator@UKinematics@QuaternionDatagram@@@std@@@std@@@std@@QBEABV?$_Vector_val@U?$_Simple_types@UKinematics@QuaternionDatagram@@@std@@@2@XZ 00418660 f i quaterniondatagram.obj
 0001:00017680       ?_Get_first@?$_Compressed_pair@V?$allocator@UKinematics@QuaternionDatagram@@@std@@V?$_Vector_val@U?$_Simple_types@UKinematics@QuaternionDatagram@@@std@@@2@$00@std@@QAEAAV?$allocator@UKinematics@QuaternionDatagram@@@2@XZ 00418680 f i quaterniondatagram.obj
 0001:00017690       ?_Get_first@?$_Compressed_pair@V?$allocator@UKinematics@QuaternionDatagram@@@std@@V?$_Vector_val@U?$_Simple_types@UKinematics@QuaternionDatagram@@@std@@@2@$00@std@@QBEABV?$allocator@UKinematics@QuaternionDatagram@@@2@XZ 00418690 f i quaterniondatagram.obj
 0001:000176a0       ?_Get_second@?$_Compressed_pair@V?$allocator@UKinematics@QuaternionDatagram@@@std@@V?$_Vector_val@U?$_Simple_types@UKinematics@QuaternionDatagram@@@std@@@2@$00@std@@QAEAAV?$_Vector_val@U?$_Simple_types@UKinematics@QuaternionDatagram@@@std@@@2@XZ 004186a0 f i quaterniondatagram.obj
 0001:000176b0       ?_Get_second@?$_Compressed_pair@V?$allocator@UKinematics@QuaternionDatagram@@@std@@V?$_Vector_val@U?$_Simple_types@UKinematics@QuaternionDatagram@@@std@@@2@$00@std@@QBEABV?$_Vector_val@U?$_Simple_types@UKinematics@QuaternionDatagram@@@std@@@2@XZ 004186b0 f i quaterniondatagram.obj
 0001:000176c0       ?_Getal@?$_Vector_alloc@U?$_Vec_base_types@UKinematics@QuaternionDatagram@@V?$allocator@UKinematics@QuaternionDatagram@@@std@@@std@@@std@@QAEAAV?$allocator@UKinematics@QuaternionDatagram@@@2@XZ 004186c0 f i quaterniondatagram.obj
 0001:000176e0       ?_Getal@?$_Vector_alloc@U?$_Vec_base_types@UKinematics@QuaternionDatagram@@V?$allocator@UKinematics@QuaternionDatagram@@@std@@@std@@@std@@QBEABV?$allocator@UKinematics@QuaternionDatagram@@@2@XZ 004186e0 f i quaterniondatagram.obj
 0001:00017700       ?_Getpfirst@?$_Vector_alloc@U?$_Vec_base_types@UKinematics@QuaternionDatagram@@V?$allocator@UKinematics@QuaternionDatagram@@@std@@@std@@@std@@QBEPAPAU_Iterator_base12@2@XZ 00418700 f i quaterniondatagram.obj
 0001:00017720       ?_Has_unused_capacity@?$vector@UKinematics@QuaternionDatagram@@V?$allocator@UKinematics@QuaternionDatagram@@@std@@@std@@ABE_NXZ 00418720 f i quaterniondatagram.obj
 0001:00017760       ?_Myend@?$_Vector_alloc@U?$_Vec_base_types@UKinematics@QuaternionDatagram@@V?$allocator@UKinematics@QuaternionDatagram@@@std@@@std@@@std@@QAEAAPAUKinematics@QuaternionDatagram@@XZ 00418760 f i quaterniondatagram.obj
 0001:00017780       ?_Myend@?$_Vector_alloc@U?$_Vec_base_types@UKinematics@QuaternionDatagram@@V?$allocator@UKinematics@QuaternionDatagram@@@std@@@std@@@std@@QBEABQAUKinematics@QuaternionDatagram@@XZ 00418780 f i quaterniondatagram.obj
 0001:000177a0       ?_Myfirst@?$_Vector_alloc@U?$_Vec_base_types@UKinematics@QuaternionDatagram@@V?$allocator@UKinematics@QuaternionDatagram@@@std@@@std@@@std@@QAEAAPAUKinematics@QuaternionDatagram@@XZ 004187a0 f i quaterniondatagram.obj
 0001:000177c0       ?_Myfirst@?$_Vector_alloc@U?$_Vec_base_types@UKinematics@QuaternionDatagram@@V?$allocator@UKinematics@QuaternionDatagram@@@std@@@std@@@std@@QBEABQAUKinematics@QuaternionDatagram@@XZ 004187c0 f i quaterniondatagram.obj
 0001:000177e0       ?_Mylast@?$_Vector_alloc@U?$_Vec_base_types@UKinematics@QuaternionDatagram@@V?$allocator@UKinematics@QuaternionDatagram@@@std@@@std@@@std@@QAEAAPAUKinematics@QuaternionDatagram@@XZ 004187e0 f i quaterniondatagram.obj
 0001:00017800       ?_Mylast@?$_Vector_alloc@U?$_Vec_base_types@UKinematics@QuaternionDatagram@@V?$allocator@UKinematics@QuaternionDatagram@@@std@@@std@@@std@@QBEABQAUKinematics@QuaternionDatagram@@XZ 00418800 f i quaterniondatagram.obj
 0001:00017820       ?_Myproxy@?$_Vector_alloc@U?$_Vec_base_types@UKinematics@QuaternionDatagram@@V?$allocator@UKinematics@QuaternionDatagram@@@std@@@std@@@std@@QAEAAPAU_Container_proxy@2@XZ 00418820 f i quaterniondatagram.obj
 0001:00017840       ?_Orphan_all@?$_Vector_alloc@U?$_Vec_base_types@UKinematics@QuaternionDatagram@@V?$allocator@UKinematics@QuaternionDatagram@@@std@@@std@@@std@@QAEXXZ 00418840 f i quaterniondatagram.obj
 0001:00017860       ?_Orphan_range@?$vector@UKinematics@QuaternionDatagram@@V?$allocator@UKinematics@QuaternionDatagram@@@std@@@std@@ABEXPAUKinematics@QuaternionDatagram@@0@Z 00418860 f i quaterniondatagram.obj
 0001:00017920       ?_Tidy@?$vector@UKinematics@QuaternionDatagram@@V?$allocator@UKinematics@QuaternionDatagram@@@std@@@std@@AAEXXZ 00418920 f i quaterniondatagram.obj
 0001:000179b0       ?_Umove@?$vector@UKinematics@QuaternionDatagram@@V?$allocator@UKinematics@QuaternionDatagram@@@std@@@std@@AAEPAUKinematics@QuaternionDatagram@@PAU34@00@Z 004189b0 f i quaterniondatagram.obj
 0001:000179e0       ?_Umove_if_noexcept1@?$vector@UKinematics@QuaternionDatagram@@V?$allocator@UKinematics@QuaternionDatagram@@@std@@@std@@AAEXPAUKinematics@QuaternionDatagram@@00U?$integral_constant@_N$00@2@@Z 004189e0 f i quaterniondatagram.obj
 0001:00017a10       ?_Umove_if_noexcept@?$vector@UKinematics@QuaternionDatagram@@V?$allocator@UKinematics@QuaternionDatagram@@@std@@@std@@AAEXPAUKinematics@QuaternionDatagram@@00@Z 00418a10 f i quaterniondatagram.obj
 0001:00017a40       ?_Xlength@?$vector@UKinematics@QuaternionDatagram@@V?$allocator@UKinematics@QuaternionDatagram@@@std@@@std@@CAXXZ 00418a40 f i quaterniondatagram.obj
 0001:00017a50       ?_Xrange@?$vector@UKinematics@QuaternionDatagram@@V?$allocator@UKinematics@QuaternionDatagram@@@std@@@std@@CAXXZ 00418a50 f i quaterniondatagram.obj
 0001:00017a60       ?allocate@?$allocator@UKinematics@QuaternionDatagram@@@std@@QAEPAUKinematics@QuaternionDatagram@@I@Z 00418a60 f i quaterniondatagram.obj
 0001:00017a90       ?at@?$vector@UKinematics@QuaternionDatagram@@V?$allocator@UKinematics@QuaternionDatagram@@@std@@@std@@QBEABUKinematics@QuaternionDatagram@@I@Z 00418a90 f i quaterniondatagram.obj
 0001:00017ad0       ?capacity@?$vector@UKinematics@QuaternionDatagram@@V?$allocator@UKinematics@QuaternionDatagram@@@std@@@std@@QBEIXZ 00418ad0 f i quaterniondatagram.obj
 0001:00017b00       ?deallocate@?$allocator@UKinematics@QuaternionDatagram@@@std@@QAEXQAUKinematics@QuaternionDatagram@@I@Z 00418b00 f i quaterniondatagram.obj
 0001:00017b20       ?max_size@?$_Default_allocator_traits@V?$allocator@UKinematics@QuaternionDatagram@@@std@@@std@@SAIABV?$allocator@UKinematics@QuaternionDatagram@@@2@@Z 00418b20 f i quaterniondatagram.obj
 0001:00017b30       ?max_size@?$vector@UKinematics@QuaternionDatagram@@V?$allocator@UKinematics@QuaternionDatagram@@@std@@@std@@QBEIXZ 00418b30 f i quaterniondatagram.obj
 0001:00017b70       ?push_back@?$vector@UKinematics@QuaternionDatagram@@V?$allocator@UKinematics@QuaternionDatagram@@@std@@@std@@QAEXABUKinematics@QuaternionDatagram@@@Z 00418b70 f i quaterniondatagram.obj
 0001:00017b90       ?size@?$vector@UKinematics@QuaternionDatagram@@V?$allocator@UKinematics@QuaternionDatagram@@@std@@@std@@QBEIXZ 00418b90 f i quaterniondatagram.obj
 0001:00017bc0       ??0ScaleDatagram@@QAE@XZ   00418bc0 f   scaledatagram.obj
 0001:00017c40       ??1ScaleDatagram@@UAE@XZ   00418c40 f   scaledatagram.obj
 0001:00017c80       ?printData@ScaleDatagram@@UBEXXZ 00418c80 f   scaledatagram.obj
 0001:00018070       ?deserializeData@ScaleDatagram@@MAEXAAVStreamer@@@Z 00419070 f   scaledatagram.obj
 0001:00018350       ??$?0$$V@?$_Compressed_pair@V?$allocator@UNullPoseDefinition@ScaleDatagram@@@std@@V?$_Vector_val@U?$_Simple_types@UNullPoseDefinition@ScaleDatagram@@@std@@@2@$00@std@@QAE@U_Zero_then_variadic_args_t@1@@Z 00419350 f i scaledatagram.obj
 0001:00018370       ??$?0$$V@?$_Compressed_pair@V?$allocator@UPointDefinition@ScaleDatagram@@@std@@V?$_Vector_val@U?$_Simple_types@UPointDefinition@ScaleDatagram@@@std@@@2@$00@std@@QAE@U_Zero_then_variadic_args_t@1@@Z 00419370 f i scaledatagram.obj
 0001:00018390       ??$?0UNullPoseDefinition@ScaleDatagram@@@?$allocator@U_Container_proxy@std@@@std@@QAE@ABV?$allocator@UNullPoseDefinition@ScaleDatagram@@@1@@Z 00419390 f i scaledatagram.obj
 0001:000183a0       ??$?0UPointDefinition@ScaleDatagram@@@?$allocator@U_Container_proxy@std@@@std@@QAE@ABV?$allocator@UPointDefinition@ScaleDatagram@@@1@@Z 004193a0 f i scaledatagram.obj
 0001:000183b0       ??$_Destroy_range1@V?$allocator@UNullPoseDefinition@ScaleDatagram@@@std@@@std@@YAXPAUNullPoseDefinition@ScaleDatagram@@0AAV?$allocator@UNullPoseDefinition@ScaleDatagram@@@0@U?$integral_constant@_N$0A@@0@@Z 004193b0 f i scaledatagram.obj
 0001:000183f0       ??$_Destroy_range1@V?$allocator@UPointDefinition@ScaleDatagram@@@std@@@std@@YAXPAUPointDefinition@ScaleDatagram@@0AAV?$allocator@UPointDefinition@ScaleDatagram@@@0@U?$integral_constant@_N$0A@@0@@Z 004193f0 f i scaledatagram.obj
 0001:00018430       ??$_Destroy_range@V?$allocator@UNullPoseDefinition@ScaleDatagram@@@std@@@std@@YAXPAUNullPoseDefinition@ScaleDatagram@@0AAV?$allocator@UNullPoseDefinition@ScaleDatagram@@@0@@Z 00419430 f i scaledatagram.obj
 0001:00018460       ??$_Destroy_range@V?$allocator@UPointDefinition@ScaleDatagram@@@std@@@std@@YAXPAUPointDefinition@ScaleDatagram@@0AAV?$allocator@UPointDefinition@ScaleDatagram@@@0@@Z 00419460 f i scaledatagram.obj
 0001:00018490       ??$_Emplace_back@UNullPoseDefinition@ScaleDatagram@@@?$_Uninitialized_backout_al@PAUNullPoseDefinition@ScaleDatagram@@V?$allocator@UNullPoseDefinition@ScaleDatagram@@@std@@@std@@QAEX$$QAUNullPoseDefinition@ScaleDatagram@@@Z 00419490 f i scaledatagram.obj
 0001:000184e0       ??$_Emplace_back@UPointDefinition@ScaleDatagram@@@?$_Uninitialized_backout_al@PAUPointDefinition@ScaleDatagram@@V?$allocator@UPointDefinition@ScaleDatagram@@@std@@@std@@QAEX$$QAUPointDefinition@ScaleDatagram@@@Z 004194e0 f i scaledatagram.obj
 0001:00018530       ??$_Emplace_back_with_unused_capacity@ABUNullPoseDefinition@ScaleDatagram@@@?$vector@UNullPoseDefinition@ScaleDatagram@@V?$allocator@UNullPoseDefinition@ScaleDatagram@@@std@@@std@@AAEXABUNullPoseDefinition@ScaleDatagram@@@Z 00419530 f i scaledatagram.obj
 0001:000185c0       ??$_Emplace_back_with_unused_capacity@ABUPointDefinition@ScaleDatagram@@@?$vector@UPointDefinition@ScaleDatagram@@V?$allocator@UPointDefinition@ScaleDatagram@@@std@@@std@@AAEXABUPointDefinition@ScaleDatagram@@@Z 004195c0 f i scaledatagram.obj
 0001:00018650       ??$_Emplace_reallocate@ABUNullPoseDefinition@ScaleDatagram@@@?$vector@UNullPoseDefinition@ScaleDatagram@@V?$allocator@UNullPoseDefinition@ScaleDatagram@@@std@@@std@@QAEPAUNullPoseDefinition@ScaleDatagram@@QAU23@ABU23@@Z 00419650 f i scaledatagram.obj
 0001:00018830       ??$_Emplace_reallocate@ABUPointDefinition@ScaleDatagram@@@?$vector@UPointDefinition@ScaleDatagram@@V?$allocator@UPointDefinition@ScaleDatagram@@@std@@@std@@QAEPAUPointDefinition@ScaleDatagram@@QAU23@ABU23@@Z 00419830 f i scaledatagram.obj
 0001:00018a10       ??$_Ptr_move_cat@UNullPoseDefinition@ScaleDatagram@@U12@@std@@YA?AU_General_ptr_iterator_tag@0@ABQAUNullPoseDefinition@ScaleDatagram@@0@Z 00419a10 f i scaledatagram.obj
 0001:00018a20       ??$_Ptr_move_cat@UPointDefinition@ScaleDatagram@@U12@@std@@YA?AU_General_ptr_iterator_tag@0@ABQAUPointDefinition@ScaleDatagram@@0@Z 00419a20 f i scaledatagram.obj
 0001:00018b20       ??$_Rechecked@PAUNullPoseDefinition@ScaleDatagram@@PAU12@@std@@YAAAPAUNullPoseDefinition@ScaleDatagram@@AAPAU12@QAU12@@Z 00419b20 f i scaledatagram.obj
 0001:00018b30       ??$_Rechecked@PAUPointDefinition@ScaleDatagram@@PAU12@@std@@YAAAPAUPointDefinition@ScaleDatagram@@AAPAU12@QAU12@@Z 00419b30 f i scaledatagram.obj
 0001:00018b40       ??$_Unchecked@PAUNullPoseDefinition@ScaleDatagram@@@std@@YAPAUNullPoseDefinition@ScaleDatagram@@PAU12@@Z 00419b40 f i scaledatagram.obj
 0001:00018b50       ??$_Unchecked@PAUPointDefinition@ScaleDatagram@@@std@@YAPAUPointDefinition@ScaleDatagram@@PAU12@@Z 00419b50 f i scaledatagram.obj
 0001:00018b60       ??$_Unfancy@UNullPoseDefinition@ScaleDatagram@@@std@@YAPAUNullPoseDefinition@ScaleDatagram@@PAU12@@Z 00419b60 f i scaledatagram.obj
 0001:00018b70       ??$_Unfancy@UPointDefinition@ScaleDatagram@@@std@@YAPAUPointDefinition@ScaleDatagram@@PAU12@@Z 00419b70 f i scaledatagram.obj
 0001:00018b80       ??$_Uninitialized_move@PAUNullPoseDefinition@ScaleDatagram@@PAU12@V?$allocator@UNullPoseDefinition@ScaleDatagram@@@std@@@std@@YAPAUNullPoseDefinition@ScaleDatagram@@QAU12@0PAU12@AAV?$allocator@UNullPoseDefinition@ScaleDatagram@@@0@@Z 00419b80 f i scaledatagram.obj
 0001:00018c10       ??$_Uninitialized_move@PAUPointDefinition@ScaleDatagram@@PAU12@V?$allocator@UPointDefinition@ScaleDatagram@@@std@@@std@@YAPAUPointDefinition@ScaleDatagram@@QAU12@0PAU12@AAV?$allocator@UPointDefinition@ScaleDatagram@@@0@@Z 00419c10 f i scaledatagram.obj
 0001:00018ca0       ??$_Uninitialized_move_al_unchecked@PAUNullPoseDefinition@ScaleDatagram@@PAU12@V?$allocator@UNullPoseDefinition@ScaleDatagram@@@std@@@std@@YAPAUNullPoseDefinition@ScaleDatagram@@PAU12@QAU12@1AAV?$allocator@UNullPoseDefinition@ScaleDatagram@@@0@U_General_ptr_iterator_tag@0@U_Unused_parameter@0@@Z 00419ca0 f i scaledatagram.obj
 0001:00018d40       ??$_Uninitialized_move_al_unchecked@PAUPointDefinition@ScaleDatagram@@PAU12@V?$allocator@UPointDefinition@ScaleDatagram@@@std@@@std@@YAPAUPointDefinition@ScaleDatagram@@PAU12@QAU12@1AAV?$allocator@UPointDefinition@ScaleDatagram@@@0@U_General_ptr_iterator_tag@0@U_Unused_parameter@0@@Z 00419d40 f i scaledatagram.obj
 0001:00018de0       ??$addressof@V?$_Vector_val@U?$_Simple_types@UNullPoseDefinition@ScaleDatagram@@@std@@@std@@@std@@YAPAV?$_Vector_val@U?$_Simple_types@UNullPoseDefinition@ScaleDatagram@@@std@@@0@AAV10@@Z 00419de0 f i scaledatagram.obj
 0001:00018df0       ??$addressof@V?$_Vector_val@U?$_Simple_types@UPointDefinition@ScaleDatagram@@@std@@@std@@@std@@YAPAV?$_Vector_val@U?$_Simple_types@UPointDefinition@ScaleDatagram@@@std@@@0@AAV10@@Z 00419df0 f i scaledatagram.obj
 0001:00018e00       ??$construct@UNullPoseDefinition@ScaleDatagram@@ABU12@@?$_Default_allocator_traits@V?$allocator@UNullPoseDefinition@ScaleDatagram@@@std@@@std@@SAXAAV?$allocator@UNullPoseDefinition@ScaleDatagram@@@1@QAUNullPoseDefinition@ScaleDatagram@@ABU34@@Z 00419e00 f i scaledatagram.obj
 0001:00018e30       ??$construct@UNullPoseDefinition@ScaleDatagram@@U12@@?$_Default_allocator_traits@V?$allocator@UNullPoseDefinition@ScaleDatagram@@@std@@@std@@SAXAAV?$allocator@UNullPoseDefinition@ScaleDatagram@@@1@QAUNullPoseDefinition@ScaleDatagram@@$$QAU34@@Z 00419e30 f i scaledatagram.obj
 0001:00018e60       ??$construct@UPointDefinition@ScaleDatagram@@ABU12@@?$_Default_allocator_traits@V?$allocator@UPointDefinition@ScaleDatagram@@@std@@@std@@SAXAAV?$allocator@UPointDefinition@ScaleDatagram@@@1@QAUPointDefinition@ScaleDatagram@@ABU34@@Z 00419e60 f i scaledatagram.obj
 0001:00018e90       ??$construct@UPointDefinition@ScaleDatagram@@U12@@?$_Default_allocator_traits@V?$allocator@UPointDefinition@ScaleDatagram@@@std@@@std@@SAXAAV?$allocator@UPointDefinition@ScaleDatagram@@@1@QAUPointDefinition@ScaleDatagram@@$$QAU34@@Z 00419e90 f i scaledatagram.obj
 0001:00018ec0       ??$destroy@UNullPoseDefinition@ScaleDatagram@@@?$_Default_allocator_traits@V?$allocator@UNullPoseDefinition@ScaleDatagram@@@std@@@std@@SAXAAV?$allocator@UNullPoseDefinition@ScaleDatagram@@@1@QAUNullPoseDefinition@ScaleDatagram@@@Z 00419ec0 f i scaledatagram.obj
 0001:00018ed0       ??$destroy@UPointDefinition@ScaleDatagram@@@?$_Default_allocator_traits@V?$allocator@UPointDefinition@ScaleDatagram@@@std@@@std@@SAXAAV?$allocator@UPointDefinition@ScaleDatagram@@@1@QAUPointDefinition@ScaleDatagram@@@Z 00419ed0 f i scaledatagram.obj
 0001:00018ee0       ??$emplace_back@ABUNullPoseDefinition@ScaleDatagram@@@?$vector@UNullPoseDefinition@ScaleDatagram@@V?$allocator@UNullPoseDefinition@ScaleDatagram@@@std@@@std@@QAEXABUNullPoseDefinition@ScaleDatagram@@@Z 00419ee0 f i scaledatagram.obj
 0001:00018f40       ??$emplace_back@ABUPointDefinition@ScaleDatagram@@@?$vector@UPointDefinition@ScaleDatagram@@V?$allocator@UPointDefinition@ScaleDatagram@@@std@@@std@@QAEXABUPointDefinition@ScaleDatagram@@@Z 00419f40 f i scaledatagram.obj
 0001:00018fa0       ??$forward@ABUNullPoseDefinition@ScaleDatagram@@@std@@YAABUNullPoseDefinition@ScaleDatagram@@ABU12@@Z 00419fa0 f i scaledatagram.obj
 0001:00018fb0       ??$forward@ABUPointDefinition@ScaleDatagram@@@std@@YAABUPointDefinition@ScaleDatagram@@ABU12@@Z 00419fb0 f i scaledatagram.obj
 0001:00018fc0       ??$forward@UNullPoseDefinition@ScaleDatagram@@@std@@YA$$QAUNullPoseDefinition@ScaleDatagram@@AAU12@@Z 00419fc0 f i scaledatagram.obj
 0001:00018fd0       ??$forward@UPointDefinition@ScaleDatagram@@@std@@YA$$QAUPointDefinition@ScaleDatagram@@AAU12@@Z 00419fd0 f i scaledatagram.obj
 0001:00018fe0       ??$move@AAUNullPoseDefinition@ScaleDatagram@@@std@@YA$$QAUNullPoseDefinition@ScaleDatagram@@AAU12@@Z 00419fe0 f i scaledatagram.obj
 0001:00018ff0       ??$move@AAUPointDefinition@ScaleDatagram@@@std@@YA$$QAUPointDefinition@ScaleDatagram@@AAU12@@Z 00419ff0 f i scaledatagram.obj
 0001:00019000       ??0?$_Uninitialized_backout_al@PAUNullPoseDefinition@ScaleDatagram@@V?$allocator@UNullPoseDefinition@ScaleDatagram@@@std@@@std@@QAE@PAUNullPoseDefinition@ScaleDatagram@@AAV?$allocator@UNullPoseDefinition@ScaleDatagram@@@1@@Z 0041a000 f i scaledatagram.obj
 0001:00019030       ??0?$_Uninitialized_backout_al@PAUPointDefinition@ScaleDatagram@@V?$allocator@UPointDefinition@ScaleDatagram@@@std@@@std@@QAE@PAUPointDefinition@ScaleDatagram@@AAV?$allocator@UPointDefinition@ScaleDatagram@@@1@@Z 0041a030 f i scaledatagram.obj
 0001:00019060       ??0?$_Vector_alloc@U?$_Vec_base_types@UNullPoseDefinition@ScaleDatagram@@V?$allocator@UNullPoseDefinition@ScaleDatagram@@@std@@@std@@@std@@QAE@XZ 0041a060 f i scaledatagram.obj
 0001:00019090       ??0?$_Vector_alloc@U?$_Vec_base_types@UPointDefinition@ScaleDatagram@@V?$allocator@UPointDefinition@ScaleDatagram@@@std@@@std@@@std@@QAE@XZ 0041a090 f i scaledatagram.obj
 0001:000190c0       ??0?$_Vector_val@U?$_Simple_types@UNullPoseDefinition@ScaleDatagram@@@std@@@std@@QAE@XZ 0041a0c0 f i scaledatagram.obj
 0001:00019100       ??0?$_Vector_val@U?$_Simple_types@UPointDefinition@ScaleDatagram@@@std@@@std@@QAE@XZ 0041a100 f i scaledatagram.obj
 0001:00019140       ??0?$allocator@UNullPoseDefinition@ScaleDatagram@@@std@@QAE@XZ 0041a140 f i scaledatagram.obj
 0001:00019150       ??0?$allocator@UPointDefinition@ScaleDatagram@@@std@@QAE@XZ 0041a150 f i scaledatagram.obj
 0001:00019160       ??0?$vector@UNullPoseDefinition@ScaleDatagram@@V?$allocator@UNullPoseDefinition@ScaleDatagram@@@std@@@std@@QAE@XZ 0041a160 f i scaledatagram.obj
 0001:000191a0       ??0?$vector@UPointDefinition@ScaleDatagram@@V?$allocator@UPointDefinition@ScaleDatagram@@@std@@@std@@QAE@XZ 0041a1a0 f i scaledatagram.obj
 0001:000191e0       ??0NullPoseDefinition@ScaleDatagram@@QAE@$$QAU01@@Z 0041a1e0 f i scaledatagram.obj
 0001:00019220       ??0NullPoseDefinition@ScaleDatagram@@QAE@ABU01@@Z 0041a220 f i scaledatagram.obj
 0001:00019260       ??0NullPoseDefinition@ScaleDatagram@@QAE@XZ 0041a260 f i scaledatagram.obj
 0001:00019280       ??0PointDefinition@ScaleDatagram@@QAE@$$QAU01@@Z 0041a280 f i scaledatagram.obj
 0001:000192f0       ??0PointDefinition@ScaleDatagram@@QAE@ABU01@@Z 0041a2f0 f i scaledatagram.obj
 0001:00019360       ??0PointDefinition@ScaleDatagram@@QAE@XZ 0041a360 f i scaledatagram.obj
 0001:00019380       ??1?$_Uninitialized_backout_al@PAUNullPoseDefinition@ScaleDatagram@@V?$allocator@UNullPoseDefinition@ScaleDatagram@@@std@@@std@@QAE@XZ 0041a380 f i scaledatagram.obj
 0001:000193e0       ??1?$_Uninitialized_backout_al@PAUPointDefinition@ScaleDatagram@@V?$allocator@UPointDefinition@ScaleDatagram@@@std@@@std@@QAE@XZ 0041a3e0 f i scaledatagram.obj
 0001:00019440       ??1?$_Vector_alloc@U?$_Vec_base_types@UNullPoseDefinition@ScaleDatagram@@V?$allocator@UNullPoseDefinition@ScaleDatagram@@@std@@@std@@@std@@QAE@XZ 0041a440 f i scaledatagram.obj
 0001:00019480       ??1?$_Vector_alloc@U?$_Vec_base_types@UPointDefinition@ScaleDatagram@@V?$allocator@UPointDefinition@ScaleDatagram@@@std@@@std@@@std@@QAE@XZ 0041a480 f i scaledatagram.obj
 0001:000194c0       ??1?$vector@UNullPoseDefinition@ScaleDatagram@@V?$allocator@UNullPoseDefinition@ScaleDatagram@@@std@@@std@@QAE@XZ 0041a4c0 f i scaledatagram.obj
 0001:00019510       ??1?$vector@UPointDefinition@ScaleDatagram@@V?$allocator@UPointDefinition@ScaleDatagram@@@std@@@std@@QAE@XZ 0041a510 f i scaledatagram.obj
 0001:00019560       ??1NullPoseDefinition@ScaleDatagram@@QAE@XZ 0041a560 f i scaledatagram.obj
 0001:00019580       ??1PointDefinition@ScaleDatagram@@QAE@XZ 0041a580 f i scaledatagram.obj
 0001:000195e0       ??_GNullPoseDefinition@ScaleDatagram@@QAEPAXI@Z 0041a5e0 f i scaledatagram.obj
 0001:00019610       ??_GPointDefinition@ScaleDatagram@@QAEPAXI@Z 0041a610 f i scaledatagram.obj
 0001:00019640       ??_GScaleDatagram@@UAEPAXI@Z 0041a640 f i scaledatagram.obj
 0001:00019640       ??_EScaleDatagram@@UAEPAXI@Z 0041a640 f i scaledatagram.obj
 0001:00019670       ?_Alloc_proxy@?$_Vector_alloc@U?$_Vec_base_types@UNullPoseDefinition@ScaleDatagram@@V?$allocator@UNullPoseDefinition@ScaleDatagram@@@std@@@std@@@std@@QAEXXZ 0041a670 f i scaledatagram.obj
 0001:000196f0       ?_Alloc_proxy@?$_Vector_alloc@U?$_Vec_base_types@UPointDefinition@ScaleDatagram@@V?$allocator@UPointDefinition@ScaleDatagram@@@std@@@std@@@std@@QAEXXZ 0041a6f0 f i scaledatagram.obj
 0001:00019770       ?_Calculate_growth@?$vector@UNullPoseDefinition@ScaleDatagram@@V?$allocator@UNullPoseDefinition@ScaleDatagram@@@std@@@std@@ABEII@Z 0041a770 f i scaledatagram.obj
 0001:000197c0       ?_Calculate_growth@?$vector@UPointDefinition@ScaleDatagram@@V?$allocator@UPointDefinition@ScaleDatagram@@@std@@@std@@ABEII@Z 0041a7c0 f i scaledatagram.obj
 0001:00019810       ?_Change_array@?$vector@UNullPoseDefinition@ScaleDatagram@@V?$allocator@UNullPoseDefinition@ScaleDatagram@@@std@@@std@@AAEXQAUNullPoseDefinition@ScaleDatagram@@II@Z 0041a810 f i scaledatagram.obj
 0001:000198b0       ?_Change_array@?$vector@UPointDefinition@ScaleDatagram@@V?$allocator@UPointDefinition@ScaleDatagram@@@std@@@std@@AAEXQAUPointDefinition@ScaleDatagram@@II@Z 0041a8b0 f i scaledatagram.obj
 0001:00019950       ?_Destroy@?$vector@UNullPoseDefinition@ScaleDatagram@@V?$allocator@UNullPoseDefinition@ScaleDatagram@@@std@@@std@@AAEXPAUNullPoseDefinition@ScaleDatagram@@0@Z 0041a950 f i scaledatagram.obj
 0001:00019980       ?_Destroy@?$vector@UPointDefinition@ScaleDatagram@@V?$allocator@UPointDefinition@ScaleDatagram@@@std@@@std@@AAEXPAUPointDefinition@ScaleDatagram@@0@Z 0041a980 f i scaledatagram.obj
 0001:000199b0       ?_Free_proxy@?$_Vector_alloc@U?$_Vec_base_types@UNullPoseDefinition@ScaleDatagram@@V?$allocator@UNullPoseDefinition@ScaleDatagram@@@std@@@std@@@std@@QAEXXZ 0041a9b0 f i scaledatagram.obj
 0001:00019a20       ?_Free_proxy@?$_Vector_alloc@U?$_Vec_base_types@UPointDefinition@ScaleDatagram@@V?$allocator@UPointDefinition@ScaleDatagram@@@std@@@std@@@std@@QAEXXZ 0041aa20 f i scaledatagram.obj
 0001:00019a90       ?_Get_data@?$_Vector_alloc@U?$_Vec_base_types@UNullPoseDefinition@ScaleDatagram@@V?$allocator@UNullPoseDefinition@ScaleDatagram@@@std@@@std@@@std@@QAEAAV?$_Vector_val@U?$_Simple_types@UNullPoseDefinition@ScaleDatagram@@@std@@@2@XZ 0041aa90 f i scaledatagram.obj
 0001:00019ab0       ?_Get_data@?$_Vector_alloc@U?$_Vec_base_types@UNullPoseDefinition@ScaleDatagram@@V?$allocator@UNullPoseDefinition@ScaleDatagram@@@std@@@std@@@std@@QBEABV?$_Vector_val@U?$_Simple_types@UNullPoseDefinition@ScaleDatagram@@@std@@@2@XZ 0041aab0 f i scaledatagram.obj
 0001:00019ad0       ?_Get_data@?$_Vector_alloc@U?$_Vec_base_types@UPointDefinition@ScaleDatagram@@V?$allocator@UPointDefinition@ScaleDatagram@@@std@@@std@@@std@@QAEAAV?$_Vector_val@U?$_Simple_types@UPointDefinition@ScaleDatagram@@@std@@@2@XZ 0041aad0 f i scaledatagram.obj
 0001:00019af0       ?_Get_data@?$_Vector_alloc@U?$_Vec_base_types@UPointDefinition@ScaleDatagram@@V?$allocator@UPointDefinition@ScaleDatagram@@@std@@@std@@@std@@QBEABV?$_Vector_val@U?$_Simple_types@UPointDefinition@ScaleDatagram@@@std@@@2@XZ 0041aaf0 f i scaledatagram.obj
 0001:00019b10       ?_Get_first@?$_Compressed_pair@V?$allocator@UNullPoseDefinition@ScaleDatagram@@@std@@V?$_Vector_val@U?$_Simple_types@UNullPoseDefinition@ScaleDatagram@@@std@@@2@$00@std@@QAEAAV?$allocator@UNullPoseDefinition@ScaleDatagram@@@2@XZ 0041ab10 f i scaledatagram.obj
 0001:00019b20       ?_Get_first@?$_Compressed_pair@V?$allocator@UNullPoseDefinition@ScaleDatagram@@@std@@V?$_Vector_val@U?$_Simple_types@UNullPoseDefinition@ScaleDatagram@@@std@@@2@$00@std@@QBEABV?$allocator@UNullPoseDefinition@ScaleDatagram@@@2@XZ 0041ab20 f i scaledatagram.obj
 0001:00019b30       ?_Get_first@?$_Compressed_pair@V?$allocator@UPointDefinition@ScaleDatagram@@@std@@V?$_Vector_val@U?$_Simple_types@UPointDefinition@ScaleDatagram@@@std@@@2@$00@std@@QAEAAV?$allocator@UPointDefinition@ScaleDatagram@@@2@XZ 0041ab30 f i scaledatagram.obj
 0001:00019b40       ?_Get_first@?$_Compressed_pair@V?$allocator@UPointDefinition@ScaleDatagram@@@std@@V?$_Vector_val@U?$_Simple_types@UPointDefinition@ScaleDatagram@@@std@@@2@$00@std@@QBEABV?$allocator@UPointDefinition@ScaleDatagram@@@2@XZ 0041ab40 f i scaledatagram.obj
 0001:00019b50       ?_Get_second@?$_Compressed_pair@V?$allocator@UNullPoseDefinition@ScaleDatagram@@@std@@V?$_Vector_val@U?$_Simple_types@UNullPoseDefinition@ScaleDatagram@@@std@@@2@$00@std@@QAEAAV?$_Vector_val@U?$_Simple_types@UNullPoseDefinition@ScaleDatagram@@@std@@@2@XZ 0041ab50 f i scaledatagram.obj
 0001:00019b60       ?_Get_second@?$_Compressed_pair@V?$allocator@UNullPoseDefinition@ScaleDatagram@@@std@@V?$_Vector_val@U?$_Simple_types@UNullPoseDefinition@ScaleDatagram@@@std@@@2@$00@std@@QBEABV?$_Vector_val@U?$_Simple_types@UNullPoseDefinition@ScaleDatagram@@@std@@@2@XZ 0041ab60 f i scaledatagram.obj
 0001:00019b70       ?_Get_second@?$_Compressed_pair@V?$allocator@UPointDefinition@ScaleDatagram@@@std@@V?$_Vector_val@U?$_Simple_types@UPointDefinition@ScaleDatagram@@@std@@@2@$00@std@@QAEAAV?$_Vector_val@U?$_Simple_types@UPointDefinition@ScaleDatagram@@@std@@@2@XZ 0041ab70 f i scaledatagram.obj
 0001:00019b80       ?_Get_second@?$_Compressed_pair@V?$allocator@UPointDefinition@ScaleDatagram@@@std@@V?$_Vector_val@U?$_Simple_types@UPointDefinition@ScaleDatagram@@@std@@@2@$00@std@@QBEABV?$_Vector_val@U?$_Simple_types@UPointDefinition@ScaleDatagram@@@std@@@2@XZ 0041ab80 f i scaledatagram.obj
 0001:00019b90       ?_Getal@?$_Vector_alloc@U?$_Vec_base_types@UNullPoseDefinition@ScaleDatagram@@V?$allocator@UNullPoseDefinition@ScaleDatagram@@@std@@@std@@@std@@QAEAAV?$allocator@UNullPoseDefinition@ScaleDatagram@@@2@XZ 0041ab90 f i scaledatagram.obj
 0001:00019bb0       ?_Getal@?$_Vector_alloc@U?$_Vec_base_types@UNullPoseDefinition@ScaleDatagram@@V?$allocator@UNullPoseDefinition@ScaleDatagram@@@std@@@std@@@std@@QBEABV?$allocator@UNullPoseDefinition@ScaleDatagram@@@2@XZ 0041abb0 f i scaledatagram.obj
 0001:00019bd0       ?_Getal@?$_Vector_alloc@U?$_Vec_base_types@UPointDefinition@ScaleDatagram@@V?$allocator@UPointDefinition@ScaleDatagram@@@std@@@std@@@std@@QAEAAV?$allocator@UPointDefinition@ScaleDatagram@@@2@XZ 0041abd0 f i scaledatagram.obj
 0001:00019bf0       ?_Getal@?$_Vector_alloc@U?$_Vec_base_types@UPointDefinition@ScaleDatagram@@V?$allocator@UPointDefinition@ScaleDatagram@@@std@@@std@@@std@@QBEABV?$allocator@UPointDefinition@ScaleDatagram@@@2@XZ 0041abf0 f i scaledatagram.obj
 0001:00019c10       ?_Getpfirst@?$_Vector_alloc@U?$_Vec_base_types@UNullPoseDefinition@ScaleDatagram@@V?$allocator@UNullPoseDefinition@ScaleDatagram@@@std@@@std@@@std@@QBEPAPAU_Iterator_base12@2@XZ 0041ac10 f i scaledatagram.obj
 0001:00019c30       ?_Getpfirst@?$_Vector_alloc@U?$_Vec_base_types@UPointDefinition@ScaleDatagram@@V?$allocator@UPointDefinition@ScaleDatagram@@@std@@@std@@@std@@QBEPAPAU_Iterator_base12@2@XZ 0041ac30 f i scaledatagram.obj
 0001:00019c50       ?_Has_unused_capacity@?$vector@UNullPoseDefinition@ScaleDatagram@@V?$allocator@UNullPoseDefinition@ScaleDatagram@@@std@@@std@@ABE_NXZ 0041ac50 f i scaledatagram.obj
 0001:00019c90       ?_Has_unused_capacity@?$vector@UPointDefinition@ScaleDatagram@@V?$allocator@UPointDefinition@ScaleDatagram@@@std@@@std@@ABE_NXZ 0041ac90 f i scaledatagram.obj
 0001:00019cd0       ?_Myend@?$_Vector_alloc@U?$_Vec_base_types@UNullPoseDefinition@ScaleDatagram@@V?$allocator@UNullPoseDefinition@ScaleDatagram@@@std@@@std@@@std@@QAEAAPAUNullPoseDefinition@ScaleDatagram@@XZ 0041acd0 f i scaledatagram.obj
 0001:00019cf0       ?_Myend@?$_Vector_alloc@U?$_Vec_base_types@UNullPoseDefinition@ScaleDatagram@@V?$allocator@UNullPoseDefinition@ScaleDatagram@@@std@@@std@@@std@@QBEABQAUNullPoseDefinition@ScaleDatagram@@XZ 0041acf0 f i scaledatagram.obj
 0001:00019d10       ?_Myend@?$_Vector_alloc@U?$_Vec_base_types@UPointDefinition@ScaleDatagram@@V?$allocator@UPointDefinition@ScaleDatagram@@@std@@@std@@@std@@QAEAAPAUPointDefinition@ScaleDatagram@@XZ 0041ad10 f i scaledatagram.obj
 0001:00019d30       ?_Myend@?$_Vector_alloc@U?$_Vec_base_types@UPointDefinition@ScaleDatagram@@V?$allocator@UPointDefinition@ScaleDatagram@@@std@@@std@@@std@@QBEABQAUPointDefinition@ScaleDatagram@@XZ 0041ad30 f i scaledatagram.obj
 0001:00019d50       ?_Myfirst@?$_Vector_alloc@U?$_Vec_base_types@UNullPoseDefinition@ScaleDatagram@@V?$allocator@UNullPoseDefinition@ScaleDatagram@@@std@@@std@@@std@@QAEAAPAUNullPoseDefinition@ScaleDatagram@@XZ 0041ad50 f i scaledatagram.obj
 0001:00019d70       ?_Myfirst@?$_Vector_alloc@U?$_Vec_base_types@UNullPoseDefinition@ScaleDatagram@@V?$allocator@UNullPoseDefinition@ScaleDatagram@@@std@@@std@@@std@@QBEABQAUNullPoseDefinition@ScaleDatagram@@XZ 0041ad70 f i scaledatagram.obj
 0001:00019d90       ?_Myfirst@?$_Vector_alloc@U?$_Vec_base_types@UPointDefinition@ScaleDatagram@@V?$allocator@UPointDefinition@ScaleDatagram@@@std@@@std@@@std@@QAEAAPAUPointDefinition@ScaleDatagram@@XZ 0041ad90 f i scaledatagram.obj
 0001:00019db0       ?_Myfirst@?$_Vector_alloc@U?$_Vec_base_types@UPointDefinition@ScaleDatagram@@V?$allocator@UPointDefinition@ScaleDatagram@@@std@@@std@@@std@@QBEABQAUPointDefinition@ScaleDatagram@@XZ 0041adb0 f i scaledatagram.obj
 0001:00019dd0       ?_Mylast@?$_Vector_alloc@U?$_Vec_base_types@UNullPoseDefinition@ScaleDatagram@@V?$allocator@UNullPoseDefinition@ScaleDatagram@@@std@@@std@@@std@@QAEAAPAUNullPoseDefinition@ScaleDatagram@@XZ 0041add0 f i scaledatagram.obj
 0001:00019df0       ?_Mylast@?$_Vector_alloc@U?$_Vec_base_types@UNullPoseDefinition@ScaleDatagram@@V?$allocator@UNullPoseDefinition@ScaleDatagram@@@std@@@std@@@std@@QBEABQAUNullPoseDefinition@ScaleDatagram@@XZ 0041adf0 f i scaledatagram.obj
 0001:00019e10       ?_Mylast@?$_Vector_alloc@U?$_Vec_base_types@UPointDefinition@ScaleDatagram@@V?$allocator@UPointDefinition@ScaleDatagram@@@std@@@std@@@std@@QAEAAPAUPointDefinition@ScaleDatagram@@XZ 0041ae10 f i scaledatagram.obj
 0001:00019e30       ?_Mylast@?$_Vector_alloc@U?$_Vec_base_types@UPointDefinition@ScaleDatagram@@V?$allocator@UPointDefinition@ScaleDatagram@@@std@@@std@@@std@@QBEABQAUPointDefinition@ScaleDatagram@@XZ 0041ae30 f i scaledatagram.obj
 0001:00019e50       ?_Myproxy@?$_Vector_alloc@U?$_Vec_base_types@UNullPoseDefinition@ScaleDatagram@@V?$allocator@UNullPoseDefinition@ScaleDatagram@@@std@@@std@@@std@@QAEAAPAU_Container_proxy@2@XZ 0041ae50 f i scaledatagram.obj
 0001:00019e70       ?_Myproxy@?$_Vector_alloc@U?$_Vec_base_types@UPointDefinition@ScaleDatagram@@V?$allocator@UPointDefinition@ScaleDatagram@@@std@@@std@@@std@@QAEAAPAU_Container_proxy@2@XZ 0041ae70 f i scaledatagram.obj
 0001:00019e90       ?_Orphan_all@?$_Vector_alloc@U?$_Vec_base_types@UNullPoseDefinition@ScaleDatagram@@V?$allocator@UNullPoseDefinition@ScaleDatagram@@@std@@@std@@@std@@QAEXXZ 0041ae90 f i scaledatagram.obj
 0001:00019eb0       ?_Orphan_all@?$_Vector_alloc@U?$_Vec_base_types@UPointDefinition@ScaleDatagram@@V?$allocator@UPointDefinition@ScaleDatagram@@@std@@@std@@@std@@QAEXXZ 0041aeb0 f i scaledatagram.obj
 0001:00019ed0       ?_Orphan_range@?$vector@UNullPoseDefinition@ScaleDatagram@@V?$allocator@UNullPoseDefinition@ScaleDatagram@@@std@@@std@@ABEXPAUNullPoseDefinition@ScaleDatagram@@0@Z 0041aed0 f i scaledatagram.obj
 0001:00019f90       ?_Orphan_range@?$vector@UPointDefinition@ScaleDatagram@@V?$allocator@UPointDefinition@ScaleDatagram@@@std@@@std@@ABEXPAUPointDefinition@ScaleDatagram@@0@Z 0041af90 f i scaledatagram.obj
 0001:0001a050       ?_Release@?$_Uninitialized_backout_al@PAUNullPoseDefinition@ScaleDatagram@@V?$allocator@UNullPoseDefinition@ScaleDatagram@@@std@@@std@@QAEPAUNullPoseDefinition@ScaleDatagram@@XZ 0041b050 f i scaledatagram.obj
 0001:0001a070       ?_Release@?$_Uninitialized_backout_al@PAUPointDefinition@ScaleDatagram@@V?$allocator@UPointDefinition@ScaleDatagram@@@std@@@std@@QAEPAUPointDefinition@ScaleDatagram@@XZ 0041b070 f i scaledatagram.obj
 0001:0001a090       ?_Tidy@?$vector@UNullPoseDefinition@ScaleDatagram@@V?$allocator@UNullPoseDefinition@ScaleDatagram@@@std@@@std@@AAEXXZ 0041b090 f i scaledatagram.obj
 0001:0001a120       ?_Tidy@?$vector@UPointDefinition@ScaleDatagram@@V?$allocator@UPointDefinition@ScaleDatagram@@@std@@@std@@AAEXXZ 0041b120 f i scaledatagram.obj
 0001:0001a1b0       ?_Umove@?$vector@UNullPoseDefinition@ScaleDatagram@@V?$allocator@UNullPoseDefinition@ScaleDatagram@@@std@@@std@@AAEPAUNullPoseDefinition@ScaleDatagram@@PAU34@00@Z 0041b1b0 f i scaledatagram.obj
 0001:0001a1e0       ?_Umove@?$vector@UPointDefinition@ScaleDatagram@@V?$allocator@UPointDefinition@ScaleDatagram@@@std@@@std@@AAEPAUPointDefinition@ScaleDatagram@@PAU34@00@Z 0041b1e0 f i scaledatagram.obj
 0001:0001a210       ?_Umove_if_noexcept1@?$vector@UNullPoseDefinition@ScaleDatagram@@V?$allocator@UNullPoseDefinition@ScaleDatagram@@@std@@@std@@AAEXPAUNullPoseDefinition@ScaleDatagram@@00U?$integral_constant@_N$00@2@@Z 0041b210 f i scaledatagram.obj
 0001:0001a240       ?_Umove_if_noexcept1@?$vector@UPointDefinition@ScaleDatagram@@V?$allocator@UPointDefinition@ScaleDatagram@@@std@@@std@@AAEXPAUPointDefinition@ScaleDatagram@@00U?$integral_constant@_N$00@2@@Z 0041b240 f i scaledatagram.obj
 0001:0001a270       ?_Umove_if_noexcept@?$vector@UNullPoseDefinition@ScaleDatagram@@V?$allocator@UNullPoseDefinition@ScaleDatagram@@@std@@@std@@AAEXPAUNullPoseDefinition@ScaleDatagram@@00@Z 0041b270 f i scaledatagram.obj
 0001:0001a2a0       ?_Umove_if_noexcept@?$vector@UPointDefinition@ScaleDatagram@@V?$allocator@UPointDefinition@ScaleDatagram@@@std@@@std@@AAEXPAUPointDefinition@ScaleDatagram@@00@Z 0041b2a0 f i scaledatagram.obj
 0001:0001a2d0       ?_Xlength@?$vector@UNullPoseDefinition@ScaleDatagram@@V?$allocator@UNullPoseDefinition@ScaleDatagram@@@std@@@std@@CAXXZ 0041b2d0 f i scaledatagram.obj
 0001:0001a2e0       ?_Xlength@?$vector@UPointDefinition@ScaleDatagram@@V?$allocator@UPointDefinition@ScaleDatagram@@@std@@@std@@CAXXZ 0041b2e0 f i scaledatagram.obj
 0001:0001a2f0       ?_Xrange@?$vector@UNullPoseDefinition@ScaleDatagram@@V?$allocator@UNullPoseDefinition@ScaleDatagram@@@std@@@std@@CAXXZ 0041b2f0 f i scaledatagram.obj
 0001:0001a300       ?_Xrange@?$vector@UPointDefinition@ScaleDatagram@@V?$allocator@UPointDefinition@ScaleDatagram@@@std@@@std@@CAXXZ 0041b300 f i scaledatagram.obj
 0001:0001a310       ?allocate@?$allocator@UNullPoseDefinition@ScaleDatagram@@@std@@QAEPAUNullPoseDefinition@ScaleDatagram@@I@Z 0041b310 f i scaledatagram.obj
 0001:0001a340       ?allocate@?$allocator@UPointDefinition@ScaleDatagram@@@std@@QAEPAUPointDefinition@ScaleDatagram@@I@Z 0041b340 f i scaledatagram.obj
 0001:0001a370       ?at@?$vector@UNullPoseDefinition@ScaleDatagram@@V?$allocator@UNullPoseDefinition@ScaleDatagram@@@std@@@std@@QBEABUNullPoseDefinition@ScaleDatagram@@I@Z 0041b370 f i scaledatagram.obj
 0001:0001a3a0       ?at@?$vector@UPointDefinition@ScaleDatagram@@V?$allocator@UPointDefinition@ScaleDatagram@@@std@@@std@@QBEABUPointDefinition@ScaleDatagram@@I@Z 0041b3a0 f i scaledatagram.obj
 0001:0001a3d0       ?capacity@?$vector@UNullPoseDefinition@ScaleDatagram@@V?$allocator@UNullPoseDefinition@ScaleDatagram@@@std@@@std@@QBEIXZ 0041b3d0 f i scaledatagram.obj
 0001:0001a400       ?capacity@?$vector@UPointDefinition@ScaleDatagram@@V?$allocator@UPointDefinition@ScaleDatagram@@@std@@@std@@QBEIXZ 0041b400 f i scaledatagram.obj
 0001:0001a430       ?deallocate@?$allocator@UNullPoseDefinition@ScaleDatagram@@@std@@QAEXQAUNullPoseDefinition@ScaleDatagram@@I@Z 0041b430 f i scaledatagram.obj
 0001:0001a450       ?deallocate@?$allocator@UPointDefinition@ScaleDatagram@@@std@@QAEXQAUPointDefinition@ScaleDatagram@@I@Z 0041b450 f i scaledatagram.obj
 0001:0001a470       ?max_size@?$_Default_allocator_traits@V?$allocator@UNullPoseDefinition@ScaleDatagram@@@std@@@std@@SAIABV?$allocator@UNullPoseDefinition@ScaleDatagram@@@2@@Z 0041b470 f i scaledatagram.obj
 0001:0001a480       ?max_size@?$_Default_allocator_traits@V?$allocator@UPointDefinition@ScaleDatagram@@@std@@@std@@SAIABV?$allocator@UPointDefinition@ScaleDatagram@@@2@@Z 0041b480 f i scaledatagram.obj
 0001:0001a490       ?max_size@?$vector@UNullPoseDefinition@ScaleDatagram@@V?$allocator@UNullPoseDefinition@ScaleDatagram@@@std@@@std@@QBEIXZ 0041b490 f i scaledatagram.obj
 0001:0001a4d0       ?max_size@?$vector@UPointDefinition@ScaleDatagram@@V?$allocator@UPointDefinition@ScaleDatagram@@@std@@@std@@QBEIXZ 0041b4d0 f i scaledatagram.obj
 0001:0001a510       ?push_back@?$vector@UNullPoseDefinition@ScaleDatagram@@V?$allocator@UNullPoseDefinition@ScaleDatagram@@@std@@@std@@QAEXABUNullPoseDefinition@ScaleDatagram@@@Z 0041b510 f i scaledatagram.obj
 0001:0001a530       ?push_back@?$vector@UPointDefinition@ScaleDatagram@@V?$allocator@UPointDefinition@ScaleDatagram@@@std@@@std@@QAEXABUPointDefinition@ScaleDatagram@@@Z 0041b530 f i scaledatagram.obj
 0001:0001a550       ?size@?$vector@UNullPoseDefinition@ScaleDatagram@@V?$allocator@UNullPoseDefinition@ScaleDatagram@@@std@@@std@@QBEIXZ 0041b550 f i scaledatagram.obj
 0001:0001a580       ?size@?$vector@UPointDefinition@ScaleDatagram@@V?$allocator@UPointDefinition@ScaleDatagram@@@std@@@std@@QBEIXZ 0041b580 f i scaledatagram.obj
 0001:0001a5b0       ??0Streamer@@QAE@ABUXsByteArray@@@Z 0041b5b0 f   streamer.obj
 0001:0001a600       ??1Streamer@@QAE@XZ        0041b600 f   streamer.obj
 0001:0001a610       ?read@Streamer@@QAEXAAH@Z  0041b610 f   streamer.obj
 0001:0001a710       ?read@Streamer@@QAEXAAC@Z  0041b710 f   streamer.obj
 0001:0001a760       ?read@Streamer@@QAEXAAF@Z  0041b760 f   streamer.obj
 0001:0001a810       ?read@Streamer@@QAEXAAE@Z  0041b810 f   streamer.obj
 0001:0001a860       ?read@Streamer@@QAEXAAM@Z  0041b860 f   streamer.obj
 0001:0001a940       ?read@Streamer@@QAEXAAV?$basic_string@DU?$char_traits@D@std@@V?$allocator@D@2@@std@@H@Z 0041b940 f   streamer.obj
 0001:0001aab0       ??0?$IteratorImplBase@$00$$CBEU?$IteratorImplConst@$00@?$XsArrayImpl@E$1?g_xsByteArrayDescriptor@@3UXsArrayDescriptor@@BUXsByteArray@@@@@?$XsArrayImpl@E$1?g_xsByteArrayDescriptor@@3UXsArrayDescriptor@@BUXsByteArray@@@@IAE@PAX@Z 0041bab0 f i streamer.obj
 0001:0001aad0       ??0?$IteratorImplConst@$00@?$XsArrayImpl@E$1?g_xsByteArrayDescriptor@@3UXsArrayDescriptor@@BUXsByteArray@@@@QAE@PAX@Z 0041bad0 f i streamer.obj
 0001:0001aaf0       ??C?$IteratorImplBase@$00$$CBEU?$IteratorImplConst@$00@?$XsArrayImpl@E$1?g_xsByteArrayDescriptor@@3UXsArrayDescriptor@@BUXsByteArray@@@@@?$XsArrayImpl@E$1?g_xsByteArrayDescriptor@@3UXsArrayDescriptor@@BUXsByteArray@@@@QBEPBEXZ 0041baf0 f i streamer.obj
 0001:0001ab50       ?begin@?$XsArrayImpl@E$1?g_xsByteArrayDescriptor@@3UXsArrayDescriptor@@BUXsByteArray@@@@QBE?AU?$IteratorImplConst@$00@1@XZ 0041bb50 f i streamer.obj
 0001:0001ab70       ?data@XsByteArray@@QBEPBEXZ 0041bb70 f i streamer.obj
 0001:0001ab90       ?ptr@?$IteratorImplBase@$00$$CBEU?$IteratorImplConst@$00@?$XsArrayImpl@E$1?g_xsByteArrayDescriptor@@3UXsArrayDescriptor@@BUXsByteArray@@@@@?$XsArrayImpl@E$1?g_xsByteArrayDescriptor@@3UXsArrayDescriptor@@BUXsByteArray@@@@QBEPAEXZ 0041bb90 f i streamer.obj
 0001:0001aba0       ??0TimeCodeDatagram@@QAE@XZ 0041bba0 f   timecodedatagram.obj
 0001:0001ac10       ??1TimeCodeDatagram@@UAE@XZ 0041bc10 f   timecodedatagram.obj
 0001:0001ac30       ?printData@TimeCodeDatagram@@UBEXXZ 0041bc30 f   timecodedatagram.obj
 0001:0001acb0       ?deserializeData@TimeCodeDatagram@@MAEXAAVStreamer@@@Z 0041bcb0 f   timecodedatagram.obj
 0001:0001ad90       ??_GTimeCodeDatagram@@UAEPAXI@Z 0041bd90 f i timecodedatagram.obj
 0001:0001ad90       ??_ETimeCodeDatagram@@UAEPAXI@Z 0041bd90 f i timecodedatagram.obj
 0001:0001adc0       ___local_stdio_printf_options 0041bdc0 f i timecodedatagram.obj
 0001:0001add0       ___local_stdio_scanf_options 0041bdd0 f i timecodedatagram.obj
 0001:0001ade0       __vfprintf_l               0041bde0 f i timecodedatagram.obj
 0001:0001ae10       __vsscanf_l                0041be10 f i timecodedatagram.obj
 0001:0001ae40       _printf                    0041be40 f i timecodedatagram.obj
 0001:0001ae80       _sscanf                    0041be80 f i timecodedatagram.obj
 0001:0001aec0       ??0TrackerKinematicsDatagram@@QAE@XZ 0041bec0 f   trackerkinematicsdatagram.obj
 0001:0001af30       ??1TrackerKinematicsDatagram@@UAE@XZ 0041bf30 f   trackerkinematicsdatagram.obj
 0001:0001af60       ?printData@TrackerKinematicsDatagram@@UBEXXZ 0041bf60 f   trackerkinematicsdatagram.obj
 0001:0001b5c0       ?deserializeData@TrackerKinematicsDatagram@@MAEXAAVStreamer@@@Z 0041c5c0 f   trackerkinematicsdatagram.obj
 0001:0001b710       ??$?0$$V@?$_Compressed_pair@V?$allocator@UKinematics@TrackerKinematicsDatagram@@@std@@V?$_Vector_val@U?$_Simple_types@UKinematics@TrackerKinematicsDatagram@@@std@@@2@$00@std@@QAE@U_Zero_then_variadic_args_t@1@@Z 0041c710 f i trackerkinematicsdatagram.obj
 0001:0001b730       ??$?0UKinematics@TrackerKinematicsDatagram@@@?$allocator@U_Container_proxy@std@@@std@@QAE@ABV?$allocator@UKinematics@TrackerKinematicsDatagram@@@1@@Z 0041c730 f i trackerkinematicsdatagram.obj
 0001:0001b740       ??$_Copy_memmove@PAUKinematics@TrackerKinematicsDatagram@@PAU12@@std@@YAPAUKinematics@TrackerKinematicsDatagram@@PAU12@00@Z 0041c740 f i trackerkinematicsdatagram.obj
 0001:0001b780       ??$_Destroy_range1@V?$allocator@UKinematics@TrackerKinematicsDatagram@@@std@@@std@@YAXPAUKinematics@TrackerKinematicsDatagram@@0AAV?$allocator@UKinematics@TrackerKinematicsDatagram@@@0@U?$integral_constant@_N$00@0@@Z 0041c780 f i trackerkinematicsdatagram.obj
 0001:0001b790       ??$_Destroy_range@V?$allocator@UKinematics@TrackerKinematicsDatagram@@@std@@@std@@YAXPAUKinematics@TrackerKinematicsDatagram@@0AAV?$allocator@UKinematics@TrackerKinematicsDatagram@@@0@@Z 0041c790 f i trackerkinematicsdatagram.obj
 0001:0001b7c0       ??$_Emplace_back_with_unused_capacity@ABUKinematics@TrackerKinematicsDatagram@@@?$vector@UKinematics@TrackerKinematicsDatagram@@V?$allocator@UKinematics@TrackerKinematicsDatagram@@@std@@@std@@AAEXABUKinematics@TrackerKinematicsDatagram@@@Z 0041c7c0 f i trackerkinematicsdatagram.obj
 0001:0001b850       ??$_Emplace_reallocate@ABUKinematics@TrackerKinematicsDatagram@@@?$vector@UKinematics@TrackerKinematicsDatagram@@V?$allocator@UKinematics@TrackerKinematicsDatagram@@@std@@@std@@QAEPAUKinematics@TrackerKinematicsDatagram@@QAU23@ABU23@@Z 0041c850 f i trackerkinematicsdatagram.obj
 0001:0001ba30       ??$_Get_size_of_n@$0EE@@std@@YAII@Z 0041ca30 f i trackerkinematicsdatagram.obj
 0001:0001ba60       ??$_Ptr_move_cat@UKinematics@TrackerKinematicsDatagram@@U12@@std@@YA?AU_Really_trivial_ptr_iterator_tag@0@ABQAUKinematics@TrackerKinematicsDatagram@@0@Z 0041ca60 f i trackerkinematicsdatagram.obj
 0001:0001ba70       ??$_Rechecked@PAUKinematics@TrackerKinematicsDatagram@@PAU12@@std@@YAAAPAUKinematics@TrackerKinematicsDatagram@@AAPAU12@QAU12@@Z 0041ca70 f i trackerkinematicsdatagram.obj
 0001:0001ba80       ??$_Unchecked@PAUKinematics@TrackerKinematicsDatagram@@@std@@YAPAUKinematics@TrackerKinematicsDatagram@@PAU12@@Z 0041ca80 f i trackerkinematicsdatagram.obj
 0001:0001ba90       ??$_Unfancy@UKinematics@TrackerKinematicsDatagram@@@std@@YAPAUKinematics@TrackerKinematicsDatagram@@PAU12@@Z 0041ca90 f i trackerkinematicsdatagram.obj
 0001:0001baa0       ??$_Uninitialized_move@PAUKinematics@TrackerKinematicsDatagram@@PAU12@V?$allocator@UKinematics@TrackerKinematicsDatagram@@@std@@@std@@YAPAUKinematics@TrackerKinematicsDatagram@@QAU12@0PAU12@AAV?$allocator@UKinematics@TrackerKinematicsDatagram@@@0@@Z 0041caa0 f i trackerkinematicsdatagram.obj
 0001:0001bb20       ??$_Uninitialized_move_al_unchecked@UKinematics@TrackerKinematicsDatagram@@U12@V?$allocator@UKinematics@TrackerKinematicsDatagram@@@std@@@std@@YAPAUKinematics@TrackerKinematicsDatagram@@QAU12@00AAV?$allocator@UKinematics@TrackerKinematicsDatagram@@@0@U_Really_trivial_ptr_iterator_tag@0@U?$integral_constant@_N$00@0@@Z 0041cb20 f i trackerkinematicsdatagram.obj
 0001:0001bb40       ??$addressof@V?$_Vector_val@U?$_Simple_types@UKinematics@TrackerKinematicsDatagram@@@std@@@std@@@std@@YAPAV?$_Vector_val@U?$_Simple_types@UKinematics@TrackerKinematicsDatagram@@@std@@@0@AAV10@@Z 0041cb40 f i trackerkinematicsdatagram.obj
 0001:0001bb50       ??$construct@UKinematics@TrackerKinematicsDatagram@@ABU12@@?$_Default_allocator_traits@V?$allocator@UKinematics@TrackerKinematicsDatagram@@@std@@@std@@SAXAAV?$allocator@UKinematics@TrackerKinematicsDatagram@@@1@QAUKinematics@TrackerKinematicsDatagram@@ABU34@@Z 0041cb50 f i trackerkinematicsdatagram.obj
 0001:0001bb90       ??$emplace_back@ABUKinematics@TrackerKinematicsDatagram@@@?$vector@UKinematics@TrackerKinematicsDatagram@@V?$allocator@UKinematics@TrackerKinematicsDatagram@@@std@@@std@@QAEXABUKinematics@TrackerKinematicsDatagram@@@Z 0041cb90 f i trackerkinematicsdatagram.obj
 0001:0001bbf0       ??$forward@ABUKinematics@TrackerKinematicsDatagram@@@std@@YAABUKinematics@TrackerKinematicsDatagram@@ABU12@@Z 0041cbf0 f i trackerkinematicsdatagram.obj
 0001:0001bc00       ??0?$_Vector_alloc@U?$_Vec_base_types@UKinematics@TrackerKinematicsDatagram@@V?$allocator@UKinematics@TrackerKinematicsDatagram@@@std@@@std@@@std@@QAE@XZ 0041cc00 f i trackerkinematicsdatagram.obj
 0001:0001bc30       ??0?$_Vector_val@U?$_Simple_types@UKinematics@TrackerKinematicsDatagram@@@std@@@std@@QAE@XZ 0041cc30 f i trackerkinematicsdatagram.obj
 0001:0001bc70       ??0?$allocator@UKinematics@TrackerKinematicsDatagram@@@std@@QAE@XZ 0041cc70 f i trackerkinematicsdatagram.obj
 0001:0001bc80       ??0?$vector@UKinematics@TrackerKinematicsDatagram@@V?$allocator@UKinematics@TrackerKinematicsDatagram@@@std@@@std@@QAE@XZ 0041cc80 f i trackerkinematicsdatagram.obj
 0001:0001bcc0       ??1?$_Vector_alloc@U?$_Vec_base_types@UKinematics@TrackerKinematicsDatagram@@V?$allocator@UKinematics@TrackerKinematicsDatagram@@@std@@@std@@@std@@QAE@XZ 0041ccc0 f i trackerkinematicsdatagram.obj
 0001:0001bd00       ??1?$vector@UKinematics@TrackerKinematicsDatagram@@V?$allocator@UKinematics@TrackerKinematicsDatagram@@@std@@@std@@QAE@XZ 0041cd00 f i trackerkinematicsdatagram.obj
 0001:0001bd50       ??_ETrackerKinematicsDatagram@@UAEPAXI@Z 0041cd50 f i trackerkinematicsdatagram.obj
 0001:0001bd50       ??_GTrackerKinematicsDatagram@@UAEPAXI@Z 0041cd50 f i trackerkinematicsdatagram.obj
 0001:0001bd80       ?_Alloc_proxy@?$_Vector_alloc@U?$_Vec_base_types@UKinematics@TrackerKinematicsDatagram@@V?$allocator@UKinematics@TrackerKinematicsDatagram@@@std@@@std@@@std@@QAEXXZ 0041cd80 f i trackerkinematicsdatagram.obj
 0001:0001be00       ?_Calculate_growth@?$vector@UKinematics@TrackerKinematicsDatagram@@V?$allocator@UKinematics@TrackerKinematicsDatagram@@@std@@@std@@ABEII@Z 0041ce00 f i trackerkinematicsdatagram.obj
 0001:0001be50       ?_Change_array@?$vector@UKinematics@TrackerKinematicsDatagram@@V?$allocator@UKinematics@TrackerKinematicsDatagram@@@std@@@std@@AAEXQAUKinematics@TrackerKinematicsDatagram@@II@Z 0041ce50 f i trackerkinematicsdatagram.obj
 0001:0001bef0       ?_Destroy@?$vector@UKinematics@TrackerKinematicsDatagram@@V?$allocator@UKinematics@TrackerKinematicsDatagram@@@std@@@std@@AAEXPAUKinematics@TrackerKinematicsDatagram@@0@Z 0041cef0 f i trackerkinematicsdatagram.obj
 0001:0001bf20       ?_Free_proxy@?$_Vector_alloc@U?$_Vec_base_types@UKinematics@TrackerKinematicsDatagram@@V?$allocator@UKinematics@TrackerKinematicsDatagram@@@std@@@std@@@std@@QAEXXZ 0041cf20 f i trackerkinematicsdatagram.obj
 0001:0001bf90       ?_Get_data@?$_Vector_alloc@U?$_Vec_base_types@UKinematics@TrackerKinematicsDatagram@@V?$allocator@UKinematics@TrackerKinematicsDatagram@@@std@@@std@@@std@@QAEAAV?$_Vector_val@U?$_Simple_types@UKinematics@TrackerKinematicsDatagram@@@std@@@2@XZ 0041cf90 f i trackerkinematicsdatagram.obj
 0001:0001bfb0       ?_Get_data@?$_Vector_alloc@U?$_Vec_base_types@UKinematics@TrackerKinematicsDatagram@@V?$allocator@UKinematics@TrackerKinematicsDatagram@@@std@@@std@@@std@@QBEABV?$_Vector_val@U?$_Simple_types@UKinematics@TrackerKinematicsDatagram@@@std@@@2@XZ 0041cfb0 f i trackerkinematicsdatagram.obj
 0001:0001bfd0       ?_Get_first@?$_Compressed_pair@V?$allocator@UKinematics@TrackerKinematicsDatagram@@@std@@V?$_Vector_val@U?$_Simple_types@UKinematics@TrackerKinematicsDatagram@@@std@@@2@$00@std@@QAEAAV?$allocator@UKinematics@TrackerKinematicsDatagram@@@2@XZ 0041cfd0 f i trackerkinematicsdatagram.obj
 0001:0001bfe0       ?_Get_first@?$_Compressed_pair@V?$allocator@UKinematics@TrackerKinematicsDatagram@@@std@@V?$_Vector_val@U?$_Simple_types@UKinematics@TrackerKinematicsDatagram@@@std@@@2@$00@std@@QBEABV?$allocator@UKinematics@TrackerKinematicsDatagram@@@2@XZ 0041cfe0 f i trackerkinematicsdatagram.obj
 0001:0001bff0       ?_Get_second@?$_Compressed_pair@V?$allocator@UKinematics@TrackerKinematicsDatagram@@@std@@V?$_Vector_val@U?$_Simple_types@UKinematics@TrackerKinematicsDatagram@@@std@@@2@$00@std@@QAEAAV?$_Vector_val@U?$_Simple_types@UKinematics@TrackerKinematicsDatagram@@@std@@@2@XZ 0041cff0 f i trackerkinematicsdatagram.obj
 0001:0001c000       ?_Get_second@?$_Compressed_pair@V?$allocator@UKinematics@TrackerKinematicsDatagram@@@std@@V?$_Vector_val@U?$_Simple_types@UKinematics@TrackerKinematicsDatagram@@@std@@@2@$00@std@@QBEABV?$_Vector_val@U?$_Simple_types@UKinematics@TrackerKinematicsDatagram@@@std@@@2@XZ 0041d000 f i trackerkinematicsdatagram.obj
 0001:0001c010       ?_Getal@?$_Vector_alloc@U?$_Vec_base_types@UKinematics@TrackerKinematicsDatagram@@V?$allocator@UKinematics@TrackerKinematicsDatagram@@@std@@@std@@@std@@QAEAAV?$allocator@UKinematics@TrackerKinematicsDatagram@@@2@XZ 0041d010 f i trackerkinematicsdatagram.obj
 0001:0001c030       ?_Getal@?$_Vector_alloc@U?$_Vec_base_types@UKinematics@TrackerKinematicsDatagram@@V?$allocator@UKinematics@TrackerKinematicsDatagram@@@std@@@std@@@std@@QBEABV?$allocator@UKinematics@TrackerKinematicsDatagram@@@2@XZ 0041d030 f i trackerkinematicsdatagram.obj
 0001:0001c050       ?_Getpfirst@?$_Vector_alloc@U?$_Vec_base_types@UKinematics@TrackerKinematicsDatagram@@V?$allocator@UKinematics@TrackerKinematicsDatagram@@@std@@@std@@@std@@QBEPAPAU_Iterator_base12@2@XZ 0041d050 f i trackerkinematicsdatagram.obj
 0001:0001c070       ?_Has_unused_capacity@?$vector@UKinematics@TrackerKinematicsDatagram@@V?$allocator@UKinematics@TrackerKinematicsDatagram@@@std@@@std@@ABE_NXZ 0041d070 f i trackerkinematicsdatagram.obj
 0001:0001c0b0       ?_Myend@?$_Vector_alloc@U?$_Vec_base_types@UKinematics@TrackerKinematicsDatagram@@V?$allocator@UKinematics@TrackerKinematicsDatagram@@@std@@@std@@@std@@QAEAAPAUKinematics@TrackerKinematicsDatagram@@XZ 0041d0b0 f i trackerkinematicsdatagram.obj
 0001:0001c0d0       ?_Myend@?$_Vector_alloc@U?$_Vec_base_types@UKinematics@TrackerKinematicsDatagram@@V?$allocator@UKinematics@TrackerKinematicsDatagram@@@std@@@std@@@std@@QBEABQAUKinematics@TrackerKinematicsDatagram@@XZ 0041d0d0 f i trackerkinematicsdatagram.obj
 0001:0001c0f0       ?_Myfirst@?$_Vector_alloc@U?$_Vec_base_types@UKinematics@TrackerKinematicsDatagram@@V?$allocator@UKinematics@TrackerKinematicsDatagram@@@std@@@std@@@std@@QAEAAPAUKinematics@TrackerKinematicsDatagram@@XZ 0041d0f0 f i trackerkinematicsdatagram.obj
 0001:0001c110       ?_Myfirst@?$_Vector_alloc@U?$_Vec_base_types@UKinematics@TrackerKinematicsDatagram@@V?$allocator@UKinematics@TrackerKinematicsDatagram@@@std@@@std@@@std@@QBEABQAUKinematics@TrackerKinematicsDatagram@@XZ 0041d110 f i trackerkinematicsdatagram.obj
 0001:0001c130       ?_Mylast@?$_Vector_alloc@U?$_Vec_base_types@UKinematics@TrackerKinematicsDatagram@@V?$allocator@UKinematics@TrackerKinematicsDatagram@@@std@@@std@@@std@@QAEAAPAUKinematics@TrackerKinematicsDatagram@@XZ 0041d130 f i trackerkinematicsdatagram.obj
 0001:0001c150       ?_Mylast@?$_Vector_alloc@U?$_Vec_base_types@UKinematics@TrackerKinematicsDatagram@@V?$allocator@UKinematics@TrackerKinematicsDatagram@@@std@@@std@@@std@@QBEABQAUKinematics@TrackerKinematicsDatagram@@XZ 0041d150 f i trackerkinematicsdatagram.obj
 0001:0001c170       ?_Myproxy@?$_Vector_alloc@U?$_Vec_base_types@UKinematics@TrackerKinematicsDatagram@@V?$allocator@UKinematics@TrackerKinematicsDatagram@@@std@@@std@@@std@@QAEAAPAU_Container_proxy@2@XZ 0041d170 f i trackerkinematicsdatagram.obj
 0001:0001c190       ?_Orphan_all@?$_Vector_alloc@U?$_Vec_base_types@UKinematics@TrackerKinematicsDatagram@@V?$allocator@UKinematics@TrackerKinematicsDatagram@@@std@@@std@@@std@@QAEXXZ 0041d190 f i trackerkinematicsdatagram.obj
 0001:0001c1b0       ?_Orphan_range@?$vector@UKinematics@TrackerKinematicsDatagram@@V?$allocator@UKinematics@TrackerKinematicsDatagram@@@std@@@std@@ABEXPAUKinematics@TrackerKinematicsDatagram@@0@Z 0041d1b0 f i trackerkinematicsdatagram.obj
 0001:0001c270       ?_Tidy@?$vector@UKinematics@TrackerKinematicsDatagram@@V?$allocator@UKinematics@TrackerKinematicsDatagram@@@std@@@std@@AAEXXZ 0041d270 f i trackerkinematicsdatagram.obj
 0001:0001c300       ?_Umove@?$vector@UKinematics@TrackerKinematicsDatagram@@V?$allocator@UKinematics@TrackerKinematicsDatagram@@@std@@@std@@AAEPAUKinematics@TrackerKinematicsDatagram@@PAU34@00@Z 0041d300 f i trackerkinematicsdatagram.obj
 0001:0001c330       ?_Umove_if_noexcept1@?$vector@UKinematics@TrackerKinematicsDatagram@@V?$allocator@UKinematics@TrackerKinematicsDatagram@@@std@@@std@@AAEXPAUKinematics@TrackerKinematicsDatagram@@00U?$integral_constant@_N$00@2@@Z 0041d330 f i trackerkinematicsdatagram.obj
 0001:0001c360       ?_Umove_if_noexcept@?$vector@UKinematics@TrackerKinematicsDatagram@@V?$allocator@UKinematics@TrackerKinematicsDatagram@@@std@@@std@@AAEXPAUKinematics@TrackerKinematicsDatagram@@00@Z 0041d360 f i trackerkinematicsdatagram.obj
 0001:0001c390       ?_Xlength@?$vector@UKinematics@TrackerKinematicsDatagram@@V?$allocator@UKinematics@TrackerKinematicsDatagram@@@std@@@std@@CAXXZ 0041d390 f i trackerkinematicsdatagram.obj
 0001:0001c3a0       ?_Xrange@?$vector@UKinematics@TrackerKinematicsDatagram@@V?$allocator@UKinematics@TrackerKinematicsDatagram@@@std@@@std@@CAXXZ 0041d3a0 f i trackerkinematicsdatagram.obj
 0001:0001c3b0       ?allocate@?$allocator@UKinematics@TrackerKinematicsDatagram@@@std@@QAEPAUKinematics@TrackerKinematicsDatagram@@I@Z 0041d3b0 f i trackerkinematicsdatagram.obj
 0001:0001c3e0       ?at@?$vector@UKinematics@TrackerKinematicsDatagram@@V?$allocator@UKinematics@TrackerKinematicsDatagram@@@std@@@std@@QBEABUKinematics@TrackerKinematicsDatagram@@I@Z 0041d3e0 f i trackerkinematicsdatagram.obj
 0001:0001c410       ?capacity@?$vector@UKinematics@TrackerKinematicsDatagram@@V?$allocator@UKinematics@TrackerKinematicsDatagram@@@std@@@std@@QBEIXZ 0041d410 f i trackerkinematicsdatagram.obj
 0001:0001c440       ?deallocate@?$allocator@UKinematics@TrackerKinematicsDatagram@@@std@@QAEXQAUKinematics@TrackerKinematicsDatagram@@I@Z 0041d440 f i trackerkinematicsdatagram.obj
 0001:0001c460       ?max_size@?$_Default_allocator_traits@V?$allocator@UKinematics@TrackerKinematicsDatagram@@@std@@@std@@SAIABV?$allocator@UKinematics@TrackerKinematicsDatagram@@@2@@Z 0041d460 f i trackerkinematicsdatagram.obj
 0001:0001c470       ?max_size@?$vector@UKinematics@TrackerKinematicsDatagram@@V?$allocator@UKinematics@TrackerKinematicsDatagram@@@std@@@std@@QBEIXZ 0041d470 f i trackerkinematicsdatagram.obj
 0001:0001c4b0       ?push_back@?$vector@UKinematics@TrackerKinematicsDatagram@@V?$allocator@UKinematics@TrackerKinematicsDatagram@@@std@@@std@@QAEXABUKinematics@TrackerKinematicsDatagram@@@Z 0041d4b0 f i trackerkinematicsdatagram.obj
 0001:0001c4d0       ?size@?$vector@UKinematics@TrackerKinematicsDatagram@@V?$allocator@UKinematics@TrackerKinematicsDatagram@@@std@@@std@@QBEIXZ 0041d4d0 f i trackerkinematicsdatagram.obj
 0001:0001c500       ??0UdpServer@@QAE@UXsString@@G@Z 0041d500 f   udpserver.obj
 0001:0001c660       ??1UdpServer@@QAE@XZ       0041d660 f   udpserver.obj
 0001:0001c6c0       ?readMessages@UdpServer@@QAEXXZ 0041d6c0 f   udpserver.obj
 0001:0001c7e0       ?startThread@UdpServer@@QAEXXZ 0041d7e0 f   udpserver.obj
 0001:0001c820       ?stopThread@UdpServer@@QAEXXZ 0041d820 f   udpserver.obj
 0001:0001c860       ?udpThreadFunc@@YGKPAX@Z   0041d860 f   udpserver.obj
 0001:0001c880       ??$?0AAPAUXsSocket@@@?$_Compressed_pair@U?$default_delete@UXsSocket@@@std@@PAUXsSocket@@$00@std@@QAE@U_Zero_then_variadic_args_t@1@AAPAUXsSocket@@@Z 0041d880 f i udpserver.obj
 0001:0001c8b0       ??$?0AAPAVParserManager@@@?$_Compressed_pair@U?$default_delete@VParserManager@@@std@@PAVParserManager@@$00@std@@QAE@U_Zero_then_variadic_args_t@1@AAPAVParserManager@@@Z 0041d8b0 f i udpserver.obj
 0001:0001c8e0       ??$?0PAUXsSocket@@@?$_Unique_ptr_base@UXsSocket@@U?$default_delete@UXsSocket@@@std@@@std@@QAE@PAUXsSocket@@@Z 0041d8e0 f i udpserver.obj
 0001:0001c910       ??$?0PAVParserManager@@@?$_Unique_ptr_base@VParserManager@@U?$default_delete@VParserManager@@@std@@@std@@QAE@PAVParserManager@@@Z 0041d910 f i udpserver.obj
 0001:0001c940       ??$?0U?$default_delete@UXsSocket@@@std@@$0A@@?$unique_ptr@UXsSocket@@U?$default_delete@UXsSocket@@@std@@@std@@QAE@XZ 0041d940 f i udpserver.obj
 0001:0001c990       ??$?0U?$default_delete@VParserManager@@@std@@$0A@@?$unique_ptr@VParserManager@@U?$default_delete@VParserManager@@@std@@@std@@QAE@XZ 0041d990 f i udpserver.obj
 0001:0001c9e0       ??$forward@AAPAUXsSocket@@@std@@YAAAPAUXsSocket@@AAPAU1@@Z 0041d9e0 f i udpserver.obj
 0001:0001c9f0       ??$forward@AAPAVParserManager@@@std@@YAAAPAVParserManager@@AAPAV1@@Z 0041d9f0 f i udpserver.obj
 0001:0001ca00       ??0?$IteratorImpl@$00@?$XsArrayImpl@E$1?g_xsByteArrayDescriptor@@3UXsArrayDescriptor@@BUXsByteArray@@@@QAE@PAX@Z 0041da00 f i udpserver.obj
 0001:0001ca20       ??0?$IteratorImplBase@$00EU?$IteratorImpl@$00@?$XsArrayImpl@E$1?g_xsByteArrayDescriptor@@3UXsArrayDescriptor@@BUXsByteArray@@@@@?$XsArrayImpl@E$1?g_xsByteArrayDescriptor@@3UXsArrayDescriptor@@BUXsByteArray@@@@IAE@PAX@Z 0041da20 f i udpserver.obj
 0001:0001ca40       ??0?$XsArrayImpl@E$1?g_xsByteArrayDescriptor@@3UXsArrayDescriptor@@BUXsByteArray@@@@QAE@IPBE@Z 0041da40 f i udpserver.obj
 0001:0001ca70       ??0XsByteArray@@QAE@IPBE@Z 0041da70 f i udpserver.obj
 0001:0001ca90       ??0XsSocket@@QAE@W4IpProtocol@@W4NetworkLayerProtocol@@@Z 0041da90 f i udpserver.obj
 0001:0001cac0       ??0XsString@@QAE@IPBD@Z    0041dac0 f i udpserver.obj
 0001:0001cb00       ??0bad_alloc@std@@QAE@ABV01@@Z 0041db00 f i udpserver.obj
 0001:0001cb30       ??0bad_alloc@std@@QAE@XZ   0041db30 f i udpserver.obj
 0001:0001cb60       ??1?$XsArrayImpl@D$1?g_xsStringDescriptor@@3UXsArrayDescriptor@@BUXsString@@@@QAE@XZ 0041db60 f i udpserver.obj
 0001:0001cb80       ??1?$XsArrayImpl@E$1?g_xsByteArrayDescriptor@@3UXsArrayDescriptor@@BUXsByteArray@@@@QAE@XZ 0041db80 f i udpserver.obj
 0001:0001cba0       ??1?$unique_ptr@UXsSocket@@U?$default_delete@UXsSocket@@@std@@@std@@QAE@XZ 0041dba0 f i udpserver.obj
 0001:0001cbd0       ??1?$unique_ptr@VParserManager@@U?$default_delete@VParserManager@@@std@@@std@@QAE@XZ 0041dbd0 f i udpserver.obj
 0001:0001cc00       ??1XsArray@@QAE@XZ         0041dc00 f i udpserver.obj
 0001:0001cc20       ??1XsByteArray@@QAE@XZ     0041dc20 f i udpserver.obj
 0001:0001cc40       ??1XsSocket@@QAE@XZ        0041dc40 f i udpserver.obj
 0001:0001cc60       ??1XsString@@QAE@XZ        0041dc60 f i udpserver.obj
 0001:0001cc80       ??1bad_alloc@std@@UAE@XZ   0041dc80 f i udpserver.obj
 0001:0001cca0       ??2XsSocket@@SAPAXI@Z      0041dca0 f i udpserver.obj
 0001:0001cce0       ??3XsSocket@@SAXPAX@Z      0041dce0 f i udpserver.obj
 0001:0001cd00       ??4?$XsArrayImpl@D$1?g_xsStringDescriptor@@3UXsArrayDescriptor@@BUXsString@@@@QAEAAU0@ABU0@@Z 0041dd00 f i udpserver.obj
 0001:0001cd30       ??4XsString@@QAEAAU0@ABU0@@Z 0041dd30 f i udpserver.obj
 0001:0001cd50       ??C?$IteratorImplBase@$00EU?$IteratorImpl@$00@?$XsArrayImpl@E$1?g_xsByteArrayDescriptor@@3UXsArrayDescriptor@@BUXsByteArray@@@@@?$XsArrayImpl@E$1?g_xsByteArrayDescriptor@@3UXsArrayDescriptor@@BUXsByteArray@@@@QBEPAEXZ 0041dd50 f i udpserver.obj
 0001:0001cd70       ??C?$unique_ptr@UXsSocket@@U?$default_delete@UXsSocket@@@std@@@std@@QBEPAUXsSocket@@XZ 0041dd70 f i udpserver.obj
 0001:0001cd90       ??C?$unique_ptr@VParserManager@@U?$default_delete@VParserManager@@@std@@@std@@QBEPAVParserManager@@XZ 0041dd90 f i udpserver.obj
 0001:0001cdb0       ??R?$default_delete@UXsSocket@@@std@@QBEXPAUXsSocket@@@Z 0041ddb0 f i udpserver.obj
 0001:0001cdf0       ??R?$default_delete@VParserManager@@@std@@QBEXPAVParserManager@@@Z 0041ddf0 f i udpserver.obj
 0001:0001ce30       ??_GParserManager@@QAEPAXI@Z 0041de30 f i udpserver.obj
 0001:0001ce60       ??_GXsSocket@@QAEPAXI@Z    0041de60 f i udpserver.obj
 0001:0001ceb0       ??_Ebad_alloc@std@@UAEPAXI@Z 0041deb0 f i udpserver.obj
 0001:0001ceb0       ??_Gbad_alloc@std@@UAEPAXI@Z 0041deb0 f i udpserver.obj
 0001:0001cee0       ?_Get_first@?$_Compressed_pair@U?$default_delete@UXsSocket@@@std@@PAUXsSocket@@$00@std@@QAEAAU?$default_delete@UXsSocket@@@2@XZ 0041dee0 f i udpserver.obj
 0001:0001cef0       ?_Get_first@?$_Compressed_pair@U?$default_delete@VParserManager@@@std@@PAVParserManager@@$00@std@@QAEAAU?$default_delete@VParserManager@@@2@XZ 0041def0 f i udpserver.obj
 0001:0001cf00       ?_Get_second@?$_Compressed_pair@U?$default_delete@UXsSocket@@@std@@PAUXsSocket@@$00@std@@QAEAAPAUXsSocket@@XZ 0041df00 f i udpserver.obj
 0001:0001cf10       ?_Get_second@?$_Compressed_pair@U?$default_delete@UXsSocket@@@std@@PAUXsSocket@@$00@std@@QBEABQAUXsSocket@@XZ 0041df10 f i udpserver.obj
 0001:0001cf20       ?_Get_second@?$_Compressed_pair@U?$default_delete@VParserManager@@@std@@PAVParserManager@@$00@std@@QAEAAPAVParserManager@@XZ 0041df20 f i udpserver.obj
 0001:0001cf30       ?_Get_second@?$_Compressed_pair@U?$default_delete@VParserManager@@@std@@PAVParserManager@@$00@std@@QBEABQAVParserManager@@XZ 0041df30 f i udpserver.obj
 0001:0001cf40       ?_Myptr@?$_Unique_ptr_base@UXsSocket@@U?$default_delete@UXsSocket@@@std@@@std@@QAEAAPAUXsSocket@@XZ 0041df40 f i udpserver.obj
 0001:0001cf60       ?_Myptr@?$_Unique_ptr_base@UXsSocket@@U?$default_delete@UXsSocket@@@std@@@std@@QBEABQAUXsSocket@@XZ 0041df60 f i udpserver.obj
 0001:0001cf80       ?_Myptr@?$_Unique_ptr_base@VParserManager@@U?$default_delete@VParserManager@@@std@@@std@@QAEAAPAVParserManager@@XZ 0041df80 f i udpserver.obj
 0001:0001cfa0       ?_Myptr@?$_Unique_ptr_base@VParserManager@@U?$default_delete@VParserManager@@@std@@@std@@QBEABQAVParserManager@@XZ 0041dfa0 f i udpserver.obj
 0001:0001cfc0       ?begin@?$XsArrayImpl@E$1?g_xsByteArrayDescriptor@@3UXsArrayDescriptor@@BUXsByteArray@@@@QAE?AU?$IteratorImpl@$00@1@XZ 0041dfc0 f i udpserver.obj
 0001:0001cfe0       ?bind@XsSocket@@QAE?AW4XsResultValue@@ABUXsString@@G@Z 0041dfe0 f i udpserver.obj
 0001:0001d010       ?clear@?$XsArrayImpl@E$1?g_xsByteArrayDescriptor@@3UXsArrayDescriptor@@BUXsByteArray@@@@QAEXXZ 0041e010 f i udpserver.obj
 0001:0001d030       ?data@XsByteArray@@QAEPAEXZ 0041e030 f i udpserver.obj
 0001:0001d050       ?get@?$unique_ptr@UXsSocket@@U?$default_delete@UXsSocket@@@std@@@std@@QBEPAUXsSocket@@XZ 0041e050 f i udpserver.obj
 0001:0001d070       ?get@?$unique_ptr@VParserManager@@U?$default_delete@VParserManager@@@std@@@std@@QBEPAVParserManager@@XZ 0041e070 f i udpserver.obj
 0001:0001d090       ?get_deleter@?$_Unique_ptr_base@UXsSocket@@U?$default_delete@UXsSocket@@@std@@@std@@QAEAAU?$default_delete@UXsSocket@@@2@XZ 0041e090 f i udpserver.obj
 0001:0001d0b0       ?get_deleter@?$_Unique_ptr_base@VParserManager@@U?$default_delete@VParserManager@@@std@@@std@@QAEAAU?$default_delete@VParserManager@@@2@XZ 0041e0b0 f i udpserver.obj
 0001:0001d0d0       ?ptr@?$IteratorImplBase@$00EU?$IteratorImpl@$00@?$XsArrayImpl@E$1?g_xsByteArrayDescriptor@@3UXsArrayDescriptor@@BUXsByteArray@@@@@?$XsArrayImpl@E$1?g_xsByteArrayDescriptor@@3UXsArrayDescriptor@@BUXsByteArray@@@@QBEPAEXZ 0041e0d0 f i udpserver.obj
 0001:0001d0e0       ?read@XsSocket@@QAEHAAUXsByteArray@@H@Z 0041e0e0 f i udpserver.obj
 0001:0001d140       ?read@XsSocket@@QAEHPAXIH@Z 0041e140 f i udpserver.obj
 0001:0001d170       ?reset@?$unique_ptr@UXsSocket@@U?$default_delete@UXsSocket@@@std@@@std@@QAEXPAUXsSocket@@@Z 0041e170 f i udpserver.obj
 0001:0001d1b0       ?reset@?$unique_ptr@VParserManager@@U?$default_delete@VParserManager@@@std@@@std@@QAEXPAVParserManager@@@Z 0041e1b0 f i udpserver.obj
 0001:0001d1f0       ?resize@?$XsArrayImpl@E$1?g_xsByteArrayDescriptor@@3UXsArrayDescriptor@@BUXsByteArray@@@@QAEXI@Z 0041e1f0 f i udpserver.obj
 0001:0001d210       ?size@?$XsArrayImpl@E$1?g_xsByteArrayDescriptor@@3UXsArrayDescriptor@@BUXsByteArray@@@@QBEIXZ 0041e210 f i udpserver.obj
 0001:0001d221       _XsMath_rad2deg            0041e221 f   xstypes32:xstypes32.dll
 0001:0001d227       _XsQuaternion_fromEulerAngles 0041e227 f   xstypes32:xstypes32.dll
 0001:0001d22d       _XsEuler_fromQuaternion    0041e22d f   xstypes32:xstypes32.dll
 0001:0001d233       _XsArray_construct         0041e233 f   xstypes32:xstypes32.dll
 0001:0001d239       _XsString_assign           0041e239 f   xstypes32:xstypes32.dll
 0001:0001d23f       _XsTime_msleep             0041e23f f   xstypes32:xstypes32.dll
 0001:0001d245       _XsArray_destruct          0041e245 f   xstypes32:xstypes32.dll
 0001:0001d24b       _XsArray_resize            0041e24b f   xstypes32:xstypes32.dll
 0001:0001d251       _XsArray_copy              0041e251 f   xstypes32:xstypes32.dll
 0001:0001d257       _XsSocket_create           0041e257 f   xstypes32:xstypes32.dll
 0001:0001d25d       _XsSocket_destroy          0041e25d f   xstypes32:xstypes32.dll
 0001:0001d263       _XsSocket_read             0041e263 f   xstypes32:xstypes32.dll
 0001:0001d269       _XsSocket_allocate         0041e269 f   xstypes32:xstypes32.dll
 0001:0001d26f       _XsSocket_free             0041e26f f   xstypes32:xstypes32.dll
 0001:0001d275       _XsSocket_bind             0041e275 f   xstypes32:xstypes32.dll
 0001:0001d27b       _CreateThread@24           0041e27b f   kernel32:KERNEL32.dll
 0001:0001d281       ??0_Lockit@std@@QAE@H@Z    0041e281 f   msvcprtd:MSVCP140D.dll
 0001:0001d287       ??1_Lockit@std@@QAE@XZ     0041e287 f   msvcprtd:MSVCP140D.dll
 0001:0001d28d       ?uncaught_exception@std@@YA_NXZ 0041e28d f   msvcprtd:MSVCP140D.dll
 0001:0001d293       ?_Xlength_error@std@@YAXPBD@Z 0041e293 f   msvcprtd:MSVCP140D.dll
 0001:0001d299       ?_Xout_of_range@std@@YAXPBD@Z 0041e299 f   msvcprtd:MSVCP140D.dll
 0001:0001d29f       ?good@ios_base@std@@QBE_NXZ 0041e29f f   msvcprtd:MSVCP140D.dll
 0001:0001d2a5       ?flags@ios_base@std@@QBEHXZ 0041e2a5 f   msvcprtd:MSVCP140D.dll
 0001:0001d2ab       ?width@ios_base@std@@QBE_JXZ 0041e2ab f   msvcprtd:MSVCP140D.dll
 0001:0001d2b1       ?width@ios_base@std@@QAE_J_J@Z 0041e2b1 f   msvcprtd:MSVCP140D.dll
 0001:0001d2b7       ?sputc@?$basic_streambuf@DU?$char_traits@D@std@@@std@@QAEHD@Z 0041e2b7 f   msvcprtd:MSVCP140D.dll
 0001:0001d2bd       ?sputn@?$basic_streambuf@DU?$char_traits@D@std@@@std@@QAE_JPBD_J@Z 0041e2bd f   msvcprtd:MSVCP140D.dll
 0001:0001d2c3       ?setstate@?$basic_ios@DU?$char_traits@D@std@@@std@@QAEXH_N@Z 0041e2c3 f   msvcprtd:MSVCP140D.dll
 0001:0001d2c9       ?tie@?$basic_ios@DU?$char_traits@D@std@@@std@@QBEPAV?$basic_ostream@DU?$char_traits@D@std@@@2@XZ 0041e2c9 f   msvcprtd:MSVCP140D.dll
 0001:0001d2cf       ?rdbuf@?$basic_ios@DU?$char_traits@D@std@@@std@@QBEPAV?$basic_streambuf@DU?$char_traits@D@std@@@2@XZ 0041e2cf f   msvcprtd:MSVCP140D.dll
 0001:0001d2d5       ?fill@?$basic_ios@DU?$char_traits@D@std@@@std@@QBEDXZ 0041e2d5 f   msvcprtd:MSVCP140D.dll
 0001:0001d2db       ?widen@?$basic_ios@DU?$char_traits@D@std@@@std@@QBEDD@Z 0041e2db f   msvcprtd:MSVCP140D.dll
 0001:0001d2e1       ?_Osfx@?$basic_ostream@DU?$char_traits@D@std@@@std@@QAEXXZ 0041e2e1 f   msvcprtd:MSVCP140D.dll
 0001:0001d2e7       ??6?$basic_ostream@DU?$char_traits@D@std@@@std@@QAEAAV01@P6AAAV01@AAV01@@Z@Z 0041e2e7 f   msvcprtd:MSVCP140D.dll
 0001:0001d2ed       ??6?$basic_ostream@DU?$char_traits@D@std@@@std@@QAEAAV01@H@Z 0041e2ed f   msvcprtd:MSVCP140D.dll
 0001:0001d2f3       ??6?$basic_ostream@DU?$char_traits@D@std@@@std@@QAEAAV01@M@Z 0041e2f3 f   msvcprtd:MSVCP140D.dll
 0001:0001d2f9       ?put@?$basic_ostream@DU?$char_traits@D@std@@@std@@QAEAAV12@D@Z 0041e2f9 f   msvcprtd:MSVCP140D.dll
 0001:0001d2ff       ?flush@?$basic_ostream@DU?$char_traits@D@std@@@std@@QAEAAV12@XZ 0041e2ff f   msvcprtd:MSVCP140D.dll
 0001:0001d305       ?_Debug_message@std@@YAXPB_W0I@Z 0041e305 f   msvcprtd:MSVCP140D.dll
 0001:0001d30b       ?_Xinvalid_argument@std@@YAXPBD@Z 0041e30b f   msvcprtd:MSVCP140D.dll
 0001:0001d320       ??0_Fac_node@std@@QAE@PAU01@PAV_Facet_base@1@@Z 0041e320 f i msvcprtd:locale0_implib.obj
 0001:0001d350       ??1_Fac_node@std@@QAE@XZ   0041e350 f i msvcprtd:locale0_implib.obj
 0001:0001d3f0       ??1_Fac_tidy_reg_t@std@@QAE@XZ 0041e3f0 f i msvcprtd:locale0_implib.obj
 0001:0001d450       ??2_Fac_node@std@@SAPAXI@Z 0041e450 f i msvcprtd:locale0_implib.obj
 0001:0001d4a0       ??3_Fac_node@std@@SAXPAX@Z 0041e4a0 f i msvcprtd:locale0_implib.obj
 0001:0001d4c0       ??_G_Fac_node@std@@QAEPAXI@Z 0041e4c0 f i msvcprtd:locale0_implib.obj
 0001:0001d510       ?_Facet_Register@std@@YAXPAV_Facet_base@1@@Z 0041e510 f   msvcprtd:locale0_implib.obj
 0001:0001d5a0       ?__empty_global_delete@@YAXPAXIW4align_val_t@std@@@Z 0041e5a0 f i msvcprtd:locale0_implib.obj
 0001:0001d5b0       ?__empty_global_delete@@YAXPAXW4align_val_t@std@@@Z 0041e5b0 f i msvcprtd:locale0_implib.obj
 0001:0001d5b5       ??Bid@locale@std@@QAEIXZ   0041e5b5 f   msvcprtd:MSVCP140D.dll
 0001:0001d5bb       ?_Getgloballocale@locale@std@@CAPAV_Locimp@12@XZ 0041e5bb f   msvcprtd:MSVCP140D.dll
 0001:0001d5c1       ?is@?$ctype@D@std@@QBE_NFD@Z 0041e5c1 f   msvcprtd:MSVCP140D.dll
 0001:0001d5c7       ?_Getcat@?$ctype@D@std@@SAIPAPBVfacet@locale@2@PBV42@@Z 0041e5c7 f   msvcprtd:MSVCP140D.dll
 0001:0001d5cd       ?setf@ios_base@std@@QAEHHH@Z 0041e5cd f   msvcprtd:MSVCP140D.dll
 0001:0001d5d3       ?getloc@ios_base@std@@QBE?AVlocale@2@XZ 0041e5d3 f   msvcprtd:MSVCP140D.dll
 0001:0001d5d9       ??0?$basic_streambuf@DU?$char_traits@D@std@@@std@@IAE@XZ 0041e5d9 f   msvcprtd:MSVCP140D.dll
 0001:0001d5df       ??1?$basic_streambuf@DU?$char_traits@D@std@@@std@@UAE@XZ 0041e5df f   msvcprtd:MSVCP140D.dll
 0001:0001d5e5       ?sgetc@?$basic_streambuf@DU?$char_traits@D@std@@@std@@QAEHXZ 0041e5e5 f   msvcprtd:MSVCP140D.dll
 0001:0001d5eb       ?snextc@?$basic_streambuf@DU?$char_traits@D@std@@@std@@QAEHXZ 0041e5eb f   msvcprtd:MSVCP140D.dll
 0001:0001d5f1       ?eback@?$basic_streambuf@DU?$char_traits@D@std@@@std@@IBEPADXZ 0041e5f1 f   msvcprtd:MSVCP140D.dll
 0001:0001d5f7       ?gptr@?$basic_streambuf@DU?$char_traits@D@std@@@std@@IBEPADXZ 0041e5f7 f   msvcprtd:MSVCP140D.dll
 0001:0001d5fd       ?pbase@?$basic_streambuf@DU?$char_traits@D@std@@@std@@IBEPADXZ 0041e5fd f   msvcprtd:MSVCP140D.dll
 0001:0001d603       ?pptr@?$basic_streambuf@DU?$char_traits@D@std@@@std@@IBEPADXZ 0041e603 f   msvcprtd:MSVCP140D.dll
 0001:0001d609       ?egptr@?$basic_streambuf@DU?$char_traits@D@std@@@std@@IBEPADXZ 0041e609 f   msvcprtd:MSVCP140D.dll
 0001:0001d60f       ?gbump@?$basic_streambuf@DU?$char_traits@D@std@@@std@@IAEXH@Z 0041e60f f   msvcprtd:MSVCP140D.dll
 0001:0001d615       ?setg@?$basic_streambuf@DU?$char_traits@D@std@@@std@@IAEXPAD00@Z 0041e615 f   msvcprtd:MSVCP140D.dll
 0001:0001d61b       ?epptr@?$basic_streambuf@DU?$char_traits@D@std@@@std@@IBEPADXZ 0041e61b f   msvcprtd:MSVCP140D.dll
 0001:0001d621       ?pbump@?$basic_streambuf@DU?$char_traits@D@std@@@std@@IAEXH@Z 0041e621 f   msvcprtd:MSVCP140D.dll
 0001:0001d627       ?setp@?$basic_streambuf@DU?$char_traits@D@std@@@std@@IAEXPAD0@Z 0041e627 f   msvcprtd:MSVCP140D.dll
 0001:0001d62d       ?setp@?$basic_streambuf@DU?$char_traits@D@std@@@std@@IAEXPAD00@Z 0041e62d f   msvcprtd:MSVCP140D.dll
 0001:0001d633       ?_Pninc@?$basic_streambuf@DU?$char_traits@D@std@@@std@@IAEPADXZ 0041e633 f   msvcprtd:MSVCP140D.dll
 0001:0001d639       ??1?$basic_ios@DU?$char_traits@D@std@@@std@@UAE@XZ 0041e639 f   msvcprtd:MSVCP140D.dll
 0001:0001d63f       ?fill@?$basic_ios@DU?$char_traits@D@std@@@std@@QAEDD@Z 0041e63f f   msvcprtd:MSVCP140D.dll
 0001:0001d645       ??0?$basic_ios@DU?$char_traits@D@std@@@std@@IAE@XZ 0041e645 f   msvcprtd:MSVCP140D.dll
 0001:0001d64b       ??6?$basic_ostream@DU?$char_traits@D@std@@@std@@QAEAAV01@P6AAAVios_base@1@AAV21@@Z@Z 0041e64b f   msvcprtd:MSVCP140D.dll
 0001:0001d651       ?_Ipfx@?$basic_istream@DU?$char_traits@D@std@@@std@@QAE_N_N@Z 0041e651 f   msvcprtd:MSVCP140D.dll
 0001:0001d657       ??0?$basic_iostream@DU?$char_traits@D@std@@@std@@QAE@PAV?$basic_streambuf@DU?$char_traits@D@std@@@1@@Z 0041e657 f   msvcprtd:MSVCP140D.dll
 0001:0001d65d       ??1?$basic_iostream@DU?$char_traits@D@std@@@std@@UAE@XZ 0041e65d f   msvcprtd:MSVCP140D.dll
 0001:0001d663       ?_Lock@?$basic_streambuf@DU?$char_traits@D@std@@@std@@UAEXXZ 0041e663 f   msvcprtd:MSVCP140D.dll
 0001:0001d669       ?_Unlock@?$basic_streambuf@DU?$char_traits@D@std@@@std@@UAEXXZ 0041e669 f   msvcprtd:MSVCP140D.dll
 0001:0001d66f       ?imbue@?$basic_streambuf@DU?$char_traits@D@std@@@std@@MAEXABVlocale@2@@Z 0041e66f f   msvcprtd:MSVCP140D.dll
 0001:0001d675       ?setbuf@?$basic_streambuf@DU?$char_traits@D@std@@@std@@MAEPAV12@PAD_J@Z 0041e675 f   msvcprtd:MSVCP140D.dll
 0001:0001d67b       ?showmanyc@?$basic_streambuf@DU?$char_traits@D@std@@@std@@MAE_JXZ 0041e67b f   msvcprtd:MSVCP140D.dll
 0001:0001d681       ?sync@?$basic_streambuf@DU?$char_traits@D@std@@@std@@MAEHXZ 0041e681 f   msvcprtd:MSVCP140D.dll
 0001:0001d687       ?uflow@?$basic_streambuf@DU?$char_traits@D@std@@@std@@MAEHXZ 0041e687 f   msvcprtd:MSVCP140D.dll
 0001:0001d68d       ?xsgetn@?$basic_streambuf@DU?$char_traits@D@std@@@std@@MAE_JPAD_J@Z 0041e68d f   msvcprtd:MSVCP140D.dll
 0001:0001d693       ?xsputn@?$basic_streambuf@DU?$char_traits@D@std@@@std@@MAE_JPBD_J@Z 0041e693 f   msvcprtd:MSVCP140D.dll
 0001:0001d699       ??Bios_base@std@@QBE_NXZ   0041e699 f   msvcprtd:MSVCP140D.dll
 0001:0001d69f       ?sbumpc@?$basic_streambuf@DU?$char_traits@D@std@@@std@@QAEHXZ 0041e69f f   msvcprtd:MSVCP140D.dll
 0001:0001d6a5       ??6?$basic_ostream@DU?$char_traits@D@std@@@std@@QAEAAV01@F@Z 0041e6a5 f   msvcprtd:MSVCP140D.dll
 0001:0001d6ab       ?_Xbad_alloc@std@@YAXXZ    0041e6ab f   msvcprtd:MSVCP140D.dll
 0001:0001d6c0       ??2@YAPAXI@Z               0041e6c0 f   MSVCRTD:new_scalar.obj
 0001:0001d710       ??3@YAXPAXI@Z              0041e710 f   MSVCRTD:delete_scalar_size.obj
 0001:0001d730       @__security_check_cookie@4 0041e730 f   MSVCRTD:_secchk_.obj
 0001:0001d750       ??1type_info@@UAE@XZ       0041e750 f   MSVCRTD:std_type_info_static.obj
 0001:0001d770       ??_Gtype_info@@UAEPAXI@Z   0041e770 f i MSVCRTD:std_type_info_static.obj
 0001:0001d770       ??_Etype_info@@UAEPAXI@Z   0041e770 f i MSVCRTD:std_type_info_static.obj
 0001:0001d7a0       ??_U@YAPAXI@Z              0041e7a0 f   MSVCRTD:new_array.obj
 0001:0001d7c0       ??_V@YAXPAX@Z              0041e7c0 f   MSVCRTD:delete_array.obj
 0001:0001dad0       ?configure_argv@__scrt_narrow_argv_policy@@SAHXZ 0041ead0 f i MSVCRTD:exe_main.obj
 0001:0001daf0       ?initialize_environment@__scrt_narrow_environment_policy@@SAHXZ 0041eaf0 f i MSVCRTD:exe_main.obj
 0001:0001db30       ?set_app_type@__scrt_main_policy@@SAXXZ 0041eb30 f i MSVCRTD:exe_main.obj
 0001:0001db40       ?set_commode@__scrt_file_policy@@SAXXZ 0041eb40 f i MSVCRTD:exe_main.obj
 0001:0001db60       ?set_fmode@__scrt_file_policy@@SAXXZ 0041eb60 f i MSVCRTD:exe_main.obj
 0001:0001db80       _mainCRTStartup            0041eb80 f   MSVCRTD:exe_main.obj
 0001:0001db90       ??$__crt_fast_decode_pointer@PAP6AXXZ@@YAPAP6AXXZQAP6AXXZ@Z 0041eb90 f i MSVCRTD:utility.obj
 0001:0001dbc0       ??$__crt_fast_encode_pointer@PAP6AXXZ@@YAPAP6AXXZQAP6AXXZ@Z 0041ebc0 f i MSVCRTD:utility.obj
 0001:0001dbf0       ?__crt_rotate_pointer_value@@YAIIH@Z 0041ebf0 f i MSVCRTD:utility.obj
 0001:0001dd00       _NtCurrentTeb              0041ed00 f i MSVCRTD:utility.obj
 0001:0001dd10       ___scrt_acquire_startup_lock 0041ed10 f   MSVCRTD:utility.obj
 0001:0001dd60       ___scrt_dllmain_after_initialize_c 0041ed60 f   MSVCRTD:utility.obj
 0001:0001dd90       ___scrt_dllmain_before_initialize_c 0041ed90 f   MSVCRTD:utility.obj
 0001:0001ddb0       ___scrt_dllmain_crt_thread_attach 0041edb0 f   MSVCRTD:utility.obj
 0001:0001dde0       ___scrt_dllmain_crt_thread_detach 0041ede0 f   MSVCRTD:utility.obj
 0001:0001de00       ___scrt_dllmain_exception_filter 0041ee00 f   MSVCRTD:utility.obj
 0001:0001de50       ___scrt_dllmain_uninitialize_c 0041ee50 f   MSVCRTD:utility.obj
 0001:0001de80       ___scrt_dllmain_uninitialize_critical 0041ee80 f   MSVCRTD:utility.obj
 0001:0001dea0       ___scrt_initialize_crt     0041eea0 f   MSVCRTD:utility.obj
 0001:0001def0       ___scrt_initialize_onexit_tables 0041eef0 f   MSVCRTD:utility.obj
 0001:0001dfd0       ___scrt_is_nonwritable_in_current_image 0041efd0 f   MSVCRTD:utility.obj
 0001:0001e100       ___scrt_release_startup_lock 0041f100 f   MSVCRTD:utility.obj
 0001:0001e130       ___scrt_uninitialize_crt   0041f130 f   MSVCRTD:utility.obj
 0001:0001e170       __onexit                   0041f170 f   MSVCRTD:utility.obj
 0001:0001e1e0       _at_quick_exit             0041f1e0 f   MSVCRTD:utility.obj
 0001:0001e230       _atexit                    0041f230 f   MSVCRTD:utility.obj
 0001:0001e260       @_guard_check_icall_nop@4  0041f260 f i MSVCRTD:guard_support.obj
 0001:0001e270       _ReadNoFence               0041f270 f i MSVCRTD:guard_support.obj
 0001:0001e290       _ReadPointerNoFence        0041f290 f i MSVCRTD:guard_support.obj
 0001:0001e2b0       __guard_icall_checks_enforced 0041f2b0 f i MSVCRTD:guard_support.obj
 0001:0001e2e0       ??0bad_alloc@std@@AAE@QBD@Z 0041f2e0 f i MSVCRTD:throw_bad_alloc.obj
 0001:0001e310       ??0bad_array_new_length@std@@QAE@ABV01@@Z 0041f310 f i MSVCRTD:throw_bad_alloc.obj
 0001:0001e340       ??0bad_array_new_length@std@@QAE@XZ 0041f340 f i MSVCRTD:throw_bad_alloc.obj
 0001:0001e370       ??1bad_array_new_length@std@@UAE@XZ 0041f370 f i MSVCRTD:throw_bad_alloc.obj
 0001:0001e390       ??_Gbad_array_new_length@std@@UAEPAXI@Z 0041f390 f i MSVCRTD:throw_bad_alloc.obj
 0001:0001e390       ??_Ebad_array_new_length@std@@UAEPAXI@Z 0041f390 f i MSVCRTD:throw_bad_alloc.obj
 0001:0001e3c0       ?__scrt_throw_std_bad_alloc@@YAXXZ 0041f3c0 f   MSVCRTD:throw_bad_alloc.obj
 0001:0001e3e0       ?__scrt_throw_std_bad_array_new_length@@YAXXZ 0041f3e0 f   MSVCRTD:throw_bad_alloc.obj
 0001:0001e400       ??3@YAXPAX@Z               0041f400 f   MSVCRTD:delete_scalar.obj
 0001:0001e420       ___raise_securityfailure   0041f420 f   MSVCRTD:gs_report.obj
 0001:0001e450       ___report_gsfailure        0041f450 f   MSVCRTD:gs_report.obj
 0001:0001e560       ___report_rangecheckfailure 0041f560 f   MSVCRTD:gs_report.obj
 0001:0001e570       ___report_securityfailure  0041f570 f   MSVCRTD:gs_report.obj
 0001:0001e650       ___report_securityfailureEx 0041f650 f   MSVCRTD:gs_report.obj
 0001:0001e7f0       ___security_init_cookie    0041f7f0 f   MSVCRTD:gs_support.obj
 0001:0001e870       __matherr                  0041f870 f   MSVCRTD:matherr.obj
 0001:0001e880       __get_startup_argv_mode    0041f880 f   MSVCRTD:argv_mode.obj
 0001:0001e890       __get_startup_commit_mode  0041f890 f   MSVCRTD:commit_mode.obj
 0001:0001e8a0       __get_startup_file_mode    0041f8a0 f   MSVCRTD:file_mode.obj
 0001:0001e8b0       __get_startup_new_mode     0041f8b0 f   MSVCRTD:new_mode.obj
 0001:0001e8c0       __get_startup_thread_locale_mode 0041f8c0 f   MSVCRTD:thread_locale.obj
 0001:0001e8d0       ?__scrt_initialize_type_info@@YAXXZ 0041f8d0 f   MSVCRTD:tncleanup.obj
 0001:0001e8e0       ?__scrt_uninitialize_type_info@@YAXXZ 0041f8e0 f   MSVCRTD:tncleanup.obj
 0001:0001e900       __should_initialize_environment 0041f900 f   MSVCRTD:env_mode.obj
 0001:0001e910       __initialize_default_precision 0041f910 f   MSVCRTD:default_precision.obj
 0001:0001e940       __initialize_invalid_parameter_handler 0041f940 f   MSVCRTD:invalid_parameter_handler.obj
 0001:0001e950       __initialize_denormal_control 0041f950 f   MSVCRTD:denormal_control.obj
 0001:0001e960       ___scrt_initialize_default_local_stdio_options 0041f960 f   MSVCRTD:default_local_stdio_options.obj
 0001:0001e9a0       ___scrt_is_user_matherr_present 0041f9a0 f   MSVCRTD:matherr_detection.obj
 0001:0001e9d0       ___scrt_get_dyn_tls_init_callback 0041f9d0 f   MSVCRTD:dyn_tls_init.obj
 0001:0001e9e0       ___scrt_get_dyn_tls_dtor_callback 0041f9e0 f   MSVCRTD:dyn_tls_dtor.obj
 0001:0001e9f0       ___scrt_fastfail           0041f9f0 f   MSVCRTD:utility_desktop.obj
 0001:0001eb30       ___scrt_get_show_window_mode 0041fb30 f   MSVCRTD:utility_desktop.obj
 0001:0001eb70       ___scrt_initialize_winrt   0041fb70 f   MSVCRTD:utility_desktop.obj
 0001:0001eb80       ___scrt_is_managed_app     0041fb80 f   MSVCRTD:utility_desktop.obj
 0001:0001ec10       ___scrt_set_unhandled_exception_filter 0041fc10 f   MSVCRTD:utility_desktop.obj
 0001:0001ec20       ___scrt_unhandled_exception_filter@4 0041fc20 f   MSVCRTD:utility_desktop.obj
 0001:0001ec80       __crt_debugger_hook        0041fc80 f   MSVCRTD:utility_desktop.obj
 0001:0001ec90       __RTC_Initialize           0041fc90 f   MSVCRTD:_initsect_.obj
 0001:0001ecc0       __RTC_Terminate            0041fcc0 f   MSVCRTD:_initsect_.obj
 0001:0001ecf0       __except_handler4          0041fcf0 f   MSVCRTD:_chandler4gs_.obj
 0001:0001ed20       ___isa_available_init      0041fd20 f   MSVCRTD:_cpu_disp_.obj
 0001:0001f000       ___scrt_is_ucrt_dll_in_use 00420000 f   MSVCRTD:ucrt_detection.obj
 0001:0001f024       _memmove                   00420024 f   vcruntimed:VCRUNTIME140D.dll
 0001:0001f02a       __CxxThrowException@8      0042002a f   vcruntimed:VCRUNTIME140D.dll
 0001:0001f030       ___CxxFrameHandler3        00420030 f   vcruntimed:VCRUNTIME140D.dll
 0001:0001f036       __purecall                 00420036 f   vcruntimed:VCRUNTIME140D.dll
 0001:0001f03c       _memcpy                    0042003c f   vcruntimed:VCRUNTIME140D.dll
 0001:0001f042       _memset                    00420042 f   vcruntimed:VCRUNTIME140D.dll
 0001:0001f048       ___std_exception_copy      00420048 f   vcruntimed:VCRUNTIME140D.dll
 0001:0001f04e       ___std_exception_destroy   0042004e f   vcruntimed:VCRUNTIME140D.dll
 0001:0001f054       _memcmp                    00420054 f   vcruntimed:VCRUNTIME140D.dll
 0001:0001f05a       ___std_type_info_destroy_list 0042005a f   vcruntimed:VCRUNTIME140D.dll
 0001:0001f060       __except_handler4_common   00420060 f   vcruntimed:VCRUNTIME140D.dll
 0001:0001f066       __invalid_parameter        00420066 f   ucrtd:ucrtbased.dll
 0001:0001f06c       _strlen                    0042006c f   ucrtd:ucrtbased.dll
 0001:0001f072       __CrtDbgReportW            00420072 f   ucrtd:ucrtbased.dll
 0001:0001f078       __errno                    00420078 f   ucrtd:ucrtbased.dll
 0001:0001f07e       _strtol                    0042007e f   ucrtd:ucrtbased.dll
 0001:0001f084       __kbhit                    00420084 f   ucrtd:ucrtbased.dll
 0001:0001f08a       ___acrt_iob_func           0042008a f   ucrtd:ucrtbased.dll
 0001:0001f090       ___stdio_common_vfprintf   00420090 f   ucrtd:ucrtbased.dll
 0001:0001f096       ___stdio_common_vsscanf    00420096 f   ucrtd:ucrtbased.dll
 0001:0001f09c       __free_dbg                 0042009c f   ucrtd:ucrtbased.dll
 0001:0001f0a2       __malloc_dbg               004200a2 f   ucrtd:ucrtbased.dll
 0001:0001f0a8       __callnewh                 004200a8 f   ucrtd:ucrtbased.dll
 0001:0001f0ae       _malloc                    004200ae f   ucrtd:ucrtbased.dll
 0001:0001f0b4       __seh_filter_exe           004200b4 f   ucrtd:ucrtbased.dll
 0001:0001f0ba       __set_app_type             004200ba f   ucrtd:ucrtbased.dll
 0001:0001f0c0       ___setusermatherr          004200c0 f   ucrtd:ucrtbased.dll
 0001:0001f0c6       __configure_narrow_argv    004200c6 f   ucrtd:ucrtbased.dll
 0001:0001f0cc       __initialize_narrow_environment 004200cc f   ucrtd:ucrtbased.dll
 0001:0001f0d2       __get_initial_narrow_environment 004200d2 f   ucrtd:ucrtbased.dll
 0001:0001f0d8       __initterm                 004200d8 f   ucrtd:ucrtbased.dll
 0001:0001f0de       __initterm_e               004200de f   ucrtd:ucrtbased.dll
 0001:0001f0e4       _exit                      004200e4 f   ucrtd:ucrtbased.dll
 0001:0001f0ea       __exit                     004200ea f   ucrtd:ucrtbased.dll
 0001:0001f0f0       __set_fmode                004200f0 f   ucrtd:ucrtbased.dll
 0001:0001f0f6       ___p___argc                004200f6 f   ucrtd:ucrtbased.dll
 0001:0001f0fc       ___p___argv                004200fc f   ucrtd:ucrtbased.dll
 0001:0001f102       __cexit                    00420102 f   ucrtd:ucrtbased.dll
 0001:0001f108       __c_exit                   00420108 f   ucrtd:ucrtbased.dll
 0001:0001f10e       __register_thread_local_exe_atexit_callback 0042010e f   ucrtd:ucrtbased.dll
 0001:0001f114       __configthreadlocale       00420114 f   ucrtd:ucrtbased.dll
 0001:0001f11a       __set_new_mode             0042011a f   ucrtd:ucrtbased.dll
 0001:0001f120       ___p__commode              00420120 f   ucrtd:ucrtbased.dll
 0001:0001f126       __seh_filter_dll           00420126 f   ucrtd:ucrtbased.dll
 0001:0001f12c       __initialize_onexit_table  0042012c f   ucrtd:ucrtbased.dll
 0001:0001f132       __register_onexit_function 00420132 f   ucrtd:ucrtbased.dll
 0001:0001f138       __execute_onexit_table     00420138 f   ucrtd:ucrtbased.dll
 0001:0001f13e       __crt_atexit               0042013e f   ucrtd:ucrtbased.dll
 0001:0001f144       __crt_at_quick_exit        00420144 f   ucrtd:ucrtbased.dll
 0001:0001f14a       __controlfp_s              0042014a f   ucrtd:ucrtbased.dll
 0001:0001f150       _terminate                 00420150 f   ucrtd:ucrtbased.dll
 0001:0001f156       _UnhandledExceptionFilter@4 00420156 f   kernel32:KERNEL32.dll
 0001:0001f15c       _SetUnhandledExceptionFilter@4 0042015c f   kernel32:KERNEL32.dll
 0001:0001f162       _GetCurrentProcess@0       00420162 f   kernel32:KERNEL32.dll
 0001:0001f168       _TerminateProcess@8        00420168 f   kernel32:KERNEL32.dll
 0001:0001f16e       _IsProcessorFeaturePresent@4 0042016e f   kernel32:KERNEL32.dll
 0001:0001f174       _QueryPerformanceCounter@4 00420174 f   kernel32:KERNEL32.dll
 0001:0001f17a       _GetCurrentProcessId@0     0042017a f   kernel32:KERNEL32.dll
 0001:0001f180       _GetCurrentThreadId@0      00420180 f   kernel32:KERNEL32.dll
 0001:0001f186       _GetSystemTimeAsFileTime@4 00420186 f   kernel32:KERNEL32.dll
 0001:0001f18c       _InitializeSListHead@4     0042018c f   kernel32:KERNEL32.dll
 0001:0001f192       _IsDebuggerPresent@0       00420192 f   kernel32:KERNEL32.dll
 0001:0001f198       _GetStartupInfoW@4         00420198 f   kernel32:KERNEL32.dll
 0001:0001f19e       _GetModuleHandleW@4        0042019e f   kernel32:KERNEL32.dll
 0001:0001f1b0       ___acrt_initialize         004201b0 f   MSVCRTD:ucrt_stubs.obj
 0001:0001f1b0       ___scrt_stub_for_acrt_initialize 004201b0 f   MSVCRTD:ucrt_stubs.obj
 0001:0001f1b0       ___vcrt_initialize         004201b0 f   MSVCRTD:ucrt_stubs.obj
 0001:0001f1c0       ___vcrt_thread_attach      004201c0 f   MSVCRTD:ucrt_stubs.obj
 0001:0001f1c0       ___scrt_stub_for_acrt_thread_attach 004201c0 f   MSVCRTD:ucrt_stubs.obj
 0001:0001f1c0       ___acrt_thread_attach      004201c0 f   MSVCRTD:ucrt_stubs.obj
 0001:0001f1d0       ___scrt_stub_for_acrt_thread_detach 004201d0 f   MSVCRTD:ucrt_stubs.obj
 0001:0001f1d0       ___vcrt_thread_detach      004201d0 f   MSVCRTD:ucrt_stubs.obj
 0001:0001f1d0       ___acrt_thread_detach      004201d0 f   MSVCRTD:ucrt_stubs.obj
 0001:0001f1e0       ___vcrt_uninitialize       004201e0 f   MSVCRTD:ucrt_stubs.obj
 0001:0001f1e0       ___scrt_stub_for_acrt_uninitialize 004201e0 f   MSVCRTD:ucrt_stubs.obj
 0001:0001f1e0       ___acrt_uninitialize       004201e0 f   MSVCRTD:ucrt_stubs.obj
 0001:0001f1f0       ___acrt_uninitialize_critical 004201f0 f   MSVCRTD:ucrt_stubs.obj
 0001:0001f1f0       ___vcrt_uninitialize_critical 004201f0 f   MSVCRTD:ucrt_stubs.obj
 0001:0001f1f0       ___scrt_stub_for_acrt_uninitialize_critical 004201f0 f   MSVCRTD:ucrt_stubs.obj
 0001:0001f200       ___scrt_stub_for_is_c_termination_complete 00420200 f   MSVCRTD:ucrt_stubs.obj
 0001:0001f200       __is_c_termination_complete 00420200 f   MSVCRTD:ucrt_stubs.obj
 0002:00000000       __imp__GetModuleHandleW@4  00423000     kernel32:KERNEL32.dll
 0002:00000004       __imp__GetStartupInfoW@4   00423004     kernel32:KERNEL32.dll
 0002:00000008       __imp__IsDebuggerPresent@0 00423008     kernel32:KERNEL32.dll
 0002:0000000c       __imp__InitializeSListHead@4 0042300c     kernel32:KERNEL32.dll
 0002:00000010       __imp__GetSystemTimeAsFileTime@4 00423010     kernel32:KERNEL32.dll
 0002:00000014       __imp__GetCurrentThreadId@0 00423014     kernel32:KERNEL32.dll
 0002:00000018       __imp__GetCurrentProcessId@0 00423018     kernel32:KERNEL32.dll
 0002:0000001c       __imp__QueryPerformanceCounter@4 0042301c     kernel32:KERNEL32.dll
 0002:00000020       __imp__IsProcessorFeaturePresent@4 00423020     kernel32:KERNEL32.dll
 0002:00000024       __imp__TerminateProcess@8  00423024     kernel32:KERNEL32.dll
 0002:00000028       __imp__GetCurrentProcess@0 00423028     kernel32:KERNEL32.dll
 0002:0000002c       __imp__SetUnhandledExceptionFilter@4 0042302c     kernel32:KERNEL32.dll
 0002:00000030       __imp__UnhandledExceptionFilter@4 00423030     kernel32:KERNEL32.dll
 0002:00000034       __imp__CreateThread@24     00423034     kernel32:KERNEL32.dll
 0002:00000038       \177KERNEL32_NULL_THUNK_DATA 00423038     kernel32:KERNEL32.dll
 0002:0000003c       __imp_?sbumpc@?$basic_streambuf@DU?$char_traits@D@std@@@std@@QAEHXZ 0042303c     msvcprtd:MSVCP140D.dll
 0002:00000040       __imp_??Bios_base@std@@QBE_NXZ 00423040     msvcprtd:MSVCP140D.dll
 0002:00000044       __imp_?id@?$ctype@D@std@@2V0locale@2@A 00423044     msvcprtd:MSVCP140D.dll
 0002:00000048       __imp_?_BADOFF@std@@3_JB   00423048     msvcprtd:MSVCP140D.dll
 0002:0000004c       __imp_?xsputn@?$basic_streambuf@DU?$char_traits@D@std@@@std@@MAE_JPBD_J@Z 0042304c     msvcprtd:MSVCP140D.dll
 0002:00000050       __imp_?xsgetn@?$basic_streambuf@DU?$char_traits@D@std@@@std@@MAE_JPAD_J@Z 00423050     msvcprtd:MSVCP140D.dll
 0002:00000054       __imp_?uflow@?$basic_streambuf@DU?$char_traits@D@std@@@std@@MAEHXZ 00423054     msvcprtd:MSVCP140D.dll
 0002:00000058       __imp_?sync@?$basic_streambuf@DU?$char_traits@D@std@@@std@@MAEHXZ 00423058     msvcprtd:MSVCP140D.dll
 0002:0000005c       __imp_?showmanyc@?$basic_streambuf@DU?$char_traits@D@std@@@std@@MAE_JXZ 0042305c     msvcprtd:MSVCP140D.dll
 0002:00000060       __imp_??6?$basic_ostream@DU?$char_traits@D@std@@@std@@QAEAAV01@F@Z 00423060     msvcprtd:MSVCP140D.dll
 0002:00000064       __imp_?imbue@?$basic_streambuf@DU?$char_traits@D@std@@@std@@MAEXABVlocale@2@@Z 00423064     msvcprtd:MSVCP140D.dll
 0002:00000068       __imp_?_Unlock@?$basic_streambuf@DU?$char_traits@D@std@@@std@@UAEXXZ 00423068     msvcprtd:MSVCP140D.dll
 0002:0000006c       __imp_?_Lock@?$basic_streambuf@DU?$char_traits@D@std@@@std@@UAEXXZ 0042306c     msvcprtd:MSVCP140D.dll
 0002:00000070       __imp_??1?$basic_iostream@DU?$char_traits@D@std@@@std@@UAE@XZ 00423070     msvcprtd:MSVCP140D.dll
 0002:00000074       __imp_??0?$basic_iostream@DU?$char_traits@D@std@@@std@@QAE@PAV?$basic_streambuf@DU?$char_traits@D@std@@@1@@Z 00423074     msvcprtd:MSVCP140D.dll
 0002:00000078       __imp_?_Ipfx@?$basic_istream@DU?$char_traits@D@std@@@std@@QAE_N_N@Z 00423078     msvcprtd:MSVCP140D.dll
 0002:0000007c       __imp_??6?$basic_ostream@DU?$char_traits@D@std@@@std@@QAEAAV01@P6AAAVios_base@1@AAV21@@Z@Z 0042307c     msvcprtd:MSVCP140D.dll
 0002:00000080       __imp_??0?$basic_ios@DU?$char_traits@D@std@@@std@@IAE@XZ 00423080     msvcprtd:MSVCP140D.dll
 0002:00000084       __imp_?fill@?$basic_ios@DU?$char_traits@D@std@@@std@@QAEDD@Z 00423084     msvcprtd:MSVCP140D.dll
 0002:00000088       __imp_??1?$basic_ios@DU?$char_traits@D@std@@@std@@UAE@XZ 00423088     msvcprtd:MSVCP140D.dll
 0002:0000008c       __imp_?_Pninc@?$basic_streambuf@DU?$char_traits@D@std@@@std@@IAEPADXZ 0042308c     msvcprtd:MSVCP140D.dll
 0002:00000090       __imp_?setp@?$basic_streambuf@DU?$char_traits@D@std@@@std@@IAEXPAD00@Z 00423090     msvcprtd:MSVCP140D.dll
 0002:00000094       __imp_?setp@?$basic_streambuf@DU?$char_traits@D@std@@@std@@IAEXPAD0@Z 00423094     msvcprtd:MSVCP140D.dll
 0002:00000098       __imp_?pbump@?$basic_streambuf@DU?$char_traits@D@std@@@std@@IAEXH@Z 00423098     msvcprtd:MSVCP140D.dll
 0002:0000009c       __imp_?epptr@?$basic_streambuf@DU?$char_traits@D@std@@@std@@IBEPADXZ 0042309c     msvcprtd:MSVCP140D.dll
 0002:000000a0       __imp_?setg@?$basic_streambuf@DU?$char_traits@D@std@@@std@@IAEXPAD00@Z 004230a0     msvcprtd:MSVCP140D.dll
 0002:000000a4       __imp_?gbump@?$basic_streambuf@DU?$char_traits@D@std@@@std@@IAEXH@Z 004230a4     msvcprtd:MSVCP140D.dll
 0002:000000a8       __imp_?egptr@?$basic_streambuf@DU?$char_traits@D@std@@@std@@IBEPADXZ 004230a8     msvcprtd:MSVCP140D.dll
 0002:000000ac       __imp_?pptr@?$basic_streambuf@DU?$char_traits@D@std@@@std@@IBEPADXZ 004230ac     msvcprtd:MSVCP140D.dll
 0002:000000b0       __imp_?pbase@?$basic_streambuf@DU?$char_traits@D@std@@@std@@IBEPADXZ 004230b0     msvcprtd:MSVCP140D.dll
 0002:000000b4       __imp_?gptr@?$basic_streambuf@DU?$char_traits@D@std@@@std@@IBEPADXZ 004230b4     msvcprtd:MSVCP140D.dll
 0002:000000b8       __imp_?_Xbad_alloc@std@@YAXXZ 004230b8     msvcprtd:MSVCP140D.dll
 0002:000000bc       __imp_?setbuf@?$basic_streambuf@DU?$char_traits@D@std@@@std@@MAEPAV12@PAD_J@Z 004230bc     msvcprtd:MSVCP140D.dll
 0002:000000c0       __imp_??0_Lockit@std@@QAE@H@Z 004230c0     msvcprtd:MSVCP140D.dll
 0002:000000c4       __imp_??1_Lockit@std@@QAE@XZ 004230c4     msvcprtd:MSVCP140D.dll
 0002:000000c8       __imp_?uncaught_exception@std@@YA_NXZ 004230c8     msvcprtd:MSVCP140D.dll
 0002:000000cc       __imp_?_Xlength_error@std@@YAXPBD@Z 004230cc     msvcprtd:MSVCP140D.dll
 0002:000000d0       __imp_?_Xout_of_range@std@@YAXPBD@Z 004230d0     msvcprtd:MSVCP140D.dll
 0002:000000d4       __imp_?good@ios_base@std@@QBE_NXZ 004230d4     msvcprtd:MSVCP140D.dll
 0002:000000d8       __imp_?flags@ios_base@std@@QBEHXZ 004230d8     msvcprtd:MSVCP140D.dll
 0002:000000dc       __imp_?width@ios_base@std@@QBE_JXZ 004230dc     msvcprtd:MSVCP140D.dll
 0002:000000e0       __imp_?width@ios_base@std@@QAE_J_J@Z 004230e0     msvcprtd:MSVCP140D.dll
 0002:000000e4       __imp_?sputc@?$basic_streambuf@DU?$char_traits@D@std@@@std@@QAEHD@Z 004230e4     msvcprtd:MSVCP140D.dll
 0002:000000e8       __imp_?sputn@?$basic_streambuf@DU?$char_traits@D@std@@@std@@QAE_JPBD_J@Z 004230e8     msvcprtd:MSVCP140D.dll
 0002:000000ec       __imp_?setstate@?$basic_ios@DU?$char_traits@D@std@@@std@@QAEXH_N@Z 004230ec     msvcprtd:MSVCP140D.dll
 0002:000000f0       __imp_?tie@?$basic_ios@DU?$char_traits@D@std@@@std@@QBEPAV?$basic_ostream@DU?$char_traits@D@std@@@2@XZ 004230f0     msvcprtd:MSVCP140D.dll
 0002:000000f4       __imp_?rdbuf@?$basic_ios@DU?$char_traits@D@std@@@std@@QBEPAV?$basic_streambuf@DU?$char_traits@D@std@@@2@XZ 004230f4     msvcprtd:MSVCP140D.dll
 0002:000000f8       __imp_?fill@?$basic_ios@DU?$char_traits@D@std@@@std@@QBEDXZ 004230f8     msvcprtd:MSVCP140D.dll
 0002:000000fc       __imp_?widen@?$basic_ios@DU?$char_traits@D@std@@@std@@QBEDD@Z 004230fc     msvcprtd:MSVCP140D.dll
 0002:00000100       __imp_?_Osfx@?$basic_ostream@DU?$char_traits@D@std@@@std@@QAEXXZ 00423100     msvcprtd:MSVCP140D.dll
 0002:00000104       __imp_??6?$basic_ostream@DU?$char_traits@D@std@@@std@@QAEAAV01@P6AAAV01@AAV01@@Z@Z 00423104     msvcprtd:MSVCP140D.dll
 0002:00000108       __imp_??6?$basic_ostream@DU?$char_traits@D@std@@@std@@QAEAAV01@H@Z 00423108     msvcprtd:MSVCP140D.dll
 0002:0000010c       __imp_??6?$basic_ostream@DU?$char_traits@D@std@@@std@@QAEAAV01@M@Z 0042310c     msvcprtd:MSVCP140D.dll
 0002:00000110       __imp_?put@?$basic_ostream@DU?$char_traits@D@std@@@std@@QAEAAV12@D@Z 00423110     msvcprtd:MSVCP140D.dll
 0002:00000114       __imp_?flush@?$basic_ostream@DU?$char_traits@D@std@@@std@@QAEAAV12@XZ 00423114     msvcprtd:MSVCP140D.dll
 0002:00000118       __imp_?cout@std@@3V?$basic_ostream@DU?$char_traits@D@std@@@1@A 00423118     msvcprtd:MSVCP140D.dll
 0002:0000011c       __imp_?_Debug_message@std@@YAXPB_W0I@Z 0042311c     msvcprtd:MSVCP140D.dll
 0002:00000120       __imp_?_Xinvalid_argument@std@@YAXPBD@Z 00423120     msvcprtd:MSVCP140D.dll
 0002:00000124       __imp_??Bid@locale@std@@QAEIXZ 00423124     msvcprtd:MSVCP140D.dll
 0002:00000128       __imp_?_Getgloballocale@locale@std@@CAPAV_Locimp@12@XZ 00423128     msvcprtd:MSVCP140D.dll
 0002:0000012c       __imp_?is@?$ctype@D@std@@QBE_NFD@Z 0042312c     msvcprtd:MSVCP140D.dll
 0002:00000130       __imp_?_Getcat@?$ctype@D@std@@SAIPAPBVfacet@locale@2@PBV42@@Z 00423130     msvcprtd:MSVCP140D.dll
 0002:00000134       __imp_?setf@ios_base@std@@QAEHHH@Z 00423134     msvcprtd:MSVCP140D.dll
 0002:00000138       __imp_?getloc@ios_base@std@@QBE?AVlocale@2@XZ 00423138     msvcprtd:MSVCP140D.dll
 0002:0000013c       __imp_??0?$basic_streambuf@DU?$char_traits@D@std@@@std@@IAE@XZ 0042313c     msvcprtd:MSVCP140D.dll
 0002:00000140       __imp_??1?$basic_streambuf@DU?$char_traits@D@std@@@std@@UAE@XZ 00423140     msvcprtd:MSVCP140D.dll
 0002:00000144       __imp_?sgetc@?$basic_streambuf@DU?$char_traits@D@std@@@std@@QAEHXZ 00423144     msvcprtd:MSVCP140D.dll
 0002:00000148       __imp_?snextc@?$basic_streambuf@DU?$char_traits@D@std@@@std@@QAEHXZ 00423148     msvcprtd:MSVCP140D.dll
 0002:0000014c       __imp_?eback@?$basic_streambuf@DU?$char_traits@D@std@@@std@@IBEPADXZ 0042314c     msvcprtd:MSVCP140D.dll
 0002:00000150       \177MSVCP140D_NULL_THUNK_DATA 00423150     msvcprtd:MSVCP140D.dll
 0002:00000154       __imp___except_handler4_common 00423154     vcruntimed:VCRUNTIME140D.dll
 0002:00000158       __imp__memcmp              00423158     vcruntimed:VCRUNTIME140D.dll
 0002:0000015c       __imp____std_exception_destroy 0042315c     vcruntimed:VCRUNTIME140D.dll
 0002:00000160       __imp____std_exception_copy 00423160     vcruntimed:VCRUNTIME140D.dll
 0002:00000164       __imp__memset              00423164     vcruntimed:VCRUNTIME140D.dll
 0002:00000168       __imp__memcpy              00423168     vcruntimed:VCRUNTIME140D.dll
 0002:0000016c       __imp___purecall           0042316c     vcruntimed:VCRUNTIME140D.dll
 0002:00000170       __imp____CxxFrameHandler3  00423170     vcruntimed:VCRUNTIME140D.dll
 0002:00000174       __imp___CxxThrowException@8 00423174     vcruntimed:VCRUNTIME140D.dll
 0002:00000178       __imp__memmove             00423178     vcruntimed:VCRUNTIME140D.dll
 0002:0000017c       __imp____std_type_info_destroy_list 0042317c     vcruntimed:VCRUNTIME140D.dll
 0002:00000180       \177VCRUNTIME140D_NULL_THUNK_DATA 00423180     vcruntimed:VCRUNTIME140D.dll
 0002:00000184       __imp___c_exit             00423184     ucrtd:ucrtbased.dll
 0002:00000188       __imp___cexit              00423188     ucrtd:ucrtbased.dll
 0002:0000018c       __imp____p___argv          0042318c     ucrtd:ucrtbased.dll
 0002:00000190       __imp____p___argc          00423190     ucrtd:ucrtbased.dll
 0002:00000194       __imp___set_fmode          00423194     ucrtd:ucrtbased.dll
 0002:00000198       __imp___exit               00423198     ucrtd:ucrtbased.dll
 0002:0000019c       __imp__exit                0042319c     ucrtd:ucrtbased.dll
 0002:000001a0       __imp___initterm_e         004231a0     ucrtd:ucrtbased.dll
 0002:000001a4       __imp___initterm           004231a4     ucrtd:ucrtbased.dll
 0002:000001a8       __imp___get_initial_narrow_environment 004231a8     ucrtd:ucrtbased.dll
 0002:000001ac       __imp___register_thread_local_exe_atexit_callback 004231ac     ucrtd:ucrtbased.dll
 0002:000001b0       __imp___configure_narrow_argv 004231b0     ucrtd:ucrtbased.dll
 0002:000001b4       __imp____setusermatherr    004231b4     ucrtd:ucrtbased.dll
 0002:000001b8       __imp___set_app_type       004231b8     ucrtd:ucrtbased.dll
 0002:000001bc       __imp___seh_filter_exe     004231bc     ucrtd:ucrtbased.dll
 0002:000001c0       __imp__malloc              004231c0     ucrtd:ucrtbased.dll
 0002:000001c4       __imp___callnewh           004231c4     ucrtd:ucrtbased.dll
 0002:000001c8       __imp___malloc_dbg         004231c8     ucrtd:ucrtbased.dll
 0002:000001cc       __imp___free_dbg           004231cc     ucrtd:ucrtbased.dll
 0002:000001d0       __imp____stdio_common_vsscanf 004231d0     ucrtd:ucrtbased.dll
 0002:000001d4       __imp___configthreadlocale 004231d4     ucrtd:ucrtbased.dll
 0002:000001d8       __imp___set_new_mode       004231d8     ucrtd:ucrtbased.dll
 0002:000001dc       __imp____p__commode        004231dc     ucrtd:ucrtbased.dll
 0002:000001e0       __imp___seh_filter_dll     004231e0     ucrtd:ucrtbased.dll
 0002:000001e4       __imp___initialize_onexit_table 004231e4     ucrtd:ucrtbased.dll
 0002:000001e8       __imp___register_onexit_function 004231e8     ucrtd:ucrtbased.dll
 0002:000001ec       __imp___execute_onexit_table 004231ec     ucrtd:ucrtbased.dll
 0002:000001f0       __imp___crt_atexit         004231f0     ucrtd:ucrtbased.dll
 0002:000001f4       __imp___crt_at_quick_exit  004231f4     ucrtd:ucrtbased.dll
 0002:000001f8       __imp___controlfp_s        004231f8     ucrtd:ucrtbased.dll
 0002:000001fc       __imp__strtol              004231fc     ucrtd:ucrtbased.dll
 0002:00000200       __imp__terminate           00423200     ucrtd:ucrtbased.dll
 0002:00000204       __imp___initialize_narrow_environment 00423204     ucrtd:ucrtbased.dll
 0002:00000208       __imp___invalid_parameter  00423208     ucrtd:ucrtbased.dll
 0002:0000020c       __imp__strlen              0042320c     ucrtd:ucrtbased.dll
 0002:00000210       __imp___CrtDbgReportW      00423210     ucrtd:ucrtbased.dll
 0002:00000214       __imp___errno              00423214     ucrtd:ucrtbased.dll
 0002:00000218       __imp____stdio_common_vfprintf 00423218     ucrtd:ucrtbased.dll
 0002:0000021c       __imp___kbhit              0042321c     ucrtd:ucrtbased.dll
 0002:00000220       __imp____acrt_iob_func     00423220     ucrtd:ucrtbased.dll
 0002:00000224       \177ucrtbased_NULL_THUNK_DATA 00423224     ucrtd:ucrtbased.dll
 0002:00000228       __imp__XsMath_pt5          00423228     xstypes32:xstypes32.dll
 0002:0000022c       __imp__XsMath_minusPt5     0042322c     xstypes32:xstypes32.dll
 0002:00000230       __imp__XsMath_one          00423230     xstypes32:xstypes32.dll
 0002:00000234       __imp__XsMath_minusOne     00423234     xstypes32:xstypes32.dll
 0002:00000238       __imp__XsMath_two          00423238     xstypes32:xstypes32.dll
 0002:0000023c       __imp__XsMath_four         0042323c     xstypes32:xstypes32.dll
 0002:00000240       __imp__XsMath_minusTwo     00423240     xstypes32:xstypes32.dll
 0002:00000244       __imp__XsMath_minusHalfPi  00423244     xstypes32:xstypes32.dll
 0002:00000248       __imp__XsMath_halfPi       00423248     xstypes32:xstypes32.dll
 0002:0000024c       __imp__XsMath_twoPi        0042324c     xstypes32:xstypes32.dll
 0002:00000250       __imp__XsMath_sqrt2        00423250     xstypes32:xstypes32.dll
 0002:00000254       __imp__XsMath_sqrtHalf     00423254     xstypes32:xstypes32.dll
 0002:00000258       __imp__XsMath_infinity     00423258     xstypes32:xstypes32.dll
 0002:0000025c       __imp__g_xsByteArrayDescriptor 0042325c     xstypes32:xstypes32.dll
 0002:00000260       __imp__XsQuaternion_fromEulerAngles 00423260     xstypes32:xstypes32.dll
 0002:00000264       __imp__XsEuler_fromQuaternion 00423264     xstypes32:xstypes32.dll
 0002:00000268       __imp__XsArray_construct   00423268     xstypes32:xstypes32.dll
 0002:0000026c       __imp__XsString_assign     0042326c     xstypes32:xstypes32.dll
 0002:00000270       __imp__XsTime_msleep       00423270     xstypes32:xstypes32.dll
 0002:00000274       __imp__g_xsStringDescriptor 00423274     xstypes32:xstypes32.dll
 0002:00000278       __imp__XsTime_secPerDay    00423278     xstypes32:xstypes32.dll
 0002:0000027c       __imp__XsTime_milliSecPerDay 0042327c     xstypes32:xstypes32.dll
 0002:00000280       __imp__XsTime_timeStampMax 00423280     xstypes32:xstypes32.dll
 0002:00000284       __imp__XsArray_destruct    00423284     xstypes32:xstypes32.dll
 0002:00000288       __imp__XsArray_resize      00423288     xstypes32:xstypes32.dll
 0002:0000028c       __imp__XsArray_copy        0042328c     xstypes32:xstypes32.dll
 0002:00000290       __imp__XsSocket_create     00423290     xstypes32:xstypes32.dll
 0002:00000294       __imp__XsSocket_destroy    00423294     xstypes32:xstypes32.dll
 0002:00000298       __imp__XsSocket_read       00423298     xstypes32:xstypes32.dll
 0002:0000029c       __imp__XsSocket_allocate   0042329c     xstypes32:xstypes32.dll
 0002:000002a0       __imp__XsSocket_free       004232a0     xstypes32:xstypes32.dll
 0002:000002a4       __imp__XsSocket_bind       004232a4     xstypes32:xstypes32.dll
 0002:000002a8       __imp__XsMath_rad2deg      004232a8     xstypes32:xstypes32.dll
 0002:000002ac       __imp__XsMath_pt25         004232ac     xstypes32:xstypes32.dll
 0002:000002b0       __imp__XsMath_zero         004232b0     xstypes32:xstypes32.dll
 0002:000002b4       __imp__XsMath_deg2radValue 004232b4     xstypes32:xstypes32.dll
 0002:000002b8       __imp__XsMath_rad2degValue 004232b8     xstypes32:xstypes32.dll
 0002:000002bc       __imp__XsMath_sqrtDenormalized 004232bc     xstypes32:xstypes32.dll
 0002:000002c0       __imp__XsMath_denormalized 004232c0     xstypes32:xstypes32.dll
 0002:000002c4       __imp__XsMath_sqrtEpsilon  004232c4     xstypes32:xstypes32.dll
 0002:000002c8       __imp__XsMath_epsilon      004232c8     xstypes32:xstypes32.dll
 0002:000002cc       __imp__XsMath_hugeValue    004232cc     xstypes32:xstypes32.dll
 0002:000002d0       __imp__XsMath_tinyValue    004232d0     xstypes32:xstypes32.dll
 0002:000002d4       __imp__XsMath_pi           004232d4     xstypes32:xstypes32.dll
 0002:000002d8       __imp__XsMath_e            004232d8     xstypes32:xstypes32.dll
 0002:000002dc       \177xstypes32_NULL_THUNK_DATA 004232dc     xstypes32:xstypes32.dll
 0002:000002e0       ___guard_check_icall_fptr  004232e0     MSVCRTD:guard_support.obj
 0002:000002e4       ___xc_a                    004232e4     MSVCRTD:initializers.obj
 0002:00000434       ___xc_z                    00423434     MSVCRTD:initializers.obj
 0002:00000438       ___xi_a                    00423438     MSVCRTD:initializers.obj
 0002:00000444       ___xi_z                    00423444     MSVCRTD:initializers.obj
 0002:00000448       ___xp_a                    00423448     MSVCRTD:initializers.obj
 0002:0000044c       ___xp_z                    0042344c     MSVCRTD:initializers.obj
 0002:00000450       ___xt_a                    00423450     MSVCRTD:initializers.obj
 0002:00000454       ___xt_z                    00423454     MSVCRTD:initializers.obj
 0002:00000558       ??_C@_1NC@BCCBOEFF@?$AAc?$AA?3?$AA?2?$AAp?$AAr?$AAo?$AAg?$AAr?$AAa?$AAm?$AA?5?$AAf?$AAi?$AAl?$AAe?$AAs?$AA?5?$AA?$CI?$AAx?$AA8?$AA6?$AA?$CJ?$AA?2?$AAm?$AAi?$AAc?$AAr?$AAo?$AAs?$AAo?$AAf?$AAt@ 00423558     angularsegmentkinematicsdatagram.obj
 0002:00000630       ??_C@_1EK@NIFDJFDG@?$AAs?$AAt?$AAd?$AA?3?$AA?3?$AA_?$AAA?$AAd?$AAj?$AAu?$AAs?$AAt?$AA_?$AAm?$AAa?$AAn?$AAu?$AAa?$AAl?$AAl?$AAy?$AA_?$AAv?$AAe?$AAc?$AAt?$AAo?$AAr?$AA_?$AAa?$AAl?$AAi@ 00423630     angularsegmentkinematicsdatagram.obj
 0002:0000067c       ??_C@_1CG@JNLFBNGN@?$AA?$CC?$AAi?$AAn?$AAv?$AAa?$AAl?$AAi?$AAd?$AA?5?$AAa?$AAr?$AAg?$AAu?$AAm?$AAe?$AAn?$AAt?$AA?$CC?$AA?$AA@ 0042367c     angularsegmentkinematicsdatagram.obj
 0002:000006a8       ??_7AngularSegmentKinematicsDatagram@@6B@ 004236a8     angularsegmentkinematicsdatagram.obj
 0002:000006b4       ??_C@_0BM@NMJKDPPO@invalid?5vector?$DMT?$DO?5subscript?$AA@ 004236b4     angularsegmentkinematicsdatagram.obj
 0002:000006d0       ??_C@_0BD@OLBABOEK@vector?$DMT?$DO?5too?5long?$AA@ 004236d0     angularsegmentkinematicsdatagram.obj
 0002:000006e4       ??_C@_0BE@LMNLACIC@_Ptr_container?5?$CB?$DN?50?$AA@ 004236e4     angularsegmentkinematicsdatagram.obj
 0002:000006f8       ??_C@_1DG@HGDKEBPG@?$AA?$CC?$AA_?$AAP?$AAt?$AAr?$AA_?$AAc?$AAo?$AAn?$AAt?$AAa?$AAi?$AAn?$AAe?$AAr?$AA?5?$AA?$CB?$AA?$DN?$AA?5?$AA0?$AA?$CC?$AA?5?$AA?$CG?$AA?$CG?$AA?5?$AA0?$AA?$AA@ 004236f8     angularsegmentkinematicsdatagram.obj
 0002:00000730       ??_C@_17CNPHIMPH@?$AA?$CF?$AAl?$AAs?$AA?$AA@ 00423730     angularsegmentkinematicsdatagram.obj
 0002:00000738       ??_C@_1EO@GFNCMDLA@?$AAs?$AAt?$AAd?$AA?3?$AA?3?$AA_?$AAA?$AAl?$AAl?$AAo?$AAc?$AAa?$AAt?$AAe?$AA_?$AAm?$AAa?$AAn?$AAu?$AAa?$AAl?$AAl?$AAy?$AA_?$AAv?$AAe?$AAc?$AAt?$AAo?$AAr?$AA_?$AAa@ 00423738     angularsegmentkinematicsdatagram.obj
 0002:000007fc       ??_7CenterOfMassDatagram@@6B@ 004237fc     centerofmassdatagram.obj
 0002:00000808       ?EULERPOSITIONSCALE@Datagram@@1MB 00423808     datagram.obj
 0002:000009f8       ??_7exception@std@@6B@     004239f8     datagram.obj
 0002:00000a00       ??_C@_0BC@EOODALEL@Unknown?5exception?$AA@ 00423a00     datagram.obj
 0002:00000a18       ??_C@_1NC@OPMKDBPG@?$AAc?$AA?3?$AA?2?$AAp?$AAr?$AAo?$AAg?$AAr?$AAa?$AAm?$AA?5?$AAf?$AAi?$AAl?$AAe?$AAs?$AA?5?$AA?$CI?$AAx?$AA8?$AA6?$AA?$CJ?$AA?2?$AAm?$AAi?$AAc?$AAr?$AAo?$AAs?$AAo?$AAf?$AAt@ 00423a18     datagram.obj
 0002:00000aec       ??_C@_1DC@POOIKBAO@?$AAI?$AAT?$AAE?$AAR?$AAA?$AAT?$AAO?$AAR?$AA?5?$AAL?$AAI?$AAS?$AAT?$AA?5?$AAC?$AAO?$AAR?$AAR?$AAU?$AAP?$AAT?$AAE?$AAD?$AA?$CB?$AA?$AA@ 00423aec     datagram.obj
 0002:00000b20       ??_C@_1EE@KLDMFDFL@?$AAs?$AAt?$AAd?$AA?3?$AA?3?$AA_?$AAI?$AAt?$AAe?$AAr?$AAa?$AAt?$AAo?$AAr?$AA_?$AAb?$AAa?$AAs?$AAe?$AA1?$AA2?$AA?3?$AA?3?$AA_?$AAO?$AAr?$AAp?$AAh?$AAa?$AAn?$AA_?$AAm@ 00423b20     datagram.obj
 0002:00000b64       ??_C@_1DG@PLBPCAEM@?$AA?$CC?$AAI?$AAT?$AAE?$AAR?$AAA?$AAT?$AAO?$AAR?$AA?5?$AAL?$AAI?$AAS?$AAT?$AA?5?$AAC?$AAO?$AAR?$AAR?$AAU?$AAP?$AAT?$AAE?$AAD?$AA?$CB?$AA?$CC?$AA?$AA@ 00423b64     datagram.obj
 0002:00000ba0       ??_7bad_cast@std@@6B@      00423ba0     datagram.obj
 0002:00000ba8       ??_C@_08EPJLHIJG@bad?5cast?$AA@ 00423ba8     datagram.obj
 0002:00000bb4       ??_C@_0BG@HGEDEDEC@invalid?5stoi?5argument?$AA@ 00423bb4     datagram.obj
 0002:00000bcc       ??_C@_0BL@MFFNMGGC@stoi?5argument?5out?5of?5range?$AA@ 00423bcc     datagram.obj
 0002:00000bec       ??_7Datagram@@6B@          00423bec     datagram.obj
 0002:00000bf8       ??_7?$basic_stringbuf@DU?$char_traits@D@std@@V?$allocator@D@2@@std@@6B@ 00423bf8     datagram.obj
 0002:00000c38       ??_7?$basic_stringstream@DU?$char_traits@D@std@@V?$allocator@D@2@@std@@6B@ 00423c38     datagram.obj
 0002:00000c3c       ??_8?$basic_stringstream@DU?$char_traits@D@std@@V?$allocator@D@2@@std@@7B?$basic_istream@DU?$char_traits@D@std@@@1@@ 00423c3c     datagram.obj
 0002:00000c44       ??_8?$basic_stringstream@DU?$char_traits@D@std@@V?$allocator@D@2@@std@@7B?$basic_ostream@DU?$char_traits@D@std@@@1@@ 00423c44     datagram.obj
 0002:00000c50       ??_C@_1MM@KGLOHGEF@?$AAc?$AA?3?$AA?2?$AAp?$AAr?$AAo?$AAg?$AAr?$AAa?$AAm?$AA?5?$AAf?$AAi?$AAl?$AAe?$AAs?$AA?5?$AA?$CI?$AAx?$AA8?$AA6?$AA?$CJ?$AA?2?$AAm?$AAi?$AAc?$AAr?$AAo?$AAs?$AAo?$AAf?$AAt@ 00423c50     datagram.obj
 0002:00000d1c       ??_C@_1DO@CFEEPGGJ@?$AAm?$AAa?$AAp?$AA?1?$AAs?$AAe?$AAt?$AA?5?$AAi?$AAt?$AAe?$AAr?$AAa?$AAt?$AAo?$AAr?$AAs?$AA?5?$AAi?$AAn?$AAc?$AAo?$AAm?$AAp?$AAa?$AAt?$AAi?$AAb?$AAl?$AAe?$AA?$AA@ 00423d1c     datagram.obj
 0002:00000d60       ??_C@_1BKO@LHPHCJMM@?$AAs?$AAt?$AAd?$AA?3?$AA?3?$AA_?$AAT?$AAr?$AAe?$AAe?$AA_?$AAc?$AAo?$AAn?$AAs?$AAt?$AA_?$AAi?$AAt?$AAe?$AAr?$AAa?$AAt?$AAo?$AAr?$AA?$DM?$AAc?$AAl?$AAa?$AAs?$AAs?$AA?5@ 00423d60     datagram.obj
 0002:00000f10       ??_C@_1EC@JLIDLCDH@?$AA?$CC?$AAm?$AAa?$AAp?$AA?1?$AAs?$AAe?$AAt?$AA?5?$AAi?$AAt?$AAe?$AAr?$AAa?$AAt?$AAo?$AAr?$AAs?$AA?5?$AAi?$AAn?$AAc?$AAo?$AAm?$AAp?$AAa?$AAt?$AAi?$AAb?$AAl?$AAe?$AA?$CC@ 00423f10     datagram.obj
 0002:00000f58       ??_C@_1EI@FHEHNNNM@?$AAm?$AAa?$AAp?$AA?1?$AAs?$AAe?$AAt?$AA?5?$AAi?$AAt?$AAe?$AAr?$AAa?$AAt?$AAo?$AAr?$AA?5?$AAn?$AAo?$AAt?$AA?5?$AAd?$AAe?$AAr?$AAe?$AAf?$AAe?$AAr?$AAe?$AAn?$AAc?$AAa@ 00423f58     datagram.obj
 0002:00000fa0       ??_C@_1BKM@NHEBIPM@?$AAs?$AAt?$AAd?$AA?3?$AA?3?$AA_?$AAT?$AAr?$AAe?$AAe?$AA_?$AAc?$AAo?$AAn?$AAs?$AAt?$AA_?$AAi?$AAt?$AAe?$AAr?$AAa?$AAt?$AAo?$AAr?$AA?$DM?$AAc?$AAl?$AAa?$AAs?$AAs?$AA?5@ 00423fa0     datagram.obj
 0002:00001150       ??_C@_1EM@KEKCOCNI@?$AA?$CC?$AAm?$AAa?$AAp?$AA?1?$AAs?$AAe?$AAt?$AA?5?$AAi?$AAt?$AAe?$AAr?$AAa?$AAt?$AAo?$AAr?$AA?5?$AAn?$AAo?$AAt?$AA?5?$AAd?$AAe?$AAr?$AAe?$AAf?$AAe?$AAr?$AAe?$AAn?$AAc@ 00424150     datagram.obj
 0002:000011a0       ??_C@_1EK@PPDBPCAN@?$AAm?$AAa?$AAp?$AA?1?$AAs?$AAe?$AAt?$AA?5?$AAe?$AAr?$AAa?$AAs?$AAe?$AA?5?$AAi?$AAt?$AAe?$AAr?$AAa?$AAt?$AAo?$AAr?$AA?5?$AAo?$AAu?$AAt?$AAs?$AAi?$AAd?$AAe?$AA?5?$AAr@ 004241a0     datagram.obj
 0002:000011f0       ??_C@_1CFM@PAAINOIF@?$AAs?$AAt?$AAd?$AA?3?$AA?3?$AA_?$AAT?$AAr?$AAe?$AAe?$AA?$DM?$AAc?$AAl?$AAa?$AAs?$AAs?$AA?5?$AAs?$AAt?$AAd?$AA?3?$AA?3?$AA_?$AAT?$AAm?$AAa?$AAp?$AA_?$AAt?$AAr?$AAa?$AAi@ 004241f0     datagram.obj
 0002:00001450       ??_C@_1EO@CEDAEPC@?$AA?$CC?$AAm?$AAa?$AAp?$AA?1?$AAs?$AAe?$AAt?$AA?5?$AAe?$AAr?$AAa?$AAs?$AAe?$AA?5?$AAi?$AAt?$AAe?$AAr?$AAa?$AAt?$AAo?$AAr?$AA?5?$AAo?$AAu?$AAt?$AAs?$AAi?$AAd?$AAe?$AA?5@ 00424450     datagram.obj
 0002:000014a0       ??_C@_1EG@EHJFMBHJ@?$AAm?$AAa?$AAp?$AA?1?$AAs?$AAe?$AAt?$AA?5?$AAi?$AAt?$AAe?$AAr?$AAa?$AAt?$AAo?$AAr?$AA?5?$AAn?$AAo?$AAt?$AA?5?$AAi?$AAn?$AAc?$AAr?$AAe?$AAm?$AAe?$AAn?$AAt?$AAa?$AAb@ 004244a0     datagram.obj
 0002:000014e8       ??_C@_1BKO@BHAKMAAJ@?$AAs?$AAt?$AAd?$AA?3?$AA?3?$AA_?$AAT?$AAr?$AAe?$AAe?$AA_?$AAc?$AAo?$AAn?$AAs?$AAt?$AA_?$AAi?$AAt?$AAe?$AAr?$AAa?$AAt?$AAo?$AAr?$AA?$DM?$AAc?$AAl?$AAa?$AAs?$AAs?$AA?5@ 004244e8     datagram.obj
 0002:00001698       ??_C@_1EK@BCPDGOMC@?$AA?$CC?$AAm?$AAa?$AAp?$AA?1?$AAs?$AAe?$AAt?$AA?5?$AAi?$AAt?$AAe?$AAr?$AAa?$AAt?$AAo?$AAr?$AA?5?$AAn?$AAo?$AAt?$AA?5?$AAi?$AAn?$AAc?$AAr?$AAe?$AAm?$AAe?$AAn?$AAt?$AAa@ 00424698     datagram.obj
 0002:000016e8       ??_C@_1BGE@LHIDFCKF@?$AAs?$AAt?$AAd?$AA?3?$AA?3?$AA_?$AAT?$AAr?$AAe?$AAe?$AA_?$AAv?$AAa?$AAl?$AA?$DM?$AAs?$AAt?$AAr?$AAu?$AAc?$AAt?$AA?5?$AAs?$AAt?$AAd?$AA?3?$AA?3?$AA_?$AAT?$AAr?$AAe?$AAe@ 004246e8     datagram.obj
 0002:0000184c       ??_C@_0BI@CFPLBAOH@invalid?5string?5position?$AA@ 0042484c     datagram.obj
 0002:00001864       ??_C@_1CG@LEJCKCBB@?$AAi?$AAn?$AAv?$AAa?$AAl?$AAi?$AAd?$AA?5?$AAc?$AAo?$AAm?$AAp?$AAa?$AAr?$AAa?$AAt?$AAo?$AAr?$AA?$AA@ 00424864     datagram.obj
 0002:0000188c       ??_C@_1CI@JONCLBEJ@?$AAs?$AAt?$AAd?$AA?3?$AA?3?$AA_?$AAD?$AAe?$AAb?$AAu?$AAg?$AA_?$AAl?$AAt?$AA_?$AAp?$AAr?$AAe?$AAd?$AA?$AA@ 0042488c     datagram.obj
 0002:000018b4       ??_C@_1CK@NDNHPKPI@?$AA?$CC?$AAi?$AAn?$AAv?$AAa?$AAl?$AAi?$AAd?$AA?5?$AAc?$AAo?$AAm?$AAp?$AAa?$AAr?$AAa?$AAt?$AAo?$AAr?$AA?$CC?$AA?$AA@ 004248b4     datagram.obj
 0002:000018e0       ??_C@_0BA@JFNIOLAK@string?5too?5long?$AA@ 004248e0     datagram.obj
 0002:000018f0       ??_C@_1MI@GHHFAAMD@?$AAc?$AA?3?$AA?2?$AAp?$AAr?$AAo?$AAg?$AAr?$AAa?$AAm?$AA?5?$AAf?$AAi?$AAl?$AAe?$AAs?$AA?5?$AA?$CI?$AAx?$AA8?$AA6?$AA?$CJ?$AA?2?$AAm?$AAi?$AAc?$AAr?$AAo?$AAs?$AAo?$AAf?$AAt@ 004248f0     datagram.obj
 0002:000019b8       ??_C@_1EM@MHOKKPFH@?$AAm?$AAa?$AAp?$AA?1?$AAs?$AAe?$AAt?$AA?5?$AAi?$AAn?$AAs?$AAe?$AAr?$AAt?$AA?5?$AAi?$AAt?$AAe?$AAr?$AAa?$AAt?$AAo?$AAr?$AA?5?$AAo?$AAu?$AAt?$AAs?$AAi?$AAd?$AAe?$AA?5@ 004249b8     datagram.obj
 0002:00001a08       ??_C@_1CGK@FHBEMGOM@?$AAs?$AAt?$AAd?$AA?3?$AA?3?$AA_?$AAT?$AAr?$AAe?$AAe?$AA?$DM?$AAc?$AAl?$AAa?$AAs?$AAs?$AA?5?$AAs?$AAt?$AAd?$AA?3?$AA?3?$AA_?$AAT?$AAm?$AAa?$AAp?$AA_?$AAt?$AAr?$AAa?$AAi@ 00424a08     datagram.obj
 0002:00001c78       ??_C@_1FA@HNFOKDLB@?$AA?$CC?$AAm?$AAa?$AAp?$AA?1?$AAs?$AAe?$AAt?$AA?5?$AAi?$AAn?$AAs?$AAe?$AAr?$AAt?$AA?5?$AAi?$AAt?$AAe?$AAr?$AAa?$AAt?$AAo?$AAr?$AA?5?$AAo?$AAu?$AAt?$AAs?$AAi?$AAd?$AAe@ 00424c78     datagram.obj
 0002:00001cc8       ??_C@_1EG@OKCGOALM@?$AAm?$AAa?$AAp?$AA?1?$AAs?$AAe?$AAt?$AA?5?$AAi?$AAt?$AAe?$AAr?$AAa?$AAt?$AAo?$AAr?$AA?5?$AAn?$AAo?$AAt?$AA?5?$AAd?$AAe?$AAc?$AAr?$AAe?$AAm?$AAe?$AAn?$AAt?$AAa?$AAb@ 00424cc8     datagram.obj
 0002:00001d10       ??_C@_1BKO@OEDIHMMI@?$AAs?$AAt?$AAd?$AA?3?$AA?3?$AA_?$AAT?$AAr?$AAe?$AAe?$AA_?$AAc?$AAo?$AAn?$AAs?$AAt?$AA_?$AAi?$AAt?$AAe?$AAr?$AAa?$AAt?$AAo?$AAr?$AA?$DM?$AAc?$AAl?$AAa?$AAs?$AAs?$AA?5@ 00424d10     datagram.obj
 0002:00001ec0       ??_C@_1EK@OIBHPACE@?$AA?$CC?$AAm?$AAa?$AAp?$AA?1?$AAs?$AAe?$AAt?$AA?5?$AAi?$AAt?$AAe?$AAr?$AAa?$AAt?$AAo?$AAr?$AA?5?$AAn?$AAo?$AAt?$AA?5?$AAd?$AAe?$AAc?$AAr?$AAe?$AAm?$AAe?$AAn?$AAt?$AAa@ 00424ec0     datagram.obj
 0002:00001f0c       ??_C@_0BE@JONHPENG@map?1set?$DMT?$DO?5too?5long?$AA@ 00424f0c     datagram.obj
 0002:00001fd4       ??_7EulerDatagram@@6B@     00424fd4     eulerdatagram.obj
 0002:000020b8       ??_7JointAnglesDatagram@@6B@ 004250b8     jointanglesdatagram.obj
 0002:000021ac       ??_7LinearSegmentKinematicsDatagram@@6B@ 004251ac     linearsegmentkinematicsdatagram.obj
 0002:00002268       ??_7MetaDatagram@@6B@      00425268     metadatagram.obj
 0002:00002278       ??_C@_1MO@HAJOKNPG@?$AAc?$AA?3?$AA?2?$AAp?$AAr?$AAo?$AAg?$AAr?$AAa?$AAm?$AA?5?$AAf?$AAi?$AAl?$AAe?$AAs?$AA?5?$AA?$CI?$AAx?$AA8?$AA6?$AA?$CJ?$AA?2?$AAm?$AAi?$AAc?$AAr?$AAo?$AAs?$AAo?$AAf?$AAt@ 00425278     metadatagram.obj
 0002:00002348       ??_C@_1DM@LHGCHCBA@?$AAv?$AAe?$AAc?$AAt?$AAo?$AAr?$AA?5?$AAs?$AAu?$AAb?$AAs?$AAc?$AAr?$AAi?$AAp?$AAt?$AA?5?$AAo?$AAu?$AAt?$AA?5?$AAo?$AAf?$AA?5?$AAr?$AAa?$AAn?$AAg?$AAe?$AA?$AA@ 00425348     metadatagram.obj
 0002:00002388       ??_C@_1BME@NCIPHHDN@?$AAs?$AAt?$AAd?$AA?3?$AA?3?$AAv?$AAe?$AAc?$AAt?$AAo?$AAr?$AA?$DM?$AAc?$AAl?$AAa?$AAs?$AAs?$AA?5?$AAs?$AAt?$AAd?$AA?3?$AA?3?$AAb?$AAa?$AAs?$AAi?$AAc?$AA_?$AAs?$AAt?$AAr@ 00425388     metadatagram.obj
 0002:00002550       ??_C@_1EA@LEKOKFNB@?$AA?$CC?$AAv?$AAe?$AAc?$AAt?$AAo?$AAr?$AA?5?$AAs?$AAu?$AAb?$AAs?$AAc?$AAr?$AAi?$AAp?$AAt?$AA?5?$AAo?$AAu?$AAt?$AA?5?$AAo?$AAf?$AA?5?$AAr?$AAa?$AAn?$AAg?$AAe?$AA?$CC?$AA?$AA@ 00425550     metadatagram.obj
 0002:00002590       ??_C@_1NA@DFGHBIGI@?$AAc?$AA?3?$AA?2?$AAp?$AAr?$AAo?$AAg?$AAr?$AAa?$AAm?$AA?5?$AAf?$AAi?$AAl?$AAe?$AAs?$AA?5?$AA?$CI?$AAx?$AA8?$AA6?$AA?$CJ?$AA?2?$AAm?$AAi?$AAc?$AAr?$AAo?$AAs?$AAo?$AAf?$AAt@ 00425590     metadatagram.obj
 0002:00002660       ??_C@_1CFG@FGJHCIBH@?$AAs?$AAt?$AAd?$AA?3?$AA?3?$AA_?$AAT?$AAr?$AAe?$AAe?$AA_?$AAc?$AAo?$AAn?$AAs?$AAt?$AA_?$AAi?$AAt?$AAe?$AAr?$AAa?$AAt?$AAo?$AAr?$AA?$DM?$AAc?$AAl?$AAa?$AAs?$AAs?$AA?5@ 00425660     metadatagram.obj
 0002:000028b8       ??_C@_1CFE@PPLBLEGL@?$AAs?$AAt?$AAd?$AA?3?$AA?3?$AA_?$AAT?$AAr?$AAe?$AAe?$AA_?$AAc?$AAo?$AAn?$AAs?$AAt?$AA_?$AAi?$AAt?$AAe?$AAr?$AAa?$AAt?$AAo?$AAr?$AA?$DM?$AAc?$AAl?$AAa?$AAs?$AAs?$AA?5@ 004258b8     metadatagram.obj
 0002:00002b10       ??_C@_1EFG@HPDNAECC@?$AAs?$AAt?$AAd?$AA?3?$AA?3?$AA_?$AAT?$AAr?$AAe?$AAe?$AA?$DM?$AAc?$AAl?$AAa?$AAs?$AAs?$AA?5?$AAs?$AAt?$AAd?$AA?3?$AA?3?$AA_?$AAT?$AAm?$AAa?$AAp?$AA_?$AAt?$AAr?$AAa?$AAi@ 00425b10     metadatagram.obj
 0002:00002f68       ??_C@_1CFG@PGGKMBNC@?$AAs?$AAt?$AAd?$AA?3?$AA?3?$AA_?$AAT?$AAr?$AAe?$AAe?$AA_?$AAc?$AAo?$AAn?$AAs?$AAt?$AA_?$AAi?$AAt?$AAe?$AAr?$AAa?$AAt?$AAo?$AAr?$AA?$DM?$AAc?$AAl?$AAa?$AAs?$AAs?$AA?5@ 00425f68     metadatagram.obj
 0002:000031c0       ??_C@_1CAM@NGLDEJOH@?$AAs?$AAt?$AAd?$AA?3?$AA?3?$AA_?$AAT?$AAr?$AAe?$AAe?$AA_?$AAv?$AAa?$AAl?$AA?$DM?$AAs?$AAt?$AAr?$AAu?$AAc?$AAt?$AA?5?$AAs?$AAt?$AAd?$AA?3?$AA?3?$AA_?$AAT?$AAr?$AAe?$AAe@ 004261c0     metadatagram.obj
 0002:000033cc       ??_C@_1CO@DGLIKNHI@?$AAi?$AAn?$AAv?$AAa?$AAl?$AAi?$AAd?$AA?5?$AAi?$AAt?$AAe?$AAr?$AAa?$AAt?$AAo?$AAr?$AA?5?$AAr?$AAa?$AAn?$AAg?$AAe?$AA?$AA@ 004263cc     metadatagram.obj
 0002:000033fc       ??_C@_1CG@MDICLDJA@?$AAs?$AAt?$AAd?$AA?3?$AA?3?$AA_?$AAD?$AAe?$AAb?$AAu?$AAg?$AA_?$AAr?$AAa?$AAn?$AAg?$AAe?$AA2?$AA?$AA@ 004263fc     metadatagram.obj
 0002:00003424       ??_C@_1DC@CHPPODDE@?$AA?$CC?$AAi?$AAn?$AAv?$AAa?$AAl?$AAi?$AAd?$AA?5?$AAi?$AAt?$AAe?$AAr?$AAa?$AAt?$AAo?$AAr?$AA?5?$AAr?$AAa?$AAn?$AAg?$AAe?$AA?$CC?$AA?$AA@ 00426424     metadatagram.obj
 0002:00003458       ??_C@_1CFG@FFIHNBD@?$AAs?$AAt?$AAd?$AA?3?$AA?3?$AA_?$AAT?$AAr?$AAe?$AAe?$AA_?$AAc?$AAo?$AAn?$AAs?$AAt?$AA_?$AAi?$AAt?$AAe?$AAr?$AAa?$AAt?$AAo?$AAr?$AA?$DM?$AAc?$AAl?$AAa?$AAs?$AAs?$AA?5@ 00426458     metadatagram.obj
 0002:00003750       ??_7PositionDatagram@@6B@  00426750     positiondatagram.obj
 0002:00003820       ??_7QuaternionDatagram@@6B@ 00426820     quaterniondatagram.obj
 0002:00003940       ??_7ScaleDatagram@@6B@     00426940     scaledatagram.obj
 0002:000039a8       ??_7TimeCodeDatagram@@6B@  004269a8     timecodedatagram.obj
 0002:00003b14       ??_7TrackerKinematicsDatagram@@6B@ 00426b14     trackerkinematicsdatagram.obj
 0002:00003b74       ??_7bad_alloc@std@@6B@     00426b74     udpserver.obj
 0002:00003b7c       ??_C@_0P@GHFPNOJB@bad?5allocation?$AA@ 00426b7c     udpserver.obj
 0002:00003b8c       ??_C@_0CM@OKINAFCK@f?3?2dd?2vctools?2crt?2crtw32?2stdcpp?2@ 00426b8c     msvcprtd:locale0_implib.obj
 0002:00003bbc       ??_7type_info@@6B@         00426bbc     MSVCRTD:std_type_info_static.obj
 0002:00003bc4       ??_7bad_array_new_length@std@@6B@ 00426bc4     MSVCRTD:throw_bad_alloc.obj
 0002:00003bcc       ??_C@_0BF@KINCDENJ@bad?5array?5new?5length?$AA@ 00426bcc     MSVCRTD:throw_bad_alloc.obj
 0002:00003c48       __load_config_used         00426c48     MSVCRTD:loadcfg.obj
 0002:00003ce8       ??_R4AngularSegmentKinematicsDatagram@@6B@ 00426ce8     angularsegmentkinematicsdatagram.obj
 0002:00003cfc       ??_R3AngularSegmentKinematicsDatagram@@8 00426cfc     angularsegmentkinematicsdatagram.obj
 0002:00003d0c       ??_R2AngularSegmentKinematicsDatagram@@8 00426d0c     angularsegmentkinematicsdatagram.obj
 0002:00003d18       ??_R1A@?0A@EA@AngularSegmentKinematicsDatagram@@8 00426d18     angularsegmentkinematicsdatagram.obj
 0002:00003d34       ??_R1A@?0A@EA@Datagram@@8  00426d34     angularsegmentkinematicsdatagram.obj
 0002:00003d50       ??_R3Datagram@@8           00426d50     angularsegmentkinematicsdatagram.obj
 0002:00003d60       ??_R2Datagram@@8           00426d60     angularsegmentkinematicsdatagram.obj
 0002:00003d68       ??_R4CenterOfMassDatagram@@6B@ 00426d68     centerofmassdatagram.obj
 0002:00003d7c       ??_R3CenterOfMassDatagram@@8 00426d7c     centerofmassdatagram.obj
 0002:00003d8c       ??_R2CenterOfMassDatagram@@8 00426d8c     centerofmassdatagram.obj
 0002:00003d98       ??_R1A@?0A@EA@CenterOfMassDatagram@@8 00426d98     centerofmassdatagram.obj
 0002:00003db4       ??_R4exception@std@@6B@    00426db4     datagram.obj
 0002:00003dc8       ??_R3exception@std@@8      00426dc8     datagram.obj
 0002:00003dd8       ??_R2exception@std@@8      00426dd8     datagram.obj
 0002:00003de0       ??_R1A@?0A@EA@exception@std@@8 00426de0     datagram.obj
 0002:00003dfc       ??_R4?$basic_stringbuf@DU?$char_traits@D@std@@V?$allocator@D@2@@std@@6B@ 00426dfc     datagram.obj
 0002:00003e10       ??_R3?$basic_stringbuf@DU?$char_traits@D@std@@V?$allocator@D@2@@std@@8 00426e10     datagram.obj
 0002:00003e20       ??_R2?$basic_stringbuf@DU?$char_traits@D@std@@V?$allocator@D@2@@std@@8 00426e20     datagram.obj
 0002:00003e2c       ??_R1A@?0A@EA@?$basic_stringbuf@DU?$char_traits@D@std@@V?$allocator@D@2@@std@@8 00426e2c     datagram.obj
 0002:00003e48       ??_R1A@?0A@EA@?$basic_streambuf@DU?$char_traits@D@std@@@std@@8 00426e48     datagram.obj
 0002:00003e64       ??_R3?$basic_streambuf@DU?$char_traits@D@std@@@std@@8 00426e64     datagram.obj
 0002:00003e74       ??_R2?$basic_streambuf@DU?$char_traits@D@std@@@std@@8 00426e74     datagram.obj
 0002:00003e7c       ??_R4?$basic_stringstream@DU?$char_traits@D@std@@V?$allocator@D@2@@std@@6B@ 00426e7c     datagram.obj
 0002:00003e90       ??_R3?$basic_stringstream@DU?$char_traits@D@std@@V?$allocator@D@2@@std@@8 00426e90     datagram.obj
 0002:00003ea0       ??_R2?$basic_stringstream@DU?$char_traits@D@std@@V?$allocator@D@2@@std@@8 00426ea0     datagram.obj
 0002:00003ecc       ??_R1A@?0A@EA@?$basic_stringstream@DU?$char_traits@D@std@@V?$allocator@D@2@@std@@8 00426ecc     datagram.obj
 0002:00003ee8       ??_R1A@?0A@EA@?$basic_iostream@DU?$char_traits@D@std@@@std@@8 00426ee8     datagram.obj
 0002:00003f04       ??_R3?$basic_iostream@DU?$char_traits@D@std@@@std@@8 00426f04     datagram.obj
 0002:00003f14       ??_R2?$basic_iostream@DU?$char_traits@D@std@@@std@@8 00426f14     datagram.obj
 0002:00003f3c       ??_R1A@?0A@EA@?$basic_istream@DU?$char_traits@D@std@@@std@@8 00426f3c     datagram.obj
 0002:00003f58       ??_R3?$basic_istream@DU?$char_traits@D@std@@@std@@8 00426f58     datagram.obj
 0002:00003f68       ??_R2?$basic_istream@DU?$char_traits@D@std@@@std@@8 00426f68     datagram.obj
 0002:00003f7c       ??_R1A@A@3FA@?$basic_ios@DU?$char_traits@D@std@@@std@@8 00426f7c     datagram.obj
 0002:00003f98       ??_R3?$basic_ios@DU?$char_traits@D@std@@@std@@8 00426f98     datagram.obj
 0002:00003fa8       ??_R2?$basic_ios@DU?$char_traits@D@std@@@std@@8 00426fa8     datagram.obj
 0002:00003fb8       ??_R1A@?0A@EA@?$basic_ios@DU?$char_traits@D@std@@@std@@8 00426fb8     datagram.obj
 0002:00003fd4       ??_R1A@?0A@EA@ios_base@std@@8 00426fd4     datagram.obj
 0002:00003ff0       ??_R3ios_base@std@@8       00426ff0     datagram.obj
 0002:00004000       ??_R2ios_base@std@@8       00427000     datagram.obj
 0002:0000400c       ??_R17?0A@EA@?$_Iosb@H@std@@8 0042700c     datagram.obj
 0002:00004028       ??_R3?$_Iosb@H@std@@8      00427028     datagram.obj
 0002:00004038       ??_R2?$_Iosb@H@std@@8      00427038     datagram.obj
 0002:00004040       ??_R1A@?0A@EA@?$_Iosb@H@std@@8 00427040     datagram.obj
 0002:0000405c       ??_R1A@A@3EA@ios_base@std@@8 0042705c     datagram.obj
 0002:00004078       ??_R17A@3EA@?$_Iosb@H@std@@8 00427078     datagram.obj
 0002:00004094       ??_R1BA@?0A@EA@?$basic_ostream@DU?$char_traits@D@std@@@std@@8 00427094     datagram.obj
 0002:000040b0       ??_R3?$basic_ostream@DU?$char_traits@D@std@@@std@@8 004270b0     datagram.obj
 0002:000040c0       ??_R2?$basic_ostream@DU?$char_traits@D@std@@@std@@8 004270c0     datagram.obj
 0002:000040d4       ??_R1A@?0A@EA@?$basic_ostream@DU?$char_traits@D@std@@@std@@8 004270d4     datagram.obj
 0002:000040f0       ??_R4bad_cast@std@@6B@     004270f0     datagram.obj
 0002:00004104       ??_R3bad_cast@std@@8       00427104     datagram.obj
 0002:00004114       ??_R2bad_cast@std@@8       00427114     datagram.obj
 0002:00004120       ??_R1A@?0A@EA@bad_cast@std@@8 00427120     datagram.obj
 0002:0000413c       ??_R4Datagram@@6B@         0042713c     datagram.obj
 0002:00004150       ??_R4EulerDatagram@@6B@    00427150     eulerdatagram.obj
 0002:00004164       ??_R3EulerDatagram@@8      00427164     eulerdatagram.obj
 0002:00004174       ??_R2EulerDatagram@@8      00427174     eulerdatagram.obj
 0002:00004180       ??_R1A@?0A@EA@EulerDatagram@@8 00427180     eulerdatagram.obj
 0002:0000419c       ??_R4JointAnglesDatagram@@6B@ 0042719c     jointanglesdatagram.obj
 0002:000041b0       ??_R3JointAnglesDatagram@@8 004271b0     jointanglesdatagram.obj
 0002:000041c0       ??_R2JointAnglesDatagram@@8 004271c0     jointanglesdatagram.obj
 0002:000041cc       ??_R1A@?0A@EA@JointAnglesDatagram@@8 004271cc     jointanglesdatagram.obj
 0002:000041e8       ??_R4LinearSegmentKinematicsDatagram@@6B@ 004271e8     linearsegmentkinematicsdatagram.obj
 0002:000041fc       ??_R3LinearSegmentKinematicsDatagram@@8 004271fc     linearsegmentkinematicsdatagram.obj
 0002:0000420c       ??_R2LinearSegmentKinematicsDatagram@@8 0042720c     linearsegmentkinematicsdatagram.obj
 0002:00004218       ??_R1A@?0A@EA@LinearSegmentKinematicsDatagram@@8 00427218     linearsegmentkinematicsdatagram.obj
 0002:00004234       ??_R4MetaDatagram@@6B@     00427234     metadatagram.obj
 0002:00004248       ??_R3MetaDatagram@@8       00427248     metadatagram.obj
 0002:00004258       ??_R2MetaDatagram@@8       00427258     metadatagram.obj
 0002:00004264       ??_R1A@?0A@EA@MetaDatagram@@8 00427264     metadatagram.obj
 0002:00004280       ??_R4PositionDatagram@@6B@ 00427280     positiondatagram.obj
 0002:00004294       ??_R3PositionDatagram@@8   00427294     positiondatagram.obj
 0002:000042a4       ??_R2PositionDatagram@@8   004272a4     positiondatagram.obj
 0002:000042b0       ??_R1A@?0A@EA@PositionDatagram@@8 004272b0     positiondatagram.obj
 0002:000042cc       ??_R4QuaternionDatagram@@6B@ 004272cc     quaterniondatagram.obj
 0002:000042e0       ??_R3QuaternionDatagram@@8 004272e0     quaterniondatagram.obj
 0002:000042f0       ??_R2QuaternionDatagram@@8 004272f0     quaterniondatagram.obj
 0002:000042fc       ??_R1A@?0A@EA@QuaternionDatagram@@8 004272fc     quaterniondatagram.obj
 0002:00004318       ??_R4ScaleDatagram@@6B@    00427318     scaledatagram.obj
 0002:0000432c       ??_R3ScaleDatagram@@8      0042732c     scaledatagram.obj
 0002:0000433c       ??_R2ScaleDatagram@@8      0042733c     scaledatagram.obj
 0002:00004348       ??_R1A@?0A@EA@ScaleDatagram@@8 00427348     scaledatagram.obj
 0002:00004364       ??_R4TimeCodeDatagram@@6B@ 00427364     timecodedatagram.obj
 0002:00004378       ??_R3TimeCodeDatagram@@8   00427378     timecodedatagram.obj
 0002:00004388       ??_R2TimeCodeDatagram@@8   00427388     timecodedatagram.obj
 0002:00004394       ??_R1A@?0A@EA@TimeCodeDatagram@@8 00427394     timecodedatagram.obj
 0002:000043b0       ??_R4TrackerKinematicsDatagram@@6B@ 004273b0     trackerkinematicsdatagram.obj
 0002:000043c4       ??_R3TrackerKinematicsDatagram@@8 004273c4     trackerkinematicsdatagram.obj
 0002:000043d4       ??_R2TrackerKinematicsDatagram@@8 004273d4     trackerkinematicsdatagram.obj
 0002:000043e0       ??_R1A@?0A@EA@TrackerKinematicsDatagram@@8 004273e0     trackerkinematicsdatagram.obj
 0002:000043fc       ??_R4bad_alloc@std@@6B@    004273fc     udpserver.obj
 0002:00004410       ??_R3bad_alloc@std@@8      00427410     udpserver.obj
 0002:00004420       ??_R2bad_alloc@std@@8      00427420     udpserver.obj
 0002:0000442c       ??_R1A@?0A@EA@bad_alloc@std@@8 0042742c     udpserver.obj
 0002:00004448       ??_R4type_info@@6B@        00427448     MSVCRTD:std_type_info_static.obj
 0002:0000445c       ??_R3type_info@@8          0042745c     MSVCRTD:std_type_info_static.obj
 0002:0000446c       ??_R2type_info@@8          0042746c     MSVCRTD:std_type_info_static.obj
 0002:00004474       ??_R1A@?0A@EA@type_info@@8 00427474     MSVCRTD:std_type_info_static.obj
 0002:00004490       ??_R4bad_array_new_length@std@@6B@ 00427490     MSVCRTD:throw_bad_alloc.obj
 0002:000044a4       ??_R3bad_array_new_length@std@@8 004274a4     MSVCRTD:throw_bad_alloc.obj
 0002:000044b4       ??_R2bad_array_new_length@std@@8 004274b4     MSVCRTD:throw_bad_alloc.obj
 0002:000044c4       ??_R1A@?0A@EA@bad_array_new_length@std@@8 004274c4     MSVCRTD:throw_bad_alloc.obj
 0002:000044e0       ___safe_se_handler_table   004274e0     <linker-defined>
 0002:00004b48       ___rtc_iaa                 00427b48     MSVCRTD:_initsect_.obj
 0002:00004b4c       ___rtc_izz                 00427b4c     MSVCRTD:_initsect_.obj
 0002:00004b50       ___rtc_taa                 00427b50     MSVCRTD:_initsect_.obj
 0002:00004b54       ___rtc_tzz                 00427b54     MSVCRTD:_initsect_.obj
 0002:00005a04       __CT??_R0?AVexception@std@@@8??0exception@std@@QAE@ABV01@@Z12 00428a04     datagram.obj
 0002:00005a20       __TI2?AVbad_cast@std@@     00428a20     datagram.obj
 0002:00005a30       __CTA2?AVbad_cast@std@@    00428a30     datagram.obj
 0002:00005a3c       __CT??_R0?AVbad_cast@std@@@8??0bad_cast@std@@QAE@ABV01@@Z12 00428a3c     datagram.obj
 0002:0000705c       __TI2?AVbad_alloc@std@@    0042a05c     udpserver.obj
 0002:0000706c       __CTA2?AVbad_alloc@std@@   0042a06c     udpserver.obj
 0002:00007078       __CT??_R0?AVbad_alloc@std@@@8??0bad_alloc@std@@QAE@ABV01@@Z12 0042a078     udpserver.obj
 0002:00007124       __TI3?AVbad_array_new_length@std@@ 0042a124     MSVCRTD:throw_bad_alloc.obj
 0002:00007134       __CTA3?AVbad_array_new_length@std@@ 0042a134     MSVCRTD:throw_bad_alloc.obj
 0002:00007144       __CT??_R0?AVbad_array_new_length@std@@@8??0bad_array_new_length@std@@QAE@ABV01@@Z12 0042a144     MSVCRTD:throw_bad_alloc.obj
 0002:00007160       __IMPORT_DESCRIPTOR_xstypes32 0042a160     xstypes32:xstypes32.dll
 0002:00007174       __IMPORT_DESCRIPTOR_KERNEL32 0042a174     kernel32:KERNEL32.dll
 0002:00007188       __IMPORT_DESCRIPTOR_MSVCP140D 0042a188     msvcprtd:MSVCP140D.dll
 0002:0000719c       __IMPORT_DESCRIPTOR_VCRUNTIME140D 0042a19c     vcruntimed:VCRUNTIME140D.dll
 0002:000071b0       __IMPORT_DESCRIPTOR_ucrtbased 0042a1b0     ucrtd:ucrtbased.dll
 0002:000071c4       __NULL_IMPORT_DESCRIPTOR   0042a1c4     xstypes32:xstypes32.dll
 0003:00000000       ___security_cookie         0042c000     MSVCRTD:gs_cookie.obj
 0003:00000004       ___security_cookie_complement 0042c004     MSVCRTD:gs_cookie.obj
 0003:00000008       __fltused                  0042c008     MSVCRTD:fltused.obj
 0003:0000000c       ___scrt_native_dllmain_reason 0042c00c     MSVCRTD:utility.obj
 0003:00000010       ___scrt_default_matherr    0042c010     MSVCRTD:matherr.obj
 0003:00000014       ___isa_enabled             0042c014     MSVCRTD:_cpu_disp_.obj
 0003:00000018       ___scrt_ucrt_dll_is_in_use 0042c018     MSVCRTD:ucrt_stubs.obj
 0003:00000020       ??_R0?AVAngularSegmentKinematicsDatagram@@@8 0042c020     angularsegmentkinematicsdatagram.obj
 0003:00000050       ??_R0?AVDatagram@@@8       0042c050     angularsegmentkinematicsdatagram.obj
 0003:00000068       ??_R0?AVCenterOfMassDatagram@@@8 0042c068     centerofmassdatagram.obj
 0003:0000008c       ??_R0?AVexception@std@@@8  0042c08c     datagram.obj
 0003:000000a8       ??_R0?AVbad_cast@std@@@8   0042c0a8     datagram.obj
 0003:000000c8       ??_R0?AV?$basic_stringbuf@DU?$char_traits@D@std@@V?$allocator@D@2@@std@@@8 0042c0c8     datagram.obj
 0003:00000118       ??_R0?AV?$basic_streambuf@DU?$char_traits@D@std@@@std@@@8 0042c118     datagram.obj
 0003:00000158       ??_R0?AV?$basic_stringstream@DU?$char_traits@D@std@@V?$allocator@D@2@@std@@@8 0042c158     datagram.obj
 0003:000001a8       ??_R0?AV?$basic_iostream@DU?$char_traits@D@std@@@std@@@8 0042c1a8     datagram.obj
 0003:000001e4       ??_R0?AV?$basic_istream@DU?$char_traits@D@std@@@std@@@8 0042c1e4     datagram.obj
 0003:00000220       ??_R0?AV?$basic_ios@DU?$char_traits@D@std@@@std@@@8 0042c220     datagram.obj
 0003:00000258       ??_R0?AVios_base@std@@@8   0042c258     datagram.obj
 0003:00000274       ??_R0?AV?$_Iosb@H@std@@@8  0042c274     datagram.obj
 0003:00000290       ??_R0?AV?$basic_ostream@DU?$char_traits@D@std@@@std@@@8 0042c290     datagram.obj
 0003:000002cc       ??_R0?AVEulerDatagram@@@8  0042c2cc     eulerdatagram.obj
 0003:000002e8       ??_R0?AVJointAnglesDatagram@@@8 0042c2e8     jointanglesdatagram.obj
 0003:0000030c       ??_R0?AVLinearSegmentKinematicsDatagram@@@8 0042c30c     linearsegmentkinematicsdatagram.obj
 0003:0000033c       ??_R0?AVMetaDatagram@@@8   0042c33c     metadatagram.obj
 0003:00000358       ??_R0?AVPositionDatagram@@@8 0042c358     positiondatagram.obj
 0003:00000378       ??_R0?AVQuaternionDatagram@@@8 0042c378     quaterniondatagram.obj
 0003:0000039c       ??_R0?AVScaleDatagram@@@8  0042c39c     scaledatagram.obj
 0003:000003b8       ??_R0?AVTimeCodeDatagram@@@8 0042c3b8     timecodedatagram.obj
 0003:000003d8       ??_R0?AVTrackerKinematicsDatagram@@@8 0042c3d8     trackerkinematicsdatagram.obj
 0003:00000400       ??_R0?AVbad_alloc@std@@@8  0042c400     udpserver.obj
 0003:0000041c       ??_R0?AVtype_info@@@8      0042c41c     MSVCRTD:std_type_info_static.obj
 0003:00000434       ??_R0?AVbad_array_new_length@std@@@8 0042c434     MSVCRTD:throw_bad_alloc.obj
 0003:000004c4       ?_Psave@?$_Facetptr@V?$ctype@D@std@@@std@@2PBVfacet@locale@2@B 0042c4c4     datagram.obj
 0003:000005a0       ?_OptionsStorage@?1??__local_stdio_printf_options@@9@4_KA 0042c5a0     timecodedatagram.obj
 0003:000005a8       ?_OptionsStorage@?1??__local_stdio_scanf_options@@9@4_KA 0042c5a8     timecodedatagram.obj
 0003:000005c4       ___scrt_current_native_startup_state 0042c5c4     MSVCRTD:utility.obj
 0003:000005c8       ___scrt_native_startup_lock 0042c5c8     MSVCRTD:utility.obj
 0003:00000908       ?__type_info_root_node@@3U__type_info_node@@A 0042c908     MSVCRTD:tncleanup.obj
 0003:00000910       ___scrt_debugger_hook_flag 0042c910     MSVCRTD:utility_desktop.obj
 0003:00000914       ___isa_available           0042c914     MSVCRTD:_cpu_disp_.obj
 0003:00000918       ___favor                   0042c918     MSVCRTD:_cpu_disp_.obj
 0003:0000091c       ___dyn_tls_dtor_callback   0042c91c     <common>
 0003:00000920       ___dyn_tls_init_callback   0042c920     <common>

 entry point at        0001:0001db80

 Static symbols

 0001:fffff000       __ehhandler$?_Orphan_all@_Container_base12@std@@QAEXXZ 00400000 f   jointanglesdatagram.obj
 0000:fffd2000       .debug$S                   00400000     kernel32:KERNEL32.dll
 0000:fffd2000       .debug$S                   00400000     kernel32:KERNEL32.dll
 0000:fffd2000       .debug$S                   00400000     kernel32:KERNEL32.dll
 0000:fffd2000       .debug$S                   00400000     kernel32:KERNEL32.dll
 0000:fffd2000       .debug$S                   00400000     kernel32:KERNEL32.dll
 0000:fffd2000       .debug$S                   00400000     kernel32:KERNEL32.dll
 0000:fffd2000       .debug$S                   00400000     kernel32:KERNEL32.dll
 0000:fffd2000       .debug$S                   00400000     kernel32:KERNEL32.dll
 0000:fffd2000       .debug$S                   00400000     kernel32:KERNEL32.dll
 0000:fffd2000       .debug$S                   00400000     kernel32:KERNEL32.dll
 0000:fffd2000       .debug$S                   00400000     kernel32:KERNEL32.dll
 0000:fffd2000       .debug$S                   00400000     kernel32:KERNEL32.dll
 0000:fffd2000       .debug$S                   00400000     kernel32:KERNEL32.dll
 0002:fffdd000       __ehfuncinfo$?data@?$basic_string@DU?$char_traits@D@std@@V?$allocator@D@2@@std@@QBEPBDXZ 00400000     metadatagram.obj
 0000:fffd2000       .debug$S                   00400000     ucrtd:ucrtbased.dll
 0000:fffd2000       .debug$S                   00400000     ucrtd:ucrtbased.dll
 0000:fffd2000       .debug$S                   00400000     ucrtd:ucrtbased.dll
 0000:fffd2000       .debug$S                   00400000     ucrtd:ucrtbased.dll
 0000:fffd2000       .debug$S                   00400000     ucrtd:ucrtbased.dll
 0000:fffd2000       .debug$S                   00400000     ucrtd:ucrtbased.dll
 0000:fffd2000       .debug$S                   00400000     ucrtd:ucrtbased.dll
 0000:fffd2000       .debug$S                   00400000     ucrtd:ucrtbased.dll
 0000:fffd2000       .debug$S                   00400000     ucrtd:ucrtbased.dll
 0000:fffd2000       .debug$S                   00400000     ucrtd:ucrtbased.dll
 0000:fffd2000       .debug$S                   00400000     ucrtd:ucrtbased.dll
 0000:fffd2000       .debug$S                   00400000     ucrtd:ucrtbased.dll
 0000:fffd2000       .debug$S                   00400000     ucrtd:ucrtbased.dll
 0000:fffd2000       .debug$S                   00400000     ucrtd:ucrtbased.dll
 0000:fffd2000       .debug$S                   00400000     ucrtd:ucrtbased.dll
 0000:fffd2000       .debug$S                   00400000     ucrtd:ucrtbased.dll
 0000:fffd2000       .debug$S                   00400000     ucrtd:ucrtbased.dll
 0000:fffd2000       .debug$S                   00400000     ucrtd:ucrtbased.dll
 0000:fffd2000       .debug$S                   00400000     ucrtd:ucrtbased.dll
 0000:fffd2000       .debug$S                   00400000     ucrtd:ucrtbased.dll
 0000:fffd2000       .debug$S                   00400000     ucrtd:ucrtbased.dll
 0000:fffd2000       .debug$S                   00400000     ucrtd:ucrtbased.dll
 0000:fffd2000       .debug$S                   00400000     ucrtd:ucrtbased.dll
 0000:fffd2000       .debug$S                   00400000     ucrtd:ucrtbased.dll
 0000:fffd2000       .debug$S                   00400000     ucrtd:ucrtbased.dll
 0000:fffd2000       .debug$S                   00400000     ucrtd:ucrtbased.dll
 0000:fffd2000       .debug$S                   00400000     ucrtd:ucrtbased.dll
 0000:fffd2000       .debug$S                   00400000     ucrtd:ucrtbased.dll
 0000:fffd2000       .debug$S                   00400000     ucrtd:ucrtbased.dll
 0000:fffd2000       .debug$S                   00400000     ucrtd:ucrtbased.dll
 0000:fffd2000       .debug$S                   00400000     ucrtd:ucrtbased.dll
 0000:fffd2000       .debug$S                   00400000     ucrtd:ucrtbased.dll
 0000:fffd2000       .debug$S                   00400000     ucrtd:ucrtbased.dll
 0000:fffd2000       .debug$S                   00400000     ucrtd:ucrtbased.dll
 0000:fffd2000       .debug$S                   00400000     ucrtd:ucrtbased.dll
 0000:fffd2000       .debug$S                   00400000     ucrtd:ucrtbased.dll
 0000:fffd2000       .debug$S                   00400000     ucrtd:ucrtbased.dll
 0000:fffd2000       .debug$S                   00400000     ucrtd:ucrtbased.dll
 0000:fffd2000       .debug$S                   00400000     ucrtd:ucrtbased.dll
 0000:fffd2000       .debug$S                   00400000     ucrtd:ucrtbased.dll
 0002:fffdd000       __ehfuncinfo$?c_str@?$basic_string@DU?$char_traits@D@std@@V?$allocator@D@2@@std@@QBEPBDXZ 00400000     metadatagram.obj
 0000:fffd2000       .debug$S                   00400000     vcruntimed:VCRUNTIME140D.dll
 0000:fffd2000       .debug$S                   00400000     vcruntimed:VCRUNTIME140D.dll
 0000:fffd2000       .debug$S                   00400000     vcruntimed:VCRUNTIME140D.dll
 0000:fffd2000       .debug$S                   00400000     vcruntimed:VCRUNTIME140D.dll
 0000:fffd2000       .debug$S                   00400000     vcruntimed:VCRUNTIME140D.dll
 0000:fffd2000       .debug$S                   00400000     vcruntimed:VCRUNTIME140D.dll
 0000:fffd2000       .debug$S                   00400000     vcruntimed:VCRUNTIME140D.dll
 0000:fffd2000       .debug$S                   00400000     vcruntimed:VCRUNTIME140D.dll
 0000:fffd2000       .debug$S                   00400000     vcruntimed:VCRUNTIME140D.dll
 0000:fffd2000       .debug$S                   00400000     vcruntimed:VCRUNTIME140D.dll
 0000:fffd2000       .debug$S                   00400000     vcruntimed:VCRUNTIME140D.dll
 0002:fffdd000       __guard_fids___except_handler4 00400000     MSVCRTD:_chandler4gs_.obj
 0002:fffdd000       __guard_fids____scrt_set_unhandled_exception_filter 00400000     MSVCRTD:utility_desktop.obj
 0002:fffdd000       __ehfuncinfo$??1sentry@?$basic_ostream@DU?$char_traits@D@std@@@std@@QAE@XZ 00400000     eulerdatagram.obj
 0002:fffdd000       __unwindtable$??0sentry@?$basic_ostream@DU?$char_traits@D@std@@@std@@QAE@AAV12@@Z 00400000     eulerdatagram.obj
 0001:fffff000       __ehhandler$?_Swap_all@_Container_base12@std@@QAEXAAU12@@Z 00400000 f   metadatagram.obj
 0002:fffdd000       __ehfuncinfo$??1_Sentry_base@?$basic_ostream@DU?$char_traits@D@std@@@std@@QAE@XZ 00400000     eulerdatagram.obj
 0002:fffdd000       __guard_fids__             00400000     MSVCRTD:throw_bad_alloc.obj
 0002:fffdd000       __guard_fids__             00400000     MSVCRTD:throw_bad_alloc.obj
 0002:fffdd000       __guard_fids__             00400000     MSVCRTD:throw_bad_alloc.obj
 0002:fffdd000       __guard_fids__             00400000     MSVCRTD:throw_bad_alloc.obj
 0002:fffdd000       __guard_fids__             00400000     MSVCRTD:throw_bad_alloc.obj
 0002:fffdd000       __guard_fids__             00400000     MSVCRTD:throw_bad_alloc.obj
 0002:fffdd000       __guard_fids__             00400000     MSVCRTD:throw_bad_alloc.obj
 0002:fffdd000       __guard_fids__             00400000     MSVCRTD:throw_bad_alloc.obj
 0002:fffdd000       __guard_fids___guard_icall_checks_enforced 00400000     MSVCRTD:guard_support.obj
 0002:fffdd000       __guard_fids__             00400000     MSVCRTD:guard_support.obj
 0002:fffdd000       __catchsym$??$?6U?$char_traits@D@std@@@std@@YAAAV?$basic_ostream@DU?$char_traits@D@std@@@0@AAV10@PBD@Z$3 00400000     eulerdatagram.obj
 0001:fffff000       __ehhandler$?_Orphan_all@_Container_base12@std@@QAEXXZ 00400000 f   metadatagram.obj
 0001:fffff000       __ehhandler$??1_Iterator_base12@std@@QAE@XZ 00400000 f   metadatagram.obj
 0002:fffdd000       __ehfuncinfo$?_Orphan_all@_Container_base12@std@@QAEXXZ 00400000     eulerdatagram.obj
 0001:fffff000       __ehhandler$??1sentry@?$basic_ostream@DU?$char_traits@D@std@@@std@@QAE@XZ 00400000 f   eulerdatagram.obj
 0001:fffff000       __unwindfunclet$??0sentry@?$basic_ostream@DU?$char_traits@D@std@@@std@@QAE@AAV12@@Z$0 00400000 f   eulerdatagram.obj
 0001:fffff000       __ehhandler$?_Adopt@_Iterator_base12@std@@QAEXPBU_Container_base12@2@@Z 00400000 f   metadatagram.obj
 0001:fffff000       __ehhandler$??1_Sentry_base@?$basic_ostream@DU?$char_traits@D@std@@@std@@QAE@XZ 00400000 f   eulerdatagram.obj
 0002:fffdd000       __guard_fids_?pre_c_initialization@@YAHXZ 00400000     MSVCRTD:exe_main.obj
 0001:fffff000       __unwindfunclet$??$?6U?$char_traits@D@std@@@std@@YAAAV?$basic_ostream@DU?$char_traits@D@std@@@0@AAV10@PBD@Z$2 00400000 f   eulerdatagram.obj
 0001:fffff000       __ehhandler$?_Orphan_me@_Iterator_base12@std@@QAEXXZ 00400000 f   metadatagram.obj
 0001:fffff000       __ehhandler$?_Orphan_all@_Container_base12@std@@QAEXXZ 00400000 f   eulerdatagram.obj
 0001:fffff000       __unwindfunclet$??0?$_String_alloc@U?$_String_base_types@DV?$allocator@D@std@@@std@@@std@@QAE@XZ$0 00400000 f   metadatagram.obj
 0001:fffff000       __ehhandler$??1?$_String_alloc@U?$_String_base_types@DV?$allocator@D@std@@@std@@@std@@QAE@XZ 00400000 f   metadatagram.obj
 0002:fffdd000       __guard_fids__             00400000     MSVCRTD:exe_main.obj
 0001:fffff000       __unwindfunclet$??0?$basic_string@DU?$char_traits@D@std@@V?$allocator@D@2@@std@@QAE@ABV01@@Z$0 00400000 f   metadatagram.obj
 0001:fffff000       __ehhandler$?data@?$basic_string@DU?$char_traits@D@std@@V?$allocator@D@2@@std@@QBEPBDXZ 00400000 f   scaledatagram.obj
 0001:fffff000       __unwindfunclet$??$?6U?$char_traits@D@std@@@std@@YAAAV?$basic_ostream@DU?$char_traits@D@std@@@0@AAV10@PBD@Z$2 00400000 f   scaledatagram.obj
 0002:fffdd000       __catchsym$??$?6U?$char_traits@D@std@@@std@@YAAAV?$basic_ostream@DU?$char_traits@D@std@@@0@AAV10@PBD@Z$3 00400000     metadatagram.obj
 0002:fffdd000       __ehfuncinfo$??1?$basic_stringbuf@DU?$char_traits@D@std@@V?$allocator@D@2@@std@@UAE@XZ 00400000     metadatagram.obj
 0001:fffff000       __ehhandler$??1?$basic_string@DU?$char_traits@D@std@@V?$allocator@D@2@@std@@QAE@XZ 00400000 f   scaledatagram.obj
 0002:fffdd000       __guard_fids__             00400000     MSVCRTD:std_type_info_static.obj
 0000:fffd2000       .debug$S                   00400000     msvcprtd:MSVCP140D.dll
 0002:fffdd000       __unwindtable$??$?0V?$allocator@D@std@@X@?$_String_alloc@U?$_String_base_types@DV?$allocator@D@std@@@std@@@std@@QAE@$$QAV?$allocator@D@1@@Z 00400000     metadatagram.obj
 0000:fffd2000       .debug$S                   00400000     msvcprtd:MSVCP140D.dll
 0000:fffd2000       .debug$S                   00400000     msvcprtd:MSVCP140D.dll
 0000:fffd2000       .debug$S                   00400000     msvcprtd:MSVCP140D.dll
 0000:fffd2000       .debug$S                   00400000     msvcprtd:MSVCP140D.dll
 0000:fffd2000       .debug$S                   00400000     msvcprtd:MSVCP140D.dll
 0000:fffd2000       .debug$S                   00400000     msvcprtd:MSVCP140D.dll
 0000:fffd2000       .debug$S                   00400000     msvcprtd:MSVCP140D.dll
 0000:fffd2000       .debug$S                   00400000     msvcprtd:MSVCP140D.dll
 0000:fffd2000       .debug$S                   00400000     msvcprtd:MSVCP140D.dll
 0000:fffd2000       .debug$S                   00400000     msvcprtd:MSVCP140D.dll
 0000:fffd2000       .debug$S                   00400000     msvcprtd:MSVCP140D.dll
 0000:fffd2000       .debug$S                   00400000     msvcprtd:MSVCP140D.dll
 0000:fffd2000       .debug$S                   00400000     msvcprtd:MSVCP140D.dll
 0000:fffd2000       .debug$S                   00400000     msvcprtd:MSVCP140D.dll
 0000:fffd2000       .debug$S                   00400000     msvcprtd:MSVCP140D.dll
 0000:fffd2000       .debug$S                   00400000     msvcprtd:MSVCP140D.dll
 0000:fffd2000       .debug$S                   00400000     msvcprtd:MSVCP140D.dll
 0000:fffd2000       .debug$S                   00400000     msvcprtd:MSVCP140D.dll
 0000:fffd2000       .debug$S                   00400000     msvcprtd:MSVCP140D.dll
 0000:fffd2000       .debug$S                   00400000     msvcprtd:MSVCP140D.dll
 0000:fffd2000       .debug$S                   00400000     msvcprtd:MSVCP140D.dll
 0000:fffd2000       .debug$S                   00400000     msvcprtd:MSVCP140D.dll
 0000:fffd2000       .debug$S                   00400000     msvcprtd:MSVCP140D.dll
 0000:fffd2000       .debug$S                   00400000     msvcprtd:MSVCP140D.dll
 0000:fffd2000       .debug$S                   00400000     msvcprtd:MSVCP140D.dll
 0000:fffd2000       .debug$S                   00400000     msvcprtd:MSVCP140D.dll
 0000:fffd2000       .debug$S                   00400000     msvcprtd:MSVCP140D.dll
 0000:fffd2000       .debug$S                   00400000     msvcprtd:MSVCP140D.dll
 0000:fffd2000       .debug$S                   00400000     msvcprtd:MSVCP140D.dll
 0000:fffd2000       .debug$S                   00400000     msvcprtd:MSVCP140D.dll
 0000:fffd2000       .debug$S                   00400000     msvcprtd:MSVCP140D.dll
 0000:fffd2000       .debug$S                   00400000     msvcprtd:MSVCP140D.dll
 0000:fffd2000       .debug$S                   00400000     msvcprtd:MSVCP140D.dll
 0000:fffd2000       .debug$S                   00400000     msvcprtd:MSVCP140D.dll
 0000:fffd2000       .debug$S                   00400000     msvcprtd:MSVCP140D.dll
 0000:fffd2000       .debug$S                   00400000     msvcprtd:MSVCP140D.dll
 0000:fffd2000       .debug$S                   00400000     msvcprtd:MSVCP140D.dll
 0000:fffd2000       .debug$S                   00400000     msvcprtd:MSVCP140D.dll
 0000:fffd2000       .debug$S                   00400000     msvcprtd:MSVCP140D.dll
 0000:fffd2000       .debug$S                   00400000     msvcprtd:MSVCP140D.dll
 0000:fffd2000       .debug$S                   00400000     msvcprtd:MSVCP140D.dll
 0000:fffd2000       .debug$S                   00400000     msvcprtd:MSVCP140D.dll
 0000:fffd2000       .debug$S                   00400000     msvcprtd:MSVCP140D.dll
 0002:fffdd000       __guard_fids__             00400000     msvcprtd:locale0_implib.obj
 0001:fffff000       __unwindfunclet$??$?6U?$char_traits@D@std@@@std@@YAAAV?$basic_ostream@DU?$char_traits@D@std@@@0@AAV10@PBD@Z$2 00400000 f   linearsegmentkinematicsdatagram.obj
 0002:fffdd000       __ehfuncinfo$??1_Sentry_base@?$basic_ostream@DU?$char_traits@D@std@@@std@@QAE@XZ 00400000     metadatagram.obj
 0002:fffdd000       __guard_fids_??__E_Fac_tidy_reg@std@@YAXXZ 00400000     msvcprtd:locale0_implib.obj
 0001:fffff000       __ehhandler$?_Assign_rv_contents_with_alloc_always_equal@?$basic_string@DU?$char_traits@D@std@@V?$allocator@D@2@@std@@QAEX$$QAV12@U?$integral_constant@_N$00@2@@Z 00400000 f   scaledatagram.obj
 0002:fffdd000       __unwindtable$??0sentry@?$basic_ostream@DU?$char_traits@D@std@@@std@@QAE@AAV12@@Z 00400000     metadatagram.obj
 0002:fffdd000       __ehfuncinfo$??1sentry@?$basic_ostream@DU?$char_traits@D@std@@@std@@QAE@XZ 00400000     metadatagram.obj
 0001:fffff000       __ehhandler$??0?$basic_string@DU?$char_traits@D@std@@V?$allocator@D@2@@std@@QAE@$$QAV01@@Z 00400000 f   scaledatagram.obj
 0001:fffff000       __ehhandler$??0?$basic_string@DU?$char_traits@D@std@@V?$allocator@D@2@@std@@QAE@XZ 00400000 f   scaledatagram.obj
 0001:fffff000       __ehhandler$??1_Sentry_base@?$basic_ostream@DU?$char_traits@D@std@@@std@@QAE@XZ 00400000 f   linearsegmentkinematicsdatagram.obj
 0001:fffff000       __unwindfunclet$??$?0V?$allocator@D@std@@X@?$_String_alloc@U?$_String_base_types@DV?$allocator@D@std@@@std@@@std@@QAE@$$QAV?$allocator@D@1@@Z$0 00400000 f   scaledatagram.obj
 0002:fffdd000       __catchsym$??$_Insert_string@DU?$char_traits@D@std@@I@std@@YAAAV?$basic_ostream@DU?$char_traits@D@std@@@0@AAV10@QBDI@Z$3 00400000     metadatagram.obj
 0002:fffdd000       __ehfuncinfo$??1_Sentry_base@?$basic_istream@DU?$char_traits@D@std@@@std@@QAE@XZ 00400000     metadatagram.obj
 0000:fffd2000       .debug$S                   00400000     msvcprtd:MSVCP140D.dll
 0000:fffd2000       .debug$S                   00400000     msvcprtd:MSVCP140D.dll
 0000:fffd2000       .debug$S                   00400000     msvcprtd:MSVCP140D.dll
 0000:fffd2000       .debug$S                   00400000     msvcprtd:MSVCP140D.dll
 0000:fffd2000       .debug$S                   00400000     msvcprtd:MSVCP140D.dll
 0000:fffd2000       .debug$S                   00400000     msvcprtd:MSVCP140D.dll
 0000:fffd2000       .debug$S                   00400000     msvcprtd:MSVCP140D.dll
 0000:fffd2000       .debug$S                   00400000     msvcprtd:MSVCP140D.dll
 0000:fffd2000       .debug$S                   00400000     msvcprtd:MSVCP140D.dll
 0000:fffd2000       .debug$S                   00400000     msvcprtd:MSVCP140D.dll
 0000:fffd2000       .debug$S                   00400000     msvcprtd:MSVCP140D.dll
 0000:fffd2000       .debug$S                   00400000     msvcprtd:MSVCP140D.dll
 0000:fffd2000       .debug$S                   00400000     msvcprtd:MSVCP140D.dll
 0000:fffd2000       .debug$S                   00400000     msvcprtd:MSVCP140D.dll
 0000:fffd2000       .debug$S                   00400000     msvcprtd:MSVCP140D.dll
 0000:fffd2000       .debug$S                   00400000     msvcprtd:MSVCP140D.dll
 0000:fffd2000       .debug$S                   00400000     msvcprtd:MSVCP140D.dll
 0000:fffd2000       .debug$S                   00400000     msvcprtd:MSVCP140D.dll
 0000:fffd2000       .debug$S                   00400000     msvcprtd:MSVCP140D.dll
 0000:fffd2000       .debug$S                   00400000     msvcprtd:MSVCP140D.dll
 0000:fffd2000       .debug$S                   00400000     msvcprtd:MSVCP140D.dll
 0000:fffd2000       .debug$S                   00400000     msvcprtd:MSVCP140D.dll
 0000:fffd2000       .debug$S                   00400000     msvcprtd:MSVCP140D.dll
 0000:fffd2000       .debug$S                   00400000     msvcprtd:MSVCP140D.dll
 0000:fffd2000       .debug$S                   00400000     msvcprtd:MSVCP140D.dll
 0001:fffff000       __ehhandler$??1_Sentry_base@?$basic_ostream@DU?$char_traits@D@std@@@std@@QAE@XZ 00400000 f   scaledatagram.obj
 0000:fffd2000       .debug$S                   00400000     kernel32:KERNEL32.dll
 0002:fffdd000       __unwindtable$??0sentry@?$basic_istream@DU?$char_traits@D@std@@@std@@QAE@AAV12@_N@Z 00400000     metadatagram.obj
 0000:fffd2000       .debug$S                   00400000     xstypes32:xstypes32.dll
 0000:fffd2000       .debug$S                   00400000     xstypes32:xstypes32.dll
 0000:fffd2000       .debug$S                   00400000     xstypes32:xstypes32.dll
 0000:fffd2000       .debug$S                   00400000     xstypes32:xstypes32.dll
 0000:fffd2000       .debug$S                   00400000     xstypes32:xstypes32.dll
 0000:fffd2000       .debug$S                   00400000     xstypes32:xstypes32.dll
 0000:fffd2000       .debug$S                   00400000     xstypes32:xstypes32.dll
 0000:fffd2000       .debug$S                   00400000     xstypes32:xstypes32.dll
 0000:fffd2000       .debug$S                   00400000     xstypes32:xstypes32.dll
 0000:fffd2000       .debug$S                   00400000     xstypes32:xstypes32.dll
 0000:fffd2000       .debug$S                   00400000     xstypes32:xstypes32.dll
 0000:fffd2000       .debug$S                   00400000     xstypes32:xstypes32.dll
 0000:fffd2000       .debug$S                   00400000     xstypes32:xstypes32.dll
 0000:fffd2000       .debug$S                   00400000     xstypes32:xstypes32.dll
 0000:fffd2000       .debug$S                   00400000     xstypes32:xstypes32.dll
 0000:fffd2000       .debug$S                   00400000     xstypes32:xstypes32.dll
 0000:fffd2000       .debug$S                   00400000     xstypes32:xstypes32.dll
 0000:fffd2000       .debug$S                   00400000     xstypes32:xstypes32.dll
 0000:fffd2000       .debug$S                   00400000     xstypes32:xstypes32.dll
 0000:fffd2000       .debug$S                   00400000     xstypes32:xstypes32.dll
 0000:fffd2000       .debug$S                   00400000     xstypes32:xstypes32.dll
 0000:fffd2000       .debug$S                   00400000     xstypes32:xstypes32.dll
 0000:fffd2000       .debug$S                   00400000     xstypes32:xstypes32.dll
 0000:fffd2000       .debug$S                   00400000     xstypes32:xstypes32.dll
 0000:fffd2000       .debug$S                   00400000     xstypes32:xstypes32.dll
 0000:fffd2000       .debug$S                   00400000     xstypes32:xstypes32.dll
 0000:fffd2000       .debug$S                   00400000     xstypes32:xstypes32.dll
 0000:fffd2000       .debug$S                   00400000     xstypes32:xstypes32.dll
 0000:fffd2000       .debug$S                   00400000     xstypes32:xstypes32.dll
 0000:fffd2000       .debug$S                   00400000     xstypes32:xstypes32.dll
 0000:fffd2000       .debug$S                   00400000     xstypes32:xstypes32.dll
 0000:fffd2000       .debug$S                   00400000     xstypes32:xstypes32.dll
 0000:fffd2000       .debug$S                   00400000     xstypes32:xstypes32.dll
 0000:fffd2000       .debug$S                   00400000     xstypes32:xstypes32.dll
 0000:fffd2000       .debug$S                   00400000     xstypes32:xstypes32.dll
 0000:fffd2000       .debug$S                   00400000     xstypes32:xstypes32.dll
 0000:fffd2000       .debug$S                   00400000     xstypes32:xstypes32.dll
 0000:fffd2000       .debug$S                   00400000     xstypes32:xstypes32.dll
 0000:fffd2000       .debug$S                   00400000     xstypes32:xstypes32.dll
 0000:fffd2000       .debug$S                   00400000     xstypes32:xstypes32.dll
 0000:fffd2000       .debug$S                   00400000     xstypes32:xstypes32.dll
 0000:fffd2000       .debug$S                   00400000     xstypes32:xstypes32.dll
 0000:fffd2000       .debug$S                   00400000     xstypes32:xstypes32.dll
 0000:fffd2000       .debug$S                   00400000     xstypes32:xstypes32.dll
 0000:fffd2000       .debug$S                   00400000     xstypes32:xstypes32.dll
 0001:fffff000       __unwindfunclet$??0sentry@?$basic_ostream@DU?$char_traits@D@std@@@std@@QAE@AAV12@@Z$0 00400000 f   linearsegmentkinematicsdatagram.obj
 0001:fffff000       __ehhandler$??1sentry@?$basic_ostream@DU?$char_traits@D@std@@@std@@QAE@XZ 00400000 f   linearsegmentkinematicsdatagram.obj
 0002:fffdd000       __ehfuncinfo$?_Orphan_all@_Container_base12@std@@QAEXXZ 00400000     linearsegmentkinematicsdatagram.obj
 0001:fffff000       __unwindfunclet$??0sentry@?$basic_ostream@DU?$char_traits@D@std@@@std@@QAE@AAV12@@Z$0 00400000 f   scaledatagram.obj
 0002:fffdd000       __unwindtable$??$?0ABV?$allocator@D@std@@X@?$_String_alloc@U?$_String_base_types@DV?$allocator@D@std@@@std@@@std@@QAE@ABV?$allocator@D@1@@Z 00400000     metadatagram.obj
 0002:fffdd000       __ehfuncinfo$??1sentry@?$basic_ostream@DU?$char_traits@D@std@@@std@@QAE@XZ 00400000     datagram.obj
 0002:fffdd000       __ehfuncinfo$??1sentry@?$basic_ostream@DU?$char_traits@D@std@@@std@@QAE@XZ 00400000     udpserver.obj
 0002:fffdd000       __unwindtable$??0sentry@?$basic_ostream@DU?$char_traits@D@std@@@std@@QAE@AAV12@@Z 00400000     udpserver.obj
 0001:fffff000       __ehhandler$??1sentry@?$basic_ostream@DU?$char_traits@D@std@@@std@@QAE@XZ 00400000 f   scaledatagram.obj
 0002:fffdd000       __ehfuncinfo$??1_Sentry_base@?$basic_ostream@DU?$char_traits@D@std@@@std@@QAE@XZ 00400000     udpserver.obj
 0002:fffdd000       __catchsym$??$?6U?$char_traits@D@std@@@std@@YAAAV?$basic_ostream@DU?$char_traits@D@std@@@0@AAV10@PBD@Z$3 00400000     udpserver.obj
 0001:fffff000       __ehhandler$??4_Iterator_base12@std@@QAEAAU01@ABU01@@Z 00400000 f   metadatagram.obj
 0001:fffff000       __unwindfunclet$??0?$basic_string@DU?$char_traits@D@std@@V?$allocator@D@2@@std@@QAE@ABV01@@Z$0 00400000 f   scaledatagram.obj
 0002:fffdd000       __unwindtable$??0sentry@?$basic_ostream@DU?$char_traits@D@std@@@std@@QAE@AAV12@@Z 00400000     datagram.obj
 0001:fffff000       __unwindfunclet$??$_Insert_string@DU?$char_traits@D@std@@I@std@@YAAAV?$basic_ostream@DU?$char_traits@D@std@@@0@AAV10@QBDI@Z$2 00400000 f   scaledatagram.obj
 0002:fffdd000       __ehfuncinfo$??1_Sentry_base@?$basic_ostream@DU?$char_traits@D@std@@@std@@QAE@XZ 00400000     datagram.obj
 0002:fffdd000       __catchsym$??$?6U?$char_traits@D@std@@@std@@YAAAV?$basic_ostream@DU?$char_traits@D@std@@@0@AAV10@PBD@Z$3 00400000     datagram.obj
 0001:fffff000       __ehhandler$??1?$_String_alloc@U?$_String_base_types@DV?$allocator@D@std@@@std@@@std@@QAE@XZ 00400000 f   scaledatagram.obj
 0001:fffff000       __unwindfunclet$??0?$_String_alloc@U?$_String_base_types@DV?$allocator@D@std@@@std@@@std@@QAE@XZ$0 00400000 f   scaledatagram.obj
 0002:fffdd000       __ehfuncinfo$?_Orphan_all@_Container_base12@std@@QAEXXZ 00400000     datagram.obj
 0002:fffdd000       __ehfuncinfo$??1?$basic_string@DU?$char_traits@D@std@@V?$allocator@D@2@@std@@QAE@XZ 00400000     metadatagram.obj
 0001:fffff000       __ehhandler$??1sentry@?$basic_ostream@DU?$char_traits@D@std@@@std@@QAE@XZ 00400000 f   udpserver.obj
 0001:fffff000       __unwindfunclet$??0sentry@?$basic_ostream@DU?$char_traits@D@std@@@std@@QAE@AAV12@@Z$0 00400000 f   udpserver.obj
 0001:fffff000       __unwindfunclet$??$?6U?$char_traits@D@std@@@std@@YAAAV?$basic_ostream@DU?$char_traits@D@std@@@0@AAV10@PBD@Z$2 00400000 f   jointanglesdatagram.obj
 0001:fffff000       __ehhandler$??1_Sentry_base@?$basic_ostream@DU?$char_traits@D@std@@@std@@QAE@XZ 00400000 f   udpserver.obj
 0001:fffff000       __unwindfunclet$??$?6U?$char_traits@D@std@@@std@@YAAAV?$basic_ostream@DU?$char_traits@D@std@@@0@AAV10@PBD@Z$2 00400000 f   udpserver.obj
 0002:fffdd000       __ehfuncinfo$?_Assign_rv_contents_with_alloc_always_equal@?$basic_string@DU?$char_traits@D@std@@V?$allocator@D@2@@std@@QAEX$$QAV12@U?$integral_constant@_N$00@2@@Z 00400000     metadatagram.obj
 0002:fffdd000       __ehfuncinfo$?_Orphan_all@_Container_base12@std@@QAEXXZ 00400000     scaledatagram.obj
 0002:fffdd000       __ehfuncinfo$??4?$basic_string@DU?$char_traits@D@std@@V?$allocator@D@2@@std@@QAEAAV01@$$QAV01@@Z 00400000     metadatagram.obj
 0002:fffdd000       __ehfuncinfo$??0?$basic_string@DU?$char_traits@D@std@@V?$allocator@D@2@@std@@QAE@$$QAV01@@Z 00400000     metadatagram.obj
 0002:fffdd000       __unwindtable$??0?$basic_string@DU?$char_traits@D@std@@V?$allocator@D@2@@std@@QAE@QBD@Z 00400000     metadatagram.obj
 0002:fffdd000       __ehfuncinfo$?_Swap_all@_Container_base12@std@@QAEXAAU12@@Z 00400000     scaledatagram.obj
 0002:fffdd000       __ehfuncinfo$??0?$basic_string@DU?$char_traits@D@std@@V?$allocator@D@2@@std@@QAE@XZ 00400000     metadatagram.obj
 0002:fffdd000       __unwindtable$??0?$basic_string@DU?$char_traits@D@std@@V?$allocator@D@2@@std@@QAE@ABV01@@Z 00400000     metadatagram.obj
 0001:fffff000       __ehhandler$?_Orphan_all@_Container_base12@std@@QAEXXZ 00400000 f   linearsegmentkinematicsdatagram.obj
 0002:fffdd000       __unwindtable$??0?$_String_alloc@U?$_String_base_types@DV?$allocator@D@std@@@std@@@std@@QAE@XZ 00400000     scaledatagram.obj
 0002:fffdd000       __ehfuncinfo$??1?$_String_alloc@U?$_String_base_types@DV?$allocator@D@std@@@std@@@std@@QAE@XZ 00400000     scaledatagram.obj
 0002:fffdd000       __unwindtable$??0?$basic_string@DU?$char_traits@D@std@@V?$allocator@D@2@@std@@QAE@ABV01@@Z 00400000     scaledatagram.obj
 0002:fffdd000       __catchsym$??$?6U?$char_traits@D@std@@@std@@YAAAV?$basic_ostream@DU?$char_traits@D@std@@@0@AAV10@PBD@Z$3 00400000     linearsegmentkinematicsdatagram.obj
 0002:fffdd000       __ehfuncinfo$??1sentry@?$basic_ostream@DU?$char_traits@D@std@@@std@@QAE@XZ 00400000     jointanglesdatagram.obj
 0002:fffdd000       __ehfuncinfo$??1?$_String_alloc@U?$_String_base_types@DV?$allocator@D@std@@@std@@@std@@QAE@XZ 00400000     metadatagram.obj
 0002:fffdd000       __unwindtable$??0?$_String_alloc@U?$_String_base_types@DV?$allocator@D@std@@@std@@@std@@QAE@XZ 00400000     metadatagram.obj
 0002:fffdd000       __ehfuncinfo$??0?$basic_string@DU?$char_traits@D@std@@V?$allocator@D@2@@std@@QAE@XZ 00400000     scaledatagram.obj
 0001:fffff000       __ehhandler$?_Orphan_all@_Container_base12@std@@QAEXXZ 00400000 f   positiondatagram.obj
 0002:fffdd000       __ehfuncinfo$?_Orphan_me@_Iterator_base12@std@@QAEXXZ 00400000     metadatagram.obj
 0002:fffdd000       __ehfuncinfo$??1sentry@?$basic_ostream@DU?$char_traits@D@std@@@std@@QAE@XZ 00400000     trackerkinematicsdatagram.obj
 0002:fffdd000       __unwindtable$??0sentry@?$basic_ostream@DU?$char_traits@D@std@@@std@@QAE@AAV12@@Z 00400000     trackerkinematicsdatagram.obj
 0002:fffdd000       __ehfuncinfo$??0?$basic_string@DU?$char_traits@D@std@@V?$allocator@D@2@@std@@QAE@$$QAV01@@Z 00400000     scaledatagram.obj
 0002:fffdd000       __ehfuncinfo$??1_Sentry_base@?$basic_ostream@DU?$char_traits@D@std@@@std@@QAE@XZ 00400000     trackerkinematicsdatagram.obj
 0002:fffdd000       __ehfuncinfo$?_Adopt@_Iterator_base12@std@@QAEXPBU_Container_base12@2@@Z 00400000     metadatagram.obj
 0002:fffdd000       __ehfuncinfo$??1_Iterator_base12@std@@QAE@XZ 00400000     metadatagram.obj
 0002:fffdd000       __ehfuncinfo$??4_Iterator_base12@std@@QAEAAU01@ABU01@@Z 00400000     metadatagram.obj
 0002:fffdd000       __ehfuncinfo$?_Swap_all@_Container_base12@std@@QAEXAAU12@@Z 00400000     metadatagram.obj
 0002:fffdd000       __catchsym$??$?6U?$char_traits@D@std@@@std@@YAAAV?$basic_ostream@DU?$char_traits@D@std@@@0@AAV10@PBD@Z$3 00400000     trackerkinematicsdatagram.obj
 0002:fffdd000       __ehfuncinfo$?_Assign_rv_contents_with_alloc_always_equal@?$basic_string@DU?$char_traits@D@std@@V?$allocator@D@2@@std@@QAEX$$QAV12@U?$integral_constant@_N$00@2@@Z 00400000     scaledatagram.obj
 0002:fffdd000       __ehfuncinfo$??1?$basic_string@DU?$char_traits@D@std@@V?$allocator@D@2@@std@@QAE@XZ 00400000     scaledatagram.obj
 0002:fffdd000       __ehfuncinfo$?_Orphan_all@_Container_base12@std@@QAEXXZ 00400000     metadatagram.obj
 0002:fffdd000       __ehfuncinfo$?data@?$basic_string@DU?$char_traits@D@std@@V?$allocator@D@2@@std@@QBEPBDXZ 00400000     scaledatagram.obj
 0001:fffff000       __unwindfunclet$??$?6U?$char_traits@D@std@@@std@@YAAAV?$basic_ostream@DU?$char_traits@D@std@@@0@AAV10@PBD@Z$2 00400000 f   positiondatagram.obj
 0001:fffff000       __ehhandler$??1_Sentry_base@?$basic_ostream@DU?$char_traits@D@std@@@std@@QAE@XZ 00400000 f   positiondatagram.obj
 0001:fffff000       __ehhandler$?_Swap_all@_Container_base12@std@@QAEXAAU12@@Z 00400000 f   scaledatagram.obj
 0001:fffff000       __unwindfunclet$??0sentry@?$basic_ostream@DU?$char_traits@D@std@@@std@@QAE@AAV12@@Z$0 00400000 f   positiondatagram.obj
 0001:fffff000       __ehhandler$??1sentry@?$basic_ostream@DU?$char_traits@D@std@@@std@@QAE@XZ 00400000 f   positiondatagram.obj
 0002:fffdd000       __ehfuncinfo$?_Orphan_all@_Container_base12@std@@QAEXXZ 00400000     positiondatagram.obj
 0002:fffdd000       __ehfuncinfo$?_Orphan_all@_Container_base12@std@@QAEXXZ 00400000     trackerkinematicsdatagram.obj
 0001:fffff000       __ehhandler$??1sentry@?$basic_ostream@DU?$char_traits@D@std@@@std@@QAE@XZ 00400000 f   trackerkinematicsdatagram.obj
 0001:fffff000       __unwindfunclet$??0sentry@?$basic_ostream@DU?$char_traits@D@std@@@std@@QAE@AAV12@@Z$0 00400000 f   trackerkinematicsdatagram.obj
 0001:fffff000       __ehhandler$?_Orphan_all@_Container_base12@std@@QAEXXZ 00400000 f   scaledatagram.obj
 0001:fffff000       __ehhandler$??1_Sentry_base@?$basic_ostream@DU?$char_traits@D@std@@@std@@QAE@XZ 00400000 f   trackerkinematicsdatagram.obj
 0001:fffff000       __ehhandler$??0?$basic_string@DU?$char_traits@D@std@@V?$allocator@D@2@@std@@QAE@XZ 00400000 f   metadatagram.obj
 0002:fffdd000       __unwindtable$??0sentry@?$basic_ostream@DU?$char_traits@D@std@@@std@@QAE@AAV12@@Z 00400000     jointanglesdatagram.obj
 0001:fffff000       __unwindfunclet$??$?6U?$char_traits@D@std@@@std@@YAAAV?$basic_ostream@DU?$char_traits@D@std@@@0@AAV10@PBD@Z$2 00400000 f   trackerkinematicsdatagram.obj
 0001:fffff000       __unwindfunclet$??0?$basic_string@DU?$char_traits@D@std@@V?$allocator@D@2@@std@@QAE@QBD@Z$0 00400000 f   metadatagram.obj
 0001:fffff000       __ehhandler$??0?$basic_string@DU?$char_traits@D@std@@V?$allocator@D@2@@std@@QAE@$$QAV01@@Z 00400000 f   metadatagram.obj
 0001:fffff000       __ehhandler$??4?$basic_string@DU?$char_traits@D@std@@V?$allocator@D@2@@std@@QAEAAV01@$$QAV01@@Z 00400000 f   metadatagram.obj
 0002:fffdd000       __ehfuncinfo$??1_Sentry_base@?$basic_ostream@DU?$char_traits@D@std@@@std@@QAE@XZ 00400000     jointanglesdatagram.obj
 0002:fffdd000       __ehfuncinfo$??1_Sentry_base@?$basic_ostream@DU?$char_traits@D@std@@@std@@QAE@XZ 00400000     linearsegmentkinematicsdatagram.obj
 0001:fffff000       __ehhandler$?_Assign_rv_contents_with_alloc_always_equal@?$basic_string@DU?$char_traits@D@std@@V?$allocator@D@2@@std@@QAEX$$QAV12@U?$integral_constant@_N$00@2@@Z 00400000 f   metadatagram.obj
 0002:fffdd000       __unwindtable$??0sentry@?$basic_ostream@DU?$char_traits@D@std@@@std@@QAE@AAV12@@Z 00400000     linearsegmentkinematicsdatagram.obj
 0002:fffdd000       __ehfuncinfo$??1sentry@?$basic_ostream@DU?$char_traits@D@std@@@std@@QAE@XZ 00400000     linearsegmentkinematicsdatagram.obj
 0002:fffdd000       __catchsym$??$?6U?$char_traits@D@std@@@std@@YAAAV?$basic_ostream@DU?$char_traits@D@std@@@0@AAV10@PBD@Z$3 00400000     jointanglesdatagram.obj
 0002:fffdd000       __catchsym$??$?6U?$char_traits@D@std@@@std@@YAAAV?$basic_ostream@DU?$char_traits@D@std@@@0@AAV10@PBD@Z$3 00400000     positiondatagram.obj
 0001:fffff000       __ehhandler$?_Orphan_all@_Container_base12@std@@QAEXXZ 00400000 f   trackerkinematicsdatagram.obj
 0002:fffdd000       __ehfuncinfo$??1_Sentry_base@?$basic_ostream@DU?$char_traits@D@std@@@std@@QAE@XZ 00400000     positiondatagram.obj
 0001:fffff000       __ehhandler$??1?$basic_string@DU?$char_traits@D@std@@V?$allocator@D@2@@std@@QAE@XZ 00400000 f   metadatagram.obj
 0002:fffdd000       __unwindtable$??0sentry@?$basic_ostream@DU?$char_traits@D@std@@@std@@QAE@AAV12@@Z 00400000     positiondatagram.obj
 0002:fffdd000       __ehfuncinfo$??1sentry@?$basic_ostream@DU?$char_traits@D@std@@@std@@QAE@XZ 00400000     positiondatagram.obj
 0001:fffff000       __ehhandler$??1sentry@?$basic_ostream@DU?$char_traits@D@std@@@std@@QAE@XZ 00400000 f   datagram.obj
 0001:fffff000       __ehhandler$?_Orphan_all@_Container_base12@std@@QAEXXZ 00400000 f   main.obj
 0001:fffff000       __ehhandler$?c_str@?$basic_string@DU?$char_traits@D@std@@V?$allocator@D@2@@std@@QBEPBDXZ 00400000 f   metadatagram.obj
 0001:fffff000       __unwindfunclet$??0?$_String_alloc@U?$_String_base_types@DV?$allocator@D@std@@@std@@@std@@QAE@XZ$0 00400000 f   main.obj
 0001:fffff000       __ehhandler$??1?$_String_alloc@U?$_String_base_types@DV?$allocator@D@std@@@std@@@std@@QAE@XZ 00400000 f   main.obj
 0001:fffff000       __ehhandler$?data@?$basic_string@DU?$char_traits@D@std@@V?$allocator@D@2@@std@@QBEPBDXZ 00400000 f   metadatagram.obj
 0001:fffff000       __unwindfunclet$??0?$basic_string@DU?$char_traits@D@std@@V?$allocator@D@2@@std@@QAE@QBD@Z$0 00400000 f   main.obj
 0001:fffff000       __ehhandler$??1?$basic_string@DU?$char_traits@D@std@@V?$allocator@D@2@@std@@QAE@XZ 00400000 f   main.obj
 0001:fffff000       __ehhandler$?c_str@?$basic_string@DU?$char_traits@D@std@@V?$allocator@D@2@@std@@QBEPBDXZ 00400000 f   main.obj
 0002:fffdd000       __ehfuncinfo$?_Orphan_all@_Container_base12@std@@QAEXXZ 00400000     main.obj
 0001:fffff000       __unwindfunclet$??$?6U?$char_traits@D@std@@@std@@YAAAV?$basic_ostream@DU?$char_traits@D@std@@@0@AAV10@PBD@Z$2 00400000 f   metadatagram.obj
 0002:fffdd000       __unwindtable$??0?$_String_alloc@U?$_String_base_types@DV?$allocator@D@std@@@std@@@std@@QAE@XZ 00400000     main.obj
 0002:fffdd000       __ehfuncinfo$??1?$_String_alloc@U?$_String_base_types@DV?$allocator@D@std@@@std@@@std@@QAE@XZ 00400000     main.obj
 0001:fffff000       __ehhandler$??1?$basic_stringbuf@DU?$char_traits@D@std@@V?$allocator@D@2@@std@@UAE@XZ 00400000 f   metadatagram.obj
 0002:fffdd000       __unwindtable$??0?$basic_string@DU?$char_traits@D@std@@V?$allocator@D@2@@std@@QAE@QBD@Z 00400000     main.obj
 0002:fffdd000       __ehfuncinfo$??1?$basic_string@DU?$char_traits@D@std@@V?$allocator@D@2@@std@@QAE@XZ 00400000     main.obj
 0002:fffdd000       __ehfuncinfo$?c_str@?$basic_string@DU?$char_traits@D@std@@V?$allocator@D@2@@std@@QBEPBDXZ 00400000     main.obj
 0002:fffdd000       __catchsym$??$?6U?$char_traits@D@std@@@std@@YAAAV?$basic_ostream@DU?$char_traits@D@std@@@0@AAV10@PBD@Z$3 00400000     scaledatagram.obj
 0001:fffff000       __unwindfunclet$??$?0V?$allocator@D@std@@X@?$_String_alloc@U?$_String_base_types@DV?$allocator@D@std@@@std@@@std@@QAE@$$QAV?$allocator@D@1@@Z$0 00400000 f   metadatagram.obj
 0001:fffff000       __unwindfunclet$??0sentry@?$basic_ostream@DU?$char_traits@D@std@@@std@@QAE@AAV12@@Z$0 00400000 f   datagram.obj
 0002:fffdd000       __ehfuncinfo$?_Orphan_all@_Container_base12@std@@QAEXXZ 00400000     jointanglesdatagram.obj
 0001:fffff000       __ehhandler$??1sentry@?$basic_ostream@DU?$char_traits@D@std@@@std@@QAE@XZ 00400000 f   jointanglesdatagram.obj
 0001:fffff000       __ehhandler$??1_Sentry_base@?$basic_ostream@DU?$char_traits@D@std@@@std@@QAE@XZ 00400000 f   metadatagram.obj
 0001:fffff000       __ehhandler$??1_Sentry_base@?$basic_ostream@DU?$char_traits@D@std@@@std@@QAE@XZ 00400000 f   datagram.obj
 0001:fffff000       __unwindfunclet$??0sentry@?$basic_ostream@DU?$char_traits@D@std@@@std@@QAE@AAV12@@Z$0 00400000 f   metadatagram.obj
 0001:fffff000       __unwindfunclet$??$?6U?$char_traits@D@std@@@std@@YAAAV?$basic_ostream@DU?$char_traits@D@std@@@0@AAV10@PBD@Z$2 00400000 f   datagram.obj
 0001:fffff000       __unwindfunclet$??$?6U?$char_traits@D@std@@@std@@YAAAV?$basic_ostream@DU?$char_traits@D@std@@@0@AAV10@PBD@Z$2 00400000 f   centerofmassdatagram.obj
 0001:fffff000       __ehhandler$??1_Sentry_base@?$basic_ostream@DU?$char_traits@D@std@@@std@@QAE@XZ 00400000 f   centerofmassdatagram.obj
 0002:fffdd000       __ehfuncinfo$??1sentry@?$basic_ostream@DU?$char_traits@D@std@@@std@@QAE@XZ 00400000     quaterniondatagram.obj
 0001:fffff000       __unwindfunclet$??0sentry@?$basic_ostream@DU?$char_traits@D@std@@@std@@QAE@AAV12@@Z$0 00400000 f   centerofmassdatagram.obj
 0001:fffff000       __ehhandler$??1sentry@?$basic_ostream@DU?$char_traits@D@std@@@std@@QAE@XZ 00400000 f   centerofmassdatagram.obj
 0002:fffdd000       __unwindtable$??0sentry@?$basic_ostream@DU?$char_traits@D@std@@@std@@QAE@AAV12@@Z 00400000     quaterniondatagram.obj
 0002:fffdd000       __ehfuncinfo$??1_Sentry_base@?$basic_ostream@DU?$char_traits@D@std@@@std@@QAE@XZ 00400000     quaterniondatagram.obj
 0002:fffdd000       __unwindtable$??$?0V?$allocator@D@std@@X@?$_String_alloc@U?$_String_base_types@DV?$allocator@D@std@@@std@@@std@@QAE@$$QAV?$allocator@D@1@@Z 00400000     scaledatagram.obj
 0002:fffdd000       __catchsym$??$?6U?$char_traits@D@std@@@std@@YAAAV?$basic_ostream@DU?$char_traits@D@std@@@0@AAV10@PBD@Z$3 00400000     centerofmassdatagram.obj
 0002:fffdd000       __ehfuncinfo$??1_Sentry_base@?$basic_ostream@DU?$char_traits@D@std@@@std@@QAE@XZ 00400000     centerofmassdatagram.obj
 0002:fffdd000       __ehfuncinfo$??1_Sentry_base@?$basic_ostream@DU?$char_traits@D@std@@@std@@QAE@XZ 00400000     scaledatagram.obj
 0002:fffdd000       __unwindtable$??0sentry@?$basic_ostream@DU?$char_traits@D@std@@@std@@QAE@AAV12@@Z 00400000     centerofmassdatagram.obj
 0002:fffdd000       __ehfuncinfo$??1sentry@?$basic_ostream@DU?$char_traits@D@std@@@std@@QAE@XZ 00400000     centerofmassdatagram.obj
 0001:fffff000       __ehhandler$?_Orphan_all@_Container_base12@std@@QAEXXZ 00400000 f   quaterniondatagram.obj
 0002:fffdd000       __ehfuncinfo$??1sentry@?$basic_ostream@DU?$char_traits@D@std@@@std@@QAE@XZ 00400000     timecodedatagram.obj
 0002:fffdd000       __unwindtable$??0sentry@?$basic_ostream@DU?$char_traits@D@std@@@std@@QAE@AAV12@@Z 00400000     timecodedatagram.obj
 0002:fffdd000       __unwindtable$??0sentry@?$basic_ostream@DU?$char_traits@D@std@@@std@@QAE@AAV12@@Z 00400000     scaledatagram.obj
 0002:fffdd000       __ehfuncinfo$??1_Sentry_base@?$basic_ostream@DU?$char_traits@D@std@@@std@@QAE@XZ 00400000     timecodedatagram.obj
 0002:fffdd000       __catchsym$??$?6U?$char_traits@D@std@@@std@@YAAAV?$basic_ostream@DU?$char_traits@D@std@@@0@AAV10@PBD@Z$3 00400000     timecodedatagram.obj
 0002:fffdd000       __ehfuncinfo$??1sentry@?$basic_ostream@DU?$char_traits@D@std@@@std@@QAE@XZ 00400000     scaledatagram.obj
 0002:fffdd000       __catchsym$??$?6U?$char_traits@D@std@@@std@@YAAAV?$basic_ostream@DU?$char_traits@D@std@@@0@AAV10@PBD@Z$3 00400000     quaterniondatagram.obj
 0001:fffff000       __unwindfunclet$??$?0ABV?$allocator@D@std@@X@?$_String_alloc@U?$_String_base_types@DV?$allocator@D@std@@@std@@@std@@QAE@ABV?$allocator@D@1@@Z$0 00400000 f   metadatagram.obj
 0002:fffdd000       __catchsym$??$_Insert_string@DU?$char_traits@D@std@@I@std@@YAAAV?$basic_ostream@DU?$char_traits@D@std@@@0@AAV10@QBDI@Z$3 00400000     scaledatagram.obj
 0001:fffff000       __unwindfunclet$??0sentry@?$basic_istream@DU?$char_traits@D@std@@@std@@QAE@AAV12@_N@Z$0 00400000 f   metadatagram.obj
 0002:fffdd000       __ehfuncinfo$?_Orphan_all@_Container_base12@std@@QAEXXZ 00400000     quaterniondatagram.obj
 0001:fffff000       __ehhandler$??1_Sentry_base@?$basic_istream@DU?$char_traits@D@std@@@std@@QAE@XZ 00400000 f   metadatagram.obj
 0002:fffdd000       __ehfuncinfo$?c_str@?$basic_string@DU?$char_traits@D@std@@V?$allocator@D@2@@std@@QBEPBDXZ 00400000     timecodedatagram.obj
 0002:fffdd000       __ehfuncinfo$??1?$basic_string@DU?$char_traits@D@std@@V?$allocator@D@2@@std@@QAE@XZ 00400000     timecodedatagram.obj
 0002:fffdd000       __ehfuncinfo$??0?$basic_string@DU?$char_traits@D@std@@V?$allocator@D@2@@std@@QAE@XZ 00400000     timecodedatagram.obj
 0002:fffdd000       __ehfuncinfo$??1?$_String_alloc@U?$_String_base_types@DV?$allocator@D@std@@@std@@@std@@QAE@XZ 00400000     timecodedatagram.obj
 0002:fffdd000       __unwindtable$??0?$_String_alloc@U?$_String_base_types@DV?$allocator@D@std@@@std@@@std@@QAE@XZ 00400000     timecodedatagram.obj
 0001:fffff000       __ehhandler$??1sentry@?$basic_ostream@DU?$char_traits@D@std@@@std@@QAE@XZ 00400000 f   quaterniondatagram.obj
 0002:fffdd000       __ehfuncinfo$?_Orphan_all@_Container_base12@std@@QAEXXZ 00400000     timecodedatagram.obj
 0001:fffff000       __ehhandler$??1sentry@?$basic_ostream@DU?$char_traits@D@std@@@std@@QAE@XZ 00400000 f   timecodedatagram.obj
 0001:fffff000       __unwindfunclet$??0sentry@?$basic_ostream@DU?$char_traits@D@std@@@std@@QAE@AAV12@@Z$0 00400000 f   timecodedatagram.obj
 0001:fffff000       __unwindfunclet$??0sentry@?$basic_ostream@DU?$char_traits@D@std@@@std@@QAE@AAV12@@Z$0 00400000 f   quaterniondatagram.obj
 0001:fffff000       __ehhandler$??1_Sentry_base@?$basic_ostream@DU?$char_traits@D@std@@@std@@QAE@XZ 00400000 f   timecodedatagram.obj
 0001:fffff000       __unwindfunclet$??$?6U?$char_traits@D@std@@@std@@YAAAV?$basic_ostream@DU?$char_traits@D@std@@@0@AAV10@PBD@Z$2 00400000 f   timecodedatagram.obj
 0001:fffff000       __unwindfunclet$??$_Insert_string@DU?$char_traits@D@std@@I@std@@YAAAV?$basic_ostream@DU?$char_traits@D@std@@@0@AAV10@QBDI@Z$2 00400000 f   metadatagram.obj
 0001:fffff000       __ehhandler$??1_Sentry_base@?$basic_ostream@DU?$char_traits@D@std@@@std@@QAE@XZ 00400000 f   quaterniondatagram.obj
 0001:fffff000       __unwindfunclet$??0sentry@?$basic_ostream@DU?$char_traits@D@std@@@std@@QAE@AAV12@@Z$0 00400000 f   jointanglesdatagram.obj
 0001:fffff000       __ehhandler$??1sentry@?$basic_ostream@DU?$char_traits@D@std@@@std@@QAE@XZ 00400000 f   metadatagram.obj
 0001:fffff000       __ehhandler$??1_Sentry_base@?$basic_ostream@DU?$char_traits@D@std@@@std@@QAE@XZ 00400000 f   jointanglesdatagram.obj
 0001:fffff000       __ehhandler$?_Orphan_all@_Container_base12@std@@QAEXXZ 00400000 f   streamer.obj
 0001:fffff000       __ehhandler$?c_str@?$basic_string@DU?$char_traits@D@std@@V?$allocator@D@2@@std@@QBEPBDXZ 00400000 f   timecodedatagram.obj
 0001:fffff000       __ehhandler$??1?$basic_string@DU?$char_traits@D@std@@V?$allocator@D@2@@std@@QAE@XZ 00400000 f   timecodedatagram.obj
 0001:fffff000       __ehhandler$??0?$basic_string@DU?$char_traits@D@std@@V?$allocator@D@2@@std@@QAE@XZ 00400000 f   timecodedatagram.obj
 0001:fffff000       __ehhandler$??1?$_String_alloc@U?$_String_base_types@DV?$allocator@D@std@@@std@@@std@@QAE@XZ 00400000 f   timecodedatagram.obj
 0001:fffff000       __unwindfunclet$??0?$_String_alloc@U?$_String_base_types@DV?$allocator@D@std@@@std@@@std@@QAE@XZ$0 00400000 f   timecodedatagram.obj
 0002:fffdd000       __ehfuncinfo$?_Orphan_all@_Container_base12@std@@QAEXXZ 00400000     streamer.obj
 0001:fffff000       __ehhandler$?_Orphan_all@_Container_base12@std@@QAEXXZ 00400000 f   timecodedatagram.obj
 0001:fffff000       __unwindfunclet$??$?6U?$char_traits@D@std@@@std@@YAAAV?$basic_ostream@DU?$char_traits@D@std@@@0@AAV10@PBD@Z$2 00400000 f   quaterniondatagram.obj
 0001:fffff000       __ehhandler$?_Orphan_all@_Container_base12@std@@QAEXXZ 00400000 f   datagram.obj
 0002:fffdd004       __guard_fids__             00400004     MSVCRTD:exe_main.obj
 0001:fffff008       __ehhandler$??0?$_String_alloc@U?$_String_base_types@DV?$allocator@D@std@@@std@@@std@@QAE@XZ 00400008 f   timecodedatagram.obj
 0001:fffff008       __ehhandler$??$_Insert_string@DU?$char_traits@D@std@@I@std@@YAAAV?$basic_ostream@DU?$char_traits@D@std@@@0@AAV10@QBDI@Z 00400008 f   metadatagram.obj
 0001:fffff008       __ehhandler$??0sentry@?$basic_ostream@DU?$char_traits@D@std@@@std@@QAE@AAV12@@Z 00400008 f   jointanglesdatagram.obj
 0001:fffff008       __ehhandler$??$?6U?$char_traits@D@std@@@std@@YAAAV?$basic_ostream@DU?$char_traits@D@std@@@0@AAV10@PBD@Z 00400008 f   timecodedatagram.obj
 0001:fffff008       __ehhandler$??0sentry@?$basic_ostream@DU?$char_traits@D@std@@@std@@QAE@AAV12@@Z 00400008 f   quaterniondatagram.obj
 0001:fffff008       __ehhandler$??0sentry@?$basic_ostream@DU?$char_traits@D@std@@@std@@QAE@AAV12@@Z 00400008 f   timecodedatagram.obj
 0002:fffdd008       __ehfuncinfo$??0?$_String_alloc@U?$_String_base_types@DV?$allocator@D@std@@@std@@@std@@QAE@XZ 00400008     timecodedatagram.obj
 0001:fffff008       __ehhandler$??0sentry@?$basic_istream@DU?$char_traits@D@std@@@std@@QAE@AAV12@_N@Z 00400008 f   metadatagram.obj
 0002:fffdd008       __ehfuncinfo$??0sentry@?$basic_ostream@DU?$char_traits@D@std@@@std@@QAE@AAV12@@Z 00400008     eulerdatagram.obj
 0001:fffff008       __ehhandler$??0sentry@?$basic_ostream@DU?$char_traits@D@std@@@std@@QAE@AAV12@@Z 00400008 f   eulerdatagram.obj
 0001:fffff008       __ehhandler$??$?0ABV?$allocator@D@std@@X@?$_String_alloc@U?$_String_base_types@DV?$allocator@D@std@@@std@@@std@@QAE@ABV?$allocator@D@1@@Z 00400008 f   metadatagram.obj
 0001:fffff008       __ehhandler$??$?6U?$char_traits@D@std@@@std@@YAAAV?$basic_ostream@DU?$char_traits@D@std@@@0@AAV10@PBD@Z 00400008 f   eulerdatagram.obj
 0001:fffff008       __ehhandler$??0?$_String_alloc@U?$_String_base_types@DV?$allocator@D@std@@@std@@@std@@QAE@XZ 00400008 f   metadatagram.obj
 0002:fffdd008       __guard_fids__             00400008     MSVCRTD:exe_main.obj
 0001:fffff008       __ehhandler$??$?6U?$char_traits@D@std@@@std@@YAAAV?$basic_ostream@DU?$char_traits@D@std@@@0@AAV10@PBD@Z 00400008 f   quaterniondatagram.obj
 0002:fffdd008       __ehfuncinfo$??0sentry@?$basic_ostream@DU?$char_traits@D@std@@@std@@QAE@AAV12@@Z 00400008     timecodedatagram.obj
 0002:fffdd008       __ehfuncinfo$??0sentry@?$basic_ostream@DU?$char_traits@D@std@@@std@@QAE@AAV12@@Z 00400008     scaledatagram.obj
 0002:fffdd008       __ehfuncinfo$??0sentry@?$basic_ostream@DU?$char_traits@D@std@@@std@@QAE@AAV12@@Z 00400008     centerofmassdatagram.obj
 0001:fffff008       __ehhandler$??0?$basic_string@DU?$char_traits@D@std@@V?$allocator@D@2@@std@@QAE@ABV01@@Z 00400008 f   metadatagram.obj
 0002:fffdd008       __ehfuncinfo$??$?0V?$allocator@D@std@@X@?$_String_alloc@U?$_String_base_types@DV?$allocator@D@std@@@std@@@std@@QAE@$$QAV?$allocator@D@1@@Z 00400008     scaledatagram.obj
 0001:fffff008       __ehhandler$??$?6U?$char_traits@D@std@@@std@@YAAAV?$basic_ostream@DU?$char_traits@D@std@@@0@AAV10@PBD@Z 00400008 f   scaledatagram.obj
 0002:fffdd008       __ehfuncinfo$??0sentry@?$basic_ostream@DU?$char_traits@D@std@@@std@@QAE@AAV12@@Z 00400008     quaterniondatagram.obj
 0001:fffff008       __ehhandler$??$?6U?$char_traits@D@std@@@std@@YAAAV?$basic_ostream@DU?$char_traits@D@std@@@0@AAV10@PBD@Z 00400008 f   datagram.obj
 0001:fffff008       __ehhandler$??0sentry@?$basic_ostream@DU?$char_traits@D@std@@@std@@QAE@AAV12@@Z 00400008 f   centerofmassdatagram.obj
 0001:fffff008       __ehhandler$??$?6U?$char_traits@D@std@@@std@@YAAAV?$basic_ostream@DU?$char_traits@D@std@@@0@AAV10@PBD@Z 00400008 f   centerofmassdatagram.obj
 0001:fffff008       __ehhandler$??0sentry@?$basic_ostream@DU?$char_traits@D@std@@@std@@QAE@AAV12@@Z 00400008 f   metadatagram.obj
 0001:fffff008       __ehhandler$??0sentry@?$basic_ostream@DU?$char_traits@D@std@@@std@@QAE@AAV12@@Z 00400008 f   datagram.obj
 0001:fffff008       __ehhandler$??$?6U?$char_traits@D@std@@@std@@YAAAV?$basic_ostream@DU?$char_traits@D@std@@@0@AAV10@PBD@Z 00400008 f   linearsegmentkinematicsdatagram.obj
 0002:fffdd008       __ehfuncinfo$??$?0V?$allocator@D@std@@X@?$_String_alloc@U?$_String_base_types@DV?$allocator@D@std@@@std@@@std@@QAE@$$QAV?$allocator@D@1@@Z 00400008     metadatagram.obj
 0002:fffdd008       __ehfuncinfo$??0sentry@?$basic_ostream@DU?$char_traits@D@std@@@std@@QAE@AAV12@@Z 00400008     metadatagram.obj
 0001:fffff008       __ehhandler$??$?0V?$allocator@D@std@@X@?$_String_alloc@U?$_String_base_types@DV?$allocator@D@std@@@std@@@std@@QAE@$$QAV?$allocator@D@1@@Z 00400008 f   scaledatagram.obj
 0001:fffff008       __ehhandler$??$?0V?$allocator@D@std@@X@?$_String_alloc@U?$_String_base_types@DV?$allocator@D@std@@@std@@@std@@QAE@$$QAV?$allocator@D@1@@Z 00400008 f   metadatagram.obj
 0002:fffdd008       __ehfuncinfo$??0?$basic_string@DU?$char_traits@D@std@@V?$allocator@D@2@@std@@QAE@QBD@Z 00400008     main.obj
 0002:fffdd008       __ehfuncinfo$??0?$_String_alloc@U?$_String_base_types@DV?$allocator@D@std@@@std@@@std@@QAE@XZ 00400008     main.obj
 0001:fffff008       __ehhandler$??$?6U?$char_traits@D@std@@@std@@YAAAV?$basic_ostream@DU?$char_traits@D@std@@@0@AAV10@PBD@Z 00400008 f   metadatagram.obj
 0001:fffff008       __ehhandler$??0?$basic_string@DU?$char_traits@D@std@@V?$allocator@D@2@@std@@QAE@QBD@Z 00400008 f   main.obj
 0001:fffff008       __ehhandler$??0?$_String_alloc@U?$_String_base_types@DV?$allocator@D@std@@@std@@@std@@QAE@XZ 00400008 f   main.obj
 0002:fffdd008       __ehfuncinfo$??0sentry@?$basic_ostream@DU?$char_traits@D@std@@@std@@QAE@AAV12@@Z 00400008     positiondatagram.obj
 0002:fffdd008       __ehfuncinfo$??0sentry@?$basic_ostream@DU?$char_traits@D@std@@@std@@QAE@AAV12@@Z 00400008     linearsegmentkinematicsdatagram.obj
 0002:fffdd008       __ehfuncinfo$??0sentry@?$basic_ostream@DU?$char_traits@D@std@@@std@@QAE@AAV12@@Z 00400008     jointanglesdatagram.obj
 0001:fffff008       __ehhandler$??$?6U?$char_traits@D@std@@@std@@YAAAV?$basic_ostream@DU?$char_traits@D@std@@@0@AAV10@PBD@Z 00400008 f   trackerkinematicsdatagram.obj
 0001:fffff008       __ehhandler$??0sentry@?$basic_ostream@DU?$char_traits@D@std@@@std@@QAE@AAV12@@Z 00400008 f   linearsegmentkinematicsdatagram.obj
 0001:fffff008       __ehhandler$??0?$basic_string@DU?$char_traits@D@std@@V?$allocator@D@2@@std@@QAE@QBD@Z 00400008 f   metadatagram.obj
 0002:fffdd008       __ehfuncinfo$??0sentry@?$basic_istream@DU?$char_traits@D@std@@@std@@QAE@AAV12@_N@Z 00400008     metadatagram.obj
 0001:fffff008       __ehhandler$??0sentry@?$basic_ostream@DU?$char_traits@D@std@@@std@@QAE@AAV12@@Z 00400008 f   trackerkinematicsdatagram.obj
 0001:fffff008       __ehhandler$??0sentry@?$basic_ostream@DU?$char_traits@D@std@@@std@@QAE@AAV12@@Z 00400008 f   positiondatagram.obj
 0001:fffff008       __ehhandler$??$?6U?$char_traits@D@std@@@std@@YAAAV?$basic_ostream@DU?$char_traits@D@std@@@0@AAV10@PBD@Z 00400008 f   positiondatagram.obj
 0001:fffff008       __ehhandler$??0sentry@?$basic_ostream@DU?$char_traits@D@std@@@std@@QAE@AAV12@@Z 00400008 f   scaledatagram.obj
 0002:fffdd008       __ehfuncinfo$??$?0ABV?$allocator@D@std@@X@?$_String_alloc@U?$_String_base_types@DV?$allocator@D@std@@@std@@@std@@QAE@ABV?$allocator@D@1@@Z 00400008     metadatagram.obj
 0002:fffdd008       __ehfuncinfo$??0sentry@?$basic_ostream@DU?$char_traits@D@std@@@std@@QAE@AAV12@@Z 00400008     trackerkinematicsdatagram.obj
 0002:fffdd008       __ehfuncinfo$??0?$_String_alloc@U?$_String_base_types@DV?$allocator@D@std@@@std@@@std@@QAE@XZ 00400008     metadatagram.obj
 0002:fffdd008       __ehfuncinfo$??0sentry@?$basic_ostream@DU?$char_traits@D@std@@@std@@QAE@AAV12@@Z 00400008     udpserver.obj
 0002:fffdd008       __ehfuncinfo$??0?$basic_string@DU?$char_traits@D@std@@V?$allocator@D@2@@std@@QAE@ABV01@@Z 00400008     scaledatagram.obj
 0001:fffff008       __ehhandler$??$_Insert_string@DU?$char_traits@D@std@@I@std@@YAAAV?$basic_ostream@DU?$char_traits@D@std@@@0@AAV10@QBDI@Z 00400008 f   scaledatagram.obj
 0002:fffdd008       __ehfuncinfo$??0?$basic_string@DU?$char_traits@D@std@@V?$allocator@D@2@@std@@QAE@ABV01@@Z 00400008     metadatagram.obj
 0002:fffdd008       __ehfuncinfo$??0?$_String_alloc@U?$_String_base_types@DV?$allocator@D@std@@@std@@@std@@QAE@XZ 00400008     scaledatagram.obj
 0002:fffdd008       __ehfuncinfo$??0?$basic_string@DU?$char_traits@D@std@@V?$allocator@D@2@@std@@QAE@QBD@Z 00400008     metadatagram.obj
 0001:fffff008       __ehhandler$??$?6U?$char_traits@D@std@@@std@@YAAAV?$basic_ostream@DU?$char_traits@D@std@@@0@AAV10@PBD@Z 00400008 f   udpserver.obj
 0001:fffff008       __ehhandler$??0?$_String_alloc@U?$_String_base_types@DV?$allocator@D@std@@@std@@@std@@QAE@XZ 00400008 f   scaledatagram.obj
 0001:fffff008       __ehhandler$??0sentry@?$basic_ostream@DU?$char_traits@D@std@@@std@@QAE@AAV12@@Z 00400008 f   udpserver.obj
 0002:fffdd008       __ehfuncinfo$??0sentry@?$basic_ostream@DU?$char_traits@D@std@@@std@@QAE@AAV12@@Z 00400008     datagram.obj
 0001:fffff008       __ehhandler$??$?6U?$char_traits@D@std@@@std@@YAAAV?$basic_ostream@DU?$char_traits@D@std@@@0@AAV10@PBD@Z 00400008 f   jointanglesdatagram.obj
 0001:fffff008       __ehhandler$??0?$basic_string@DU?$char_traits@D@std@@V?$allocator@D@2@@std@@QAE@ABV01@@Z 00400008 f   scaledatagram.obj
 0002:fffdd010       __tryblocktable$??$?6U?$char_traits@D@std@@@std@@YAAAV?$basic_ostream@DU?$char_traits@D@std@@@0@AAV10@PBD@Z 00400010     datagram.obj
 0002:fffdd010       __tryblocktable$??$?6U?$char_traits@D@std@@@std@@YAAAV?$basic_ostream@DU?$char_traits@D@std@@@0@AAV10@PBD@Z 00400010     eulerdatagram.obj
 0002:fffdd010       __tryblocktable$??$?6U?$char_traits@D@std@@@std@@YAAAV?$basic_ostream@DU?$char_traits@D@std@@@0@AAV10@PBD@Z 00400010     quaterniondatagram.obj
 0002:fffdd010       __tryblocktable$??$_Insert_string@DU?$char_traits@D@std@@I@std@@YAAAV?$basic_ostream@DU?$char_traits@D@std@@@0@AAV10@QBDI@Z 00400010     scaledatagram.obj
 0002:fffdd010       __tryblocktable$??$?6U?$char_traits@D@std@@@std@@YAAAV?$basic_ostream@DU?$char_traits@D@std@@@0@AAV10@PBD@Z 00400010     linearsegmentkinematicsdatagram.obj
 0002:fffdd010       __tryblocktable$??$?6U?$char_traits@D@std@@@std@@YAAAV?$basic_ostream@DU?$char_traits@D@std@@@0@AAV10@PBD@Z 00400010     trackerkinematicsdatagram.obj
 0002:fffdd010       __tryblocktable$??$?6U?$char_traits@D@std@@@std@@YAAAV?$basic_ostream@DU?$char_traits@D@std@@@0@AAV10@PBD@Z 00400010     timecodedatagram.obj
 0002:fffdd010       __tryblocktable$??$?6U?$char_traits@D@std@@@std@@YAAAV?$basic_ostream@DU?$char_traits@D@std@@@0@AAV10@PBD@Z 00400010     centerofmassdatagram.obj
 0002:fffdd010       __tryblocktable$??$?6U?$char_traits@D@std@@@std@@YAAAV?$basic_ostream@DU?$char_traits@D@std@@@0@AAV10@PBD@Z 00400010     positiondatagram.obj
 0002:fffdd010       __tryblocktable$??$?6U?$char_traits@D@std@@@std@@YAAAV?$basic_ostream@DU?$char_traits@D@std@@@0@AAV10@PBD@Z 00400010     metadatagram.obj
 0002:fffdd010       __tryblocktable$??$_Insert_string@DU?$char_traits@D@std@@I@std@@YAAAV?$basic_ostream@DU?$char_traits@D@std@@@0@AAV10@QBDI@Z 00400010     metadatagram.obj
 0002:fffdd010       __tryblocktable$??$?6U?$char_traits@D@std@@@std@@YAAAV?$basic_ostream@DU?$char_traits@D@std@@@0@AAV10@PBD@Z 00400010     jointanglesdatagram.obj
 0002:fffdd010       __tryblocktable$??$?6U?$char_traits@D@std@@@std@@YAAAV?$basic_ostream@DU?$char_traits@D@std@@@0@AAV10@PBD@Z 00400010     scaledatagram.obj
 0002:fffdd010       __tryblocktable$??$?6U?$char_traits@D@std@@@std@@YAAAV?$basic_ostream@DU?$char_traits@D@std@@@0@AAV10@PBD@Z 00400010     udpserver.obj
 0002:fffdd024       __unwindtable$??$?6U?$char_traits@D@std@@@std@@YAAAV?$basic_ostream@DU?$char_traits@D@std@@@0@AAV10@PBD@Z 00400024     scaledatagram.obj
 0002:fffdd024       __unwindtable$??$?6U?$char_traits@D@std@@@std@@YAAAV?$basic_ostream@DU?$char_traits@D@std@@@0@AAV10@PBD@Z 00400024     jointanglesdatagram.obj
 0002:fffdd024       __unwindtable$??$?6U?$char_traits@D@std@@@std@@YAAAV?$basic_ostream@DU?$char_traits@D@std@@@0@AAV10@PBD@Z 00400024     centerofmassdatagram.obj
 0002:fffdd024       __unwindtable$??$?6U?$char_traits@D@std@@@std@@YAAAV?$basic_ostream@DU?$char_traits@D@std@@@0@AAV10@PBD@Z 00400024     metadatagram.obj
 0002:fffdd024       __unwindtable$??$?6U?$char_traits@D@std@@@std@@YAAAV?$basic_ostream@DU?$char_traits@D@std@@@0@AAV10@PBD@Z 00400024     positiondatagram.obj
 0002:fffdd024       __unwindtable$??$?6U?$char_traits@D@std@@@std@@YAAAV?$basic_ostream@DU?$char_traits@D@std@@@0@AAV10@PBD@Z 00400024     trackerkinematicsdatagram.obj
 0002:fffdd024       __unwindtable$??$?6U?$char_traits@D@std@@@std@@YAAAV?$basic_ostream@DU?$char_traits@D@std@@@0@AAV10@PBD@Z 00400024     timecodedatagram.obj
 0002:fffdd024       __unwindtable$??$_Insert_string@DU?$char_traits@D@std@@I@std@@YAAAV?$basic_ostream@DU?$char_traits@D@std@@@0@AAV10@QBDI@Z 00400024     scaledatagram.obj
 0002:fffdd024       __unwindtable$??$?6U?$char_traits@D@std@@@std@@YAAAV?$basic_ostream@DU?$char_traits@D@std@@@0@AAV10@PBD@Z 00400024     linearsegmentkinematicsdatagram.obj
 0002:fffdd024       __unwindtable$??$?6U?$char_traits@D@std@@@std@@YAAAV?$basic_ostream@DU?$char_traits@D@std@@@0@AAV10@PBD@Z 00400024     udpserver.obj
 0002:fffdd024       __unwindtable$??$?6U?$char_traits@D@std@@@std@@YAAAV?$basic_ostream@DU?$char_traits@D@std@@@0@AAV10@PBD@Z 00400024     eulerdatagram.obj
 0002:fffdd024       __unwindtable$??$?6U?$char_traits@D@std@@@std@@YAAAV?$basic_ostream@DU?$char_traits@D@std@@@0@AAV10@PBD@Z 00400024     datagram.obj
 0002:fffdd024       __unwindtable$??$?6U?$char_traits@D@std@@@std@@YAAAV?$basic_ostream@DU?$char_traits@D@std@@@0@AAV10@PBD@Z 00400024     quaterniondatagram.obj
 0002:fffdd024       __unwindtable$??$_Insert_string@DU?$char_traits@D@std@@I@std@@YAAAV?$basic_ostream@DU?$char_traits@D@std@@@0@AAV10@QBDI@Z 00400024     metadatagram.obj
 0002:fffdd03c       __ehfuncinfo$??$?6U?$char_traits@D@std@@@std@@YAAAV?$basic_ostream@DU?$char_traits@D@std@@@0@AAV10@PBD@Z 0040003c     quaterniondatagram.obj
 0002:fffdd03c       __ehfuncinfo$??$_Insert_string@DU?$char_traits@D@std@@I@std@@YAAAV?$basic_ostream@DU?$char_traits@D@std@@@0@AAV10@QBDI@Z 0040003c     metadatagram.obj
 0002:fffdd03c       __ehfuncinfo$??$?6U?$char_traits@D@std@@@std@@YAAAV?$basic_ostream@DU?$char_traits@D@std@@@0@AAV10@PBD@Z 0040003c     positiondatagram.obj
 0002:fffdd03c       __ehfuncinfo$??$_Insert_string@DU?$char_traits@D@std@@I@std@@YAAAV?$basic_ostream@DU?$char_traits@D@std@@@0@AAV10@QBDI@Z 0040003c     scaledatagram.obj
 0002:fffdd03c       __ehfuncinfo$??$?6U?$char_traits@D@std@@@std@@YAAAV?$basic_ostream@DU?$char_traits@D@std@@@0@AAV10@PBD@Z 0040003c     centerofmassdatagram.obj
 0002:fffdd03c       __ehfuncinfo$??$?6U?$char_traits@D@std@@@std@@YAAAV?$basic_ostream@DU?$char_traits@D@std@@@0@AAV10@PBD@Z 0040003c     trackerkinematicsdatagram.obj
 0002:fffdd03c       __ehfuncinfo$??$?6U?$char_traits@D@std@@@std@@YAAAV?$basic_ostream@DU?$char_traits@D@std@@@0@AAV10@PBD@Z 0040003c     scaledatagram.obj
 0002:fffdd03c       __ehfuncinfo$??$?6U?$char_traits@D@std@@@std@@YAAAV?$basic_ostream@DU?$char_traits@D@std@@@0@AAV10@PBD@Z 0040003c     jointanglesdatagram.obj
 0002:fffdd03c       __ehfuncinfo$??$?6U?$char_traits@D@std@@@std@@YAAAV?$basic_ostream@DU?$char_traits@D@std@@@0@AAV10@PBD@Z 0040003c     udpserver.obj
 0002:fffdd03c       __ehfuncinfo$??$?6U?$char_traits@D@std@@@std@@YAAAV?$basic_ostream@DU?$char_traits@D@std@@@0@AAV10@PBD@Z 0040003c     linearsegmentkinematicsdatagram.obj
 0002:fffdd03c       __ehfuncinfo$??$?6U?$char_traits@D@std@@@std@@YAAAV?$basic_ostream@DU?$char_traits@D@std@@@0@AAV10@PBD@Z 0040003c     timecodedatagram.obj
 0002:fffdd03c       __ehfuncinfo$??$?6U?$char_traits@D@std@@@std@@YAAAV?$basic_ostream@DU?$char_traits@D@std@@@0@AAV10@PBD@Z 0040003c     eulerdatagram.obj
 0002:fffdd03c       __ehfuncinfo$??$?6U?$char_traits@D@std@@@std@@YAAAV?$basic_ostream@DU?$char_traits@D@std@@@0@AAV10@PBD@Z 0040003c     datagram.obj
 0002:fffdd03c       __ehfuncinfo$??$?6U?$char_traits@D@std@@@std@@YAAAV?$basic_ostream@DU?$char_traits@D@std@@@0@AAV10@PBD@Z 0040003c     metadatagram.obj
 0001:fffff263       __catch$??$_Insert_string@DU?$char_traits@D@std@@I@std@@YAAAV?$basic_ostream@DU?$char_traits@D@std@@@0@AAV10@QBDI@Z$0 00400263 f   scaledatagram.obj
 0001:fffff263       __catch$??$_Insert_string@DU?$char_traits@D@std@@I@std@@YAAAV?$basic_ostream@DU?$char_traits@D@std@@@0@AAV10@QBDI@Z$0 00400263 f   metadatagram.obj
 0001:fffff2ba       __catch$??$?6U?$char_traits@D@std@@@std@@YAAAV?$basic_ostream@DU?$char_traits@D@std@@@0@AAV10@PBD@Z$0 004002ba f   udpserver.obj
 0001:fffff2ba       __catch$??$?6U?$char_traits@D@std@@@std@@YAAAV?$basic_ostream@DU?$char_traits@D@std@@@0@AAV10@PBD@Z$0 004002ba f   datagram.obj
 0001:fffff2ba       __catch$??$?6U?$char_traits@D@std@@@std@@YAAAV?$basic_ostream@DU?$char_traits@D@std@@@0@AAV10@PBD@Z$0 004002ba f   eulerdatagram.obj
 0001:fffff2ba       __catch$??$?6U?$char_traits@D@std@@@std@@YAAAV?$basic_ostream@DU?$char_traits@D@std@@@0@AAV10@PBD@Z$0 004002ba f   trackerkinematicsdatagram.obj
 0001:fffff2ba       __catch$??$?6U?$char_traits@D@std@@@std@@YAAAV?$basic_ostream@DU?$char_traits@D@std@@@0@AAV10@PBD@Z$0 004002ba f   timecodedatagram.obj
 0001:fffff2ba       __catch$??$?6U?$char_traits@D@std@@@std@@YAAAV?$basic_ostream@DU?$char_traits@D@std@@@0@AAV10@PBD@Z$0 004002ba f   scaledatagram.obj
 0001:fffff2ba       __catch$??$?6U?$char_traits@D@std@@@std@@YAAAV?$basic_ostream@DU?$char_traits@D@std@@@0@AAV10@PBD@Z$0 004002ba f   jointanglesdatagram.obj
 0001:fffff2ba       __catch$??$?6U?$char_traits@D@std@@@std@@YAAAV?$basic_ostream@DU?$char_traits@D@std@@@0@AAV10@PBD@Z$0 004002ba f   positiondatagram.obj
 0001:fffff2ba       __catch$??$?6U?$char_traits@D@std@@@std@@YAAAV?$basic_ostream@DU?$char_traits@D@std@@@0@AAV10@PBD@Z$0 004002ba f   metadatagram.obj
 0001:fffff2ba       __catch$??$?6U?$char_traits@D@std@@@std@@YAAAV?$basic_ostream@DU?$char_traits@D@std@@@0@AAV10@PBD@Z$0 004002ba f   centerofmassdatagram.obj
 0001:fffff2ba       __catch$??$?6U?$char_traits@D@std@@@std@@YAAAV?$basic_ostream@DU?$char_traits@D@std@@@0@AAV10@PBD@Z$0 004002ba f   linearsegmentkinematicsdatagram.obj
 0001:fffff2ba       __catch$??$?6U?$char_traits@D@std@@@std@@YAAAV?$basic_ostream@DU?$char_traits@D@std@@@0@AAV10@PBD@Z$0 004002ba f   quaterniondatagram.obj
 0001:00000000       ??__Edeg2radValue@XsMath@@YAXXZ 00401000 f   angularsegmentkinematicsdatagram.obj
 0001:00000010       ??__Edenormalized@XsMath@@YAXXZ 00401010 f   angularsegmentkinematicsdatagram.obj
 0001:00000020       ??__Ee@XsMath@@YAXXZ       00401020 f   angularsegmentkinematicsdatagram.obj
 0001:00000030       ??__Eepsilon@XsMath@@YAXXZ 00401030 f   angularsegmentkinematicsdatagram.obj
 0001:00000040       ??__Efour@XsMath@@YAXXZ    00401040 f   angularsegmentkinematicsdatagram.obj
 0001:00000050       ??__EhalfPi@XsMath@@YAXXZ  00401050 f   angularsegmentkinematicsdatagram.obj
 0001:00000060       ??__EhugeValue@XsMath@@YAXXZ 00401060 f   angularsegmentkinematicsdatagram.obj
 0001:00000070       ??__Einfinity@XsMath@@YAXXZ 00401070 f   angularsegmentkinematicsdatagram.obj
 0001:00000080       ??__EminusHalfPi@XsMath@@YAXXZ 00401080 f   angularsegmentkinematicsdatagram.obj
 0001:00000090       ??__EminusOne@XsMath@@YAXXZ 00401090 f   angularsegmentkinematicsdatagram.obj
 0001:000000a0       ??__EminusPt5@XsMath@@YAXXZ 004010a0 f   angularsegmentkinematicsdatagram.obj
 0001:000000b0       ??__EminusTwo@XsMath@@YAXXZ 004010b0 f   angularsegmentkinematicsdatagram.obj
 0001:000000c0       ??__Eone@XsMath@@YAXXZ     004010c0 f   angularsegmentkinematicsdatagram.obj
 0001:000000d0       ??__Epi@XsMath@@YAXXZ      004010d0 f   angularsegmentkinematicsdatagram.obj
 0001:000000e0       ??__Ept25@XsMath@@YAXXZ    004010e0 f   angularsegmentkinematicsdatagram.obj
 0001:000000f0       ??__Ept5@XsMath@@YAXXZ     004010f0 f   angularsegmentkinematicsdatagram.obj
 0001:00000100       ??__Erad2degValue@XsMath@@YAXXZ 00401100 f   angularsegmentkinematicsdatagram.obj
 0001:00000110       ??__Esqrt2@XsMath@@YAXXZ   00401110 f   angularsegmentkinematicsdatagram.obj
 0001:00000120       ??__EsqrtDenormalized@XsMath@@YAXXZ 00401120 f   angularsegmentkinematicsdatagram.obj
 0001:00000130       ??__EsqrtEpsilon@XsMath@@YAXXZ 00401130 f   angularsegmentkinematicsdatagram.obj
 0001:00000140       ??__EsqrtHalf@XsMath@@YAXXZ 00401140 f   angularsegmentkinematicsdatagram.obj
 0001:00000150       ??__EtinyValue@XsMath@@YAXXZ 00401150 f   angularsegmentkinematicsdatagram.obj
 0001:00000160       ??__Etwo@XsMath@@YAXXZ     00401160 f   angularsegmentkinematicsdatagram.obj
 0001:00000170       ??__EtwoPi@XsMath@@YAXXZ   00401170 f   angularsegmentkinematicsdatagram.obj
 0001:00000180       ??__Ezero@XsMath@@YAXXZ    00401180 f   angularsegmentkinematicsdatagram.obj
 0001:00000190       ??__Edeg2radValue@XsMath@@YAXXZ 00401190 f   eulerdatagram.obj
 0001:000001a0       ??__Edenormalized@XsMath@@YAXXZ 004011a0 f   eulerdatagram.obj
 0001:000001b0       ??__Ee@XsMath@@YAXXZ       004011b0 f   eulerdatagram.obj
 0001:000001c0       ??__Eepsilon@XsMath@@YAXXZ 004011c0 f   eulerdatagram.obj
 0001:000001d0       ??__Efour@XsMath@@YAXXZ    004011d0 f   eulerdatagram.obj
 0001:000001e0       ??__EhalfPi@XsMath@@YAXXZ  004011e0 f   eulerdatagram.obj
 0001:000001f0       ??__EhugeValue@XsMath@@YAXXZ 004011f0 f   eulerdatagram.obj
 0001:00000200       ??__Einfinity@XsMath@@YAXXZ 00401200 f   eulerdatagram.obj
 0001:00000210       ??__EminusHalfPi@XsMath@@YAXXZ 00401210 f   eulerdatagram.obj
 0001:00000220       ??__EminusOne@XsMath@@YAXXZ 00401220 f   eulerdatagram.obj
 0001:00000230       ??__EminusPt5@XsMath@@YAXXZ 00401230 f   eulerdatagram.obj
 0001:00000240       ??__EminusTwo@XsMath@@YAXXZ 00401240 f   eulerdatagram.obj
 0001:00000250       ??__Eone@XsMath@@YAXXZ     00401250 f   eulerdatagram.obj
 0001:00000260       ??__Epi@XsMath@@YAXXZ      00401260 f   eulerdatagram.obj
 0001:00000270       ??__Ept25@XsMath@@YAXXZ    00401270 f   eulerdatagram.obj
 0001:00000280       ??__Ept5@XsMath@@YAXXZ     00401280 f   eulerdatagram.obj
 0001:00000290       ??__Erad2degValue@XsMath@@YAXXZ 00401290 f   eulerdatagram.obj
 0001:000002a0       ??__Esqrt2@XsMath@@YAXXZ   004012a0 f   eulerdatagram.obj
 0001:000002b0       ??__EsqrtDenormalized@XsMath@@YAXXZ 004012b0 f   eulerdatagram.obj
 0001:000002c0       ??__EsqrtEpsilon@XsMath@@YAXXZ 004012c0 f   eulerdatagram.obj
 0001:000002d0       ??__EsqrtHalf@XsMath@@YAXXZ 004012d0 f   eulerdatagram.obj
 0001:000002e0       ??__EtinyValue@XsMath@@YAXXZ 004012e0 f   eulerdatagram.obj
 0001:000002f0       ??__Etwo@XsMath@@YAXXZ     004012f0 f   eulerdatagram.obj
 0001:00000300       ??__EtwoPi@XsMath@@YAXXZ   00401300 f   eulerdatagram.obj
 0001:00000310       ??__Ezero@XsMath@@YAXXZ    00401310 f   eulerdatagram.obj
 0001:00000320       ??__EmilliSecPerDay@XsTime@@YAXXZ 00401320 f   main.obj
 0001:00000330       ??__EsecPerDay@XsTime@@YAXXZ 00401330 f   main.obj
 0001:00000340       ??__EtimeStampMax@XsTime@@YAXXZ 00401340 f   main.obj
 0001:00000350       ??__Edeg2radValue@XsMath@@YAXXZ 00401350 f   quaterniondatagram.obj
 0001:00000360       ??__Edenormalized@XsMath@@YAXXZ 00401360 f   quaterniondatagram.obj
 0001:00000370       ??__Ee@XsMath@@YAXXZ       00401370 f   quaterniondatagram.obj
 0001:00000380       ??__Eepsilon@XsMath@@YAXXZ 00401380 f   quaterniondatagram.obj
 0001:00000390       ??__Efour@XsMath@@YAXXZ    00401390 f   quaterniondatagram.obj
 0001:000003a0       ??__EhalfPi@XsMath@@YAXXZ  004013a0 f   quaterniondatagram.obj
 0001:000003b0       ??__EhugeValue@XsMath@@YAXXZ 004013b0 f   quaterniondatagram.obj
 0001:000003c0       ??__Einfinity@XsMath@@YAXXZ 004013c0 f   quaterniondatagram.obj
 0001:000003d0       ??__EminusHalfPi@XsMath@@YAXXZ 004013d0 f   quaterniondatagram.obj
 0001:000003e0       ??__EminusOne@XsMath@@YAXXZ 004013e0 f   quaterniondatagram.obj
 0001:000003f0       ??__EminusPt5@XsMath@@YAXXZ 004013f0 f   quaterniondatagram.obj
 0001:00000400       ??__EminusTwo@XsMath@@YAXXZ 00401400 f   quaterniondatagram.obj
 0001:00000410       ??__Eone@XsMath@@YAXXZ     00401410 f   quaterniondatagram.obj
 0001:00000420       ??__Epi@XsMath@@YAXXZ      00401420 f   quaterniondatagram.obj
 0001:00000430       ??__Ept25@XsMath@@YAXXZ    00401430 f   quaterniondatagram.obj
 0001:00000440       ??__Ept5@XsMath@@YAXXZ     00401440 f   quaterniondatagram.obj
 0001:00000450       ??__Erad2degValue@XsMath@@YAXXZ 00401450 f   quaterniondatagram.obj
 0001:00000460       ??__Esqrt2@XsMath@@YAXXZ   00401460 f   quaterniondatagram.obj
 0001:00000470       ??__EsqrtDenormalized@XsMath@@YAXXZ 00401470 f   quaterniondatagram.obj
 0001:00000480       ??__EsqrtEpsilon@XsMath@@YAXXZ 00401480 f   quaterniondatagram.obj
 0001:00000490       ??__EsqrtHalf@XsMath@@YAXXZ 00401490 f   quaterniondatagram.obj
 0001:000004a0       ??__EtinyValue@XsMath@@YAXXZ 004014a0 f   quaterniondatagram.obj
 0001:000004b0       ??__Etwo@XsMath@@YAXXZ     004014b0 f   quaterniondatagram.obj
 0001:000004c0       ??__EtwoPi@XsMath@@YAXXZ   004014c0 f   quaterniondatagram.obj
 0001:000004d0       ??__Ezero@XsMath@@YAXXZ    004014d0 f   quaterniondatagram.obj
 0001:000004e0       ??__EmilliSecPerDay@XsTime@@YAXXZ 004014e0 f   udpserver.obj
 0001:000004f0       ??__EsecPerDay@XsTime@@YAXXZ 004014f0 f   udpserver.obj
 0001:00000500       ??__EtimeStampMax@XsTime@@YAXXZ 00401500 f   udpserver.obj
 0001:00000510       ??__E_Fac_tidy_reg@std@@YAXXZ 00401510 f   msvcprtd:locale0_implib.obj
 0001:00000e8a       __catch$??$?6U?$char_traits@D@std@@@std@@YAAAV?$basic_ostream@DU?$char_traits@D@std@@@0@AAV10@PBD@Z$0 00401e8a f i angularsegmentkinematicsdatagram.obj
 0001:000012c6       __catch$??$_Emplace_reallocate@ABUKinematics@AngularSegmentKinematicsDatagram@@@?$vector@UKinematics@AngularSegmentKinematicsDatagram@@V?$allocator@UKinematics@AngularSegmentKinematicsDatagram@@@std@@@std@@QAEPAUKinematics@AngularSegmentKinematicsDatagram@@QAU23@ABU23@@Z$0 004022c6 f i angularsegmentkinematicsdatagram.obj
 0001:00003851       __catch$??$?5DU?$char_traits@D@std@@V?$allocator@D@1@@std@@YAAAV?$basic_istream@DU?$char_traits@D@std@@@0@$$QAV10@AAV?$basic_string@DU?$char_traits@D@std@@V?$allocator@D@2@@0@@Z$0 00404851 f i datagram.obj
 0001:00003ba2       __catch$??$?6U?$char_traits@D@std@@@std@@YAAAV?$basic_ostream@DU?$char_traits@D@std@@@0@AAV10@D@Z$0 00404ba2 f i datagram.obj
 0001:00003d49       __catch$??$_Buynode@ABUpiecewise_construct_t@std@@V?$tuple@$$QAH@2@V?$tuple@$$V@2@@?$_Tree_comp_alloc@V?$_Tmap_traits@HV?$basic_string@DU?$char_traits@D@std@@V?$allocator@D@2@@std@@U?$less@H@2@V?$allocator@U?$pair@$$CBHV?$basic_string@DU?$char_traits@D@std@@V?$allocator@D@2@@std@@@std@@@2@$0A@@std@@@std@@QAEPAU?$_Tree_node@U?$pair@$$CBHV?$basic_string@DU?$char_traits@D@std@@V?$allocator@D@2@@std@@@std@@PAX@1@ABUpiecewise_construct_t@1@$$QAV?$tuple@$$QAH@1@$$QAV?$tuple@$$V@1@@Z$0 00404d49 f i datagram.obj
 0001:00004f29       __catch$??$_Insert_hint@AAU?$pair@$$CBHV?$basic_string@DU?$char_traits@D@std@@V?$allocator@D@2@@std@@@std@@PAU?$_Tree_node@U?$pair@$$CBHV?$basic_string@DU?$char_traits@D@std@@V?$allocator@D@2@@std@@@std@@PAX@2@@?$_Tree@V?$_Tmap_traits@HV?$basic_string@DU?$char_traits@D@std@@V?$allocator@D@2@@std@@U?$less@H@2@V?$allocator@U?$pair@$$CBHV?$basic_string@DU?$char_traits@D@std@@V?$allocator@D@2@@std@@@std@@@2@$0A@@std@@@std@@IAE?AV?$_Tree_iterator@V?$_Tree_val@U?$_Tree_simple_types@U?$pair@$$CBHV?$basic_string@DU?$char_traits@D@std@@V?$allocator@D@2@@std@@@std@@@std@@@std@@@1@V?$_Tree_const_iterator@V?$_Tree_val@U?$_Tree_simple_types@U?$pair@$$CBHV?$basic_string@DU?$char_traits@D@std@@V?$allocator@D@2@@std@@@std@@@std@@@std@@@1@AAU?$pair@$$CBHV?$basic_string@DU?$char_traits@D@std@@V?$allocator@D@2@@std@@@1@PAU?$_Tree_node@U?$pair@$$CBHV?$basic_string@DU?$char_traits@D@std@@V?$allocator@D@2@@std@@@std@@PAX@1@@Z$0 00405f29 f i datagram.obj
 0001:00005376       __catch$??$_Insert_nohint@AAU?$pair@$$CBHV?$basic_string@DU?$char_traits@D@std@@V?$allocator@D@2@@std@@@std@@PAU?$_Tree_node@U?$pair@$$CBHV?$basic_string@DU?$char_traits@D@std@@V?$allocator@D@2@@std@@@std@@PAX@2@@?$_Tree@V?$_Tmap_traits@HV?$basic_string@DU?$char_traits@D@std@@V?$allocator@D@2@@std@@U?$less@H@2@V?$allocator@U?$pair@$$CBHV?$basic_string@DU?$char_traits@D@std@@V?$allocator@D@2@@std@@@std@@@2@$0A@@std@@@std@@IAE?AU?$pair@V?$_Tree_iterator@V?$_Tree_val@U?$_Tree_simple_types@U?$pair@$$CBHV?$basic_string@DU?$char_traits@D@std@@V?$allocator@D@2@@std@@@std@@@std@@@std@@@std@@_N@1@_NAAU?$pair@$$CBHV?$basic_string@DU?$char_traits@D@std@@V?$allocator@D@2@@std@@@1@PAU?$_Tree_node@U?$pair@$$CBHV?$basic_string@DU?$char_traits@D@std@@V?$allocator@D@2@@std@@@std@@PAX@1@@Z$0 00406376 f i datagram.obj
 0001:00005623       __catch$??$_Insert_string@DU?$char_traits@D@std@@I@std@@YAAAV?$basic_ostream@DU?$char_traits@D@std@@@0@AAV10@QBDI@Z$0 00406623 f i datagram.obj
 0001:00005790       ??$_Reallocate_for@V<lambda_9366063389c5f42a00a5088cf24e69de>@@PBD@?$basic_string@DU?$char_traits@D@std@@V?$allocator@D@2@@std@@QAEAAV01@IV<lambda_9366063389c5f42a00a5088cf24e69de>@@PBD@Z 00406790 f   datagram.obj
 0001:00005880       ??$_Reallocate_grow_by@V<lambda_4d79bb85f269e6e8002a4599002d832c>@@IPBDI@?$basic_string@DU?$char_traits@D@std@@V?$allocator@D@2@@std@@QAEAAV01@IV<lambda_4d79bb85f269e6e8002a4599002d832c>@@IPBDI@Z 00406880 f   datagram.obj
 0001:000059c0       ??$_Reallocate_grow_by@V<lambda_c1b8c41cb4019640539cfd828748c4d4>@@ID@?$basic_string@DU?$char_traits@D@std@@V?$allocator@D@2@@std@@QAEAAV01@IV<lambda_c1b8c41cb4019640539cfd828748c4d4>@@ID@Z 004069c0 f   datagram.obj
 0001:00007880       ??R<lambda_4d79bb85f269e6e8002a4599002d832c>@@QBEXQADQBDII1I@Z 00408880 f   datagram.obj
 0001:000078e0       ??R<lambda_9366063389c5f42a00a5088cf24e69de>@@QBEXQADIQBD@Z 004088e0 f   datagram.obj
 0001:00007920       ??R<lambda_c1b8c41cb4019640539cfd828748c4d4>@@QBEXQADQBDIID@Z 00408920 f   datagram.obj
 0001:00007e5d       __catch$?_Buyheadnode@?$_Tree_comp_alloc@V?$_Tmap_traits@HV?$basic_string@DU?$char_traits@D@std@@V?$allocator@D@2@@std@@U?$less@H@2@V?$allocator@U?$pair@$$CBHV?$basic_string@DU?$char_traits@D@std@@V?$allocator@D@2@@std@@@std@@@2@$0A@@std@@@std@@QAEPAU?$_Tree_node@U?$pair@$$CBHV?$basic_string@DU?$char_traits@D@std@@V?$allocator@D@2@@std@@@std@@PAX@2@XZ$0 00408e5d f i datagram.obj
 0001:00007f71       __catch$?_Buynode0@?$_Tree_comp_alloc@V?$_Tmap_traits@HV?$basic_string@DU?$char_traits@D@std@@V?$allocator@D@2@@std@@U?$less@H@2@V?$allocator@U?$pair@$$CBHV?$basic_string@DU?$char_traits@D@std@@V?$allocator@D@2@@std@@@std@@@2@$0A@@std@@@std@@QAEPAU?$_Tree_node@U?$pair@$$CBHV?$basic_string@DU?$char_traits@D@std@@V?$allocator@D@2@@std@@@std@@PAX@2@XZ$0 00408f71 f i datagram.obj
 0001:00008119       __catch$?_Construct@?$_Tree_comp_alloc@V?$_Tmap_traits@HV?$basic_string@DU?$char_traits@D@std@@V?$allocator@D@2@@std@@U?$less@H@2@V?$allocator@U?$pair@$$CBHV?$basic_string@DU?$char_traits@D@std@@V?$allocator@D@2@@std@@@std@@@2@$0A@@std@@@std@@QAEXXZ$0 00409119 f i datagram.obj
 0001:0000bbc6       __catch$??$_Emplace_reallocate@ABUKinematics@EulerDatagram@@@?$vector@UKinematics@EulerDatagram@@V?$allocator@UKinematics@EulerDatagram@@@std@@@std@@QAEPAUKinematics@EulerDatagram@@QAU23@ABU23@@Z$0 0040cbc6 f i eulerdatagram.obj
 0001:0000ce86       __catch$??$_Emplace_reallocate@ABUJoint@JointAnglesDatagram@@@?$vector@UJoint@JointAnglesDatagram@@V?$allocator@UJoint@JointAnglesDatagram@@@std@@@std@@QAEPAUJoint@JointAnglesDatagram@@QAU23@ABU23@@Z$0 0040de86 f i jointanglesdatagram.obj
 0001:0000e206       __catch$??$_Emplace_reallocate@ABUKinematics@LinearSegmentKinematicsDatagram@@@?$vector@UKinematics@LinearSegmentKinematicsDatagram@@V?$allocator@UKinematics@LinearSegmentKinematicsDatagram@@@std@@@std@@QAEPAUKinematics@LinearSegmentKinematicsDatagram@@QAU23@ABU23@@Z$0 0040f206 f i linearsegmentkinematicsdatagram.obj
 0001:0000ee10       ??$_Reallocate_for@V<lambda_9366063389c5f42a00a5088cf24e69de>@@PBD@?$basic_string@DU?$char_traits@D@std@@V?$allocator@D@2@@std@@QAEAAV01@IV<lambda_9366063389c5f42a00a5088cf24e69de>@@PBD@Z 0040fe10 f   main.obj
 0001:0000efe0       ??R<lambda_9366063389c5f42a00a5088cf24e69de>@@QBEXQADIQBD@Z 0040ffe0 f   main.obj
 0001:0000ff5f       __catch$??$_Buynode@AAU?$pair@$$CBV?$basic_string@DU?$char_traits@D@std@@V?$allocator@D@2@@std@@V12@@std@@@?$_Tree_comp_alloc@V?$_Tmap_traits@V?$basic_string@DU?$char_traits@D@std@@V?$allocator@D@2@@std@@V12@U?$less@V?$basic_string@DU?$char_traits@D@std@@V?$allocator@D@2@@std@@@2@V?$allocator@U?$pair@$$CBV?$basic_string@DU?$char_traits@D@std@@V?$allocator@D@2@@std@@V12@@std@@@2@$0A@@std@@@std@@QAEPAU?$_Tree_node@U?$pair@$$CBV?$basic_string@DU?$char_traits@D@std@@V?$allocator@D@2@@std@@V12@@std@@PAX@1@AAU?$pair@$$CBV?$basic_string@DU?$char_traits@D@std@@V?$allocator@D@2@@std@@V12@@1@@Z$0 00410f5f f i metadatagram.obj
 0001:0001002f       __catch$??$_Buynode@U?$pair@V?$basic_string@DU?$char_traits@D@std@@V?$allocator@D@2@@std@@V12@@std@@@?$_Tree_comp_alloc@V?$_Tmap_traits@V?$basic_string@DU?$char_traits@D@std@@V?$allocator@D@2@@std@@V12@U?$less@V?$basic_string@DU?$char_traits@D@std@@V?$allocator@D@2@@std@@@2@V?$allocator@U?$pair@$$CBV?$basic_string@DU?$char_traits@D@std@@V?$allocator@D@2@@std@@V12@@std@@@2@$0A@@std@@@std@@QAEPAU?$_Tree_node@U?$pair@$$CBV?$basic_string@DU?$char_traits@D@std@@V?$allocator@D@2@@std@@V12@@std@@PAX@1@$$QAU?$pair@V?$basic_string@DU?$char_traits@D@std@@V?$allocator@D@2@@std@@V12@@1@@Z$0 0041102f f i metadatagram.obj
 0001:0001022d       __catch$??$_Copy_nodes@U_Copy_tag@?$_Tree@V?$_Tmap_traits@V?$basic_string@DU?$char_traits@D@std@@V?$allocator@D@2@@std@@V12@U?$less@V?$basic_string@DU?$char_traits@D@std@@V?$allocator@D@2@@std@@@2@V?$allocator@U?$pair@$$CBV?$basic_string@DU?$char_traits@D@std@@V?$allocator@D@2@@std@@V12@@std@@@2@$0A@@std@@@std@@@?$_Tree@V?$_Tmap_traits@V?$basic_string@DU?$char_traits@D@std@@V?$allocator@D@2@@std@@V12@U?$less@V?$basic_string@DU?$char_traits@D@std@@V?$allocator@D@2@@std@@@2@V?$allocator@U?$pair@$$CBV?$basic_string@DU?$char_traits@D@std@@V?$allocator@D@2@@std@@V12@@std@@@2@$0A@@std@@@std@@IAEPAU?$_Tree_node@U?$pair@$$CBV?$basic_string@DU?$char_traits@D@std@@V?$allocator@D@2@@std@@V12@@std@@PAX@1@PAU21@0U_Copy_tag@01@@Z$0 0041122d f i metadatagram.obj
 0001:00010736       __catch$??$_Emplace_reallocate@ABV?$basic_string@DU?$char_traits@D@std@@V?$allocator@D@2@@std@@@?$vector@V?$basic_string@DU?$char_traits@D@std@@V?$allocator@D@2@@std@@V?$allocator@V?$basic_string@DU?$char_traits@D@std@@V?$allocator@D@2@@std@@@2@@std@@QAEPAV?$basic_string@DU?$char_traits@D@std@@V?$allocator@D@2@@1@QAV21@ABV21@@Z$0 00411736 f i metadatagram.obj
 0001:00010eb6       __catch$??$_Insert_nohint@AAU?$pair@$$CBV?$basic_string@DU?$char_traits@D@std@@V?$allocator@D@2@@std@@V12@@std@@PAU?$_Tree_node@U?$pair@$$CBV?$basic_string@DU?$char_traits@D@std@@V?$allocator@D@2@@std@@V12@@std@@PAX@2@@?$_Tree@V?$_Tmap_traits@V?$basic_string@DU?$char_traits@D@std@@V?$allocator@D@2@@std@@V12@U?$less@V?$basic_string@DU?$char_traits@D@std@@V?$allocator@D@2@@std@@@2@V?$allocator@U?$pair@$$CBV?$basic_string@DU?$char_traits@D@std@@V?$allocator@D@2@@std@@V12@@std@@@2@$0A@@std@@@std@@IAE?AU?$pair@V?$_Tree_iterator@V?$_Tree_val@U?$_Tree_simple_types@U?$pair@$$CBV?$basic_string@DU?$char_traits@D@std@@V?$allocator@D@2@@std@@V12@@std@@@std@@@std@@@std@@_N@1@_NAAU?$pair@$$CBV?$basic_string@DU?$char_traits@D@std@@V?$allocator@D@2@@std@@V12@@1@PAU?$_Tree_node@U?$pair@$$CBV?$basic_string@DU?$char_traits@D@std@@V?$allocator@D@2@@std@@V12@@std@@PAX@1@@Z$0 00411eb6 f i metadatagram.obj
 0001:000110b0       ??$_Reallocate_for@V<lambda_9366063389c5f42a00a5088cf24e69de>@@PBD@?$basic_string@DU?$char_traits@D@std@@V?$allocator@D@2@@std@@QAEAAV01@IV<lambda_9366063389c5f42a00a5088cf24e69de>@@PBD@Z 004120b0 f   metadatagram.obj
 0001:000111a0       ??$_Reallocate_grow_by@V<lambda_15711c68e099a15a58f4d77303cb286d>@@D@?$basic_string@DU?$char_traits@D@std@@V?$allocator@D@2@@std@@QAEAAV01@IV<lambda_15711c68e099a15a58f4d77303cb286d>@@D@Z 004121a0 f   metadatagram.obj
 0001:000112d0       ??$_Reallocate_grow_by@V<lambda_4d79bb85f269e6e8002a4599002d832c>@@IPBDI@?$basic_string@DU?$char_traits@D@std@@V?$allocator@D@2@@std@@QAEAAV01@IV<lambda_4d79bb85f269e6e8002a4599002d832c>@@IPBDI@Z 004122d0 f   metadatagram.obj
 0001:00011410       ??$_Reallocate_grow_by@V<lambda_ab246b20b9526e2ef7792587e4298a77>@@PBDI@?$basic_string@DU?$char_traits@D@std@@V?$allocator@D@2@@std@@QAEAAV01@IV<lambda_ab246b20b9526e2ef7792587e4298a77>@@PBDI@Z 00412410 f   metadatagram.obj
 0001:00011ded       __catch$??$getline@DU?$char_traits@D@std@@V?$allocator@D@2@@std@@YAAAV?$basic_istream@DU?$char_traits@D@std@@@0@$$QAV10@AAV?$basic_string@DU?$char_traits@D@std@@V?$allocator@D@2@@0@D@Z$0 00412ded f i metadatagram.obj
 0001:000124bb       __catch$??0?$vector@V?$basic_string@DU?$char_traits@D@std@@V?$allocator@D@2@@std@@V?$allocator@V?$basic_string@DU?$char_traits@D@std@@V?$allocator@D@2@@std@@@2@@std@@QAE@ABV01@@Z$0 004134bb f i metadatagram.obj
 0001:00012d70       ??R<lambda_15711c68e099a15a58f4d77303cb286d>@@QBEXQADQBDID@Z 00413d70 f   metadatagram.obj
 0001:00012dd0       ??R<lambda_4d79bb85f269e6e8002a4599002d832c>@@QBEXQADQBDII1I@Z 00413dd0 f   metadatagram.obj
 0001:00012e30       ??R<lambda_9366063389c5f42a00a5088cf24e69de>@@QBEXQADIQBD@Z 00413e30 f   metadatagram.obj
 0001:00012e70       ??R<lambda_ab246b20b9526e2ef7792587e4298a77>@@QBEXQADQBDI1I@Z 00413e70 f   metadatagram.obj
 0001:000131fd       __catch$?_Buyheadnode@?$_Tree_comp_alloc@V?$_Tmap_traits@V?$basic_string@DU?$char_traits@D@std@@V?$allocator@D@2@@std@@V12@U?$less@V?$basic_string@DU?$char_traits@D@std@@V?$allocator@D@2@@std@@@2@V?$allocator@U?$pair@$$CBV?$basic_string@DU?$char_traits@D@std@@V?$allocator@D@2@@std@@V12@@std@@@2@$0A@@std@@@std@@QAEPAU?$_Tree_node@U?$pair@$$CBV?$basic_string@DU?$char_traits@D@std@@V?$allocator@D@2@@std@@V12@@std@@PAX@2@XZ$0 004141fd f i metadatagram.obj
 0001:00013311       __catch$?_Buynode0@?$_Tree_comp_alloc@V?$_Tmap_traits@V?$basic_string@DU?$char_traits@D@std@@V?$allocator@D@2@@std@@V12@U?$less@V?$basic_string@DU?$char_traits@D@std@@V?$allocator@D@2@@std@@@2@V?$allocator@U?$pair@$$CBV?$basic_string@DU?$char_traits@D@std@@V?$allocator@D@2@@std@@V12@@std@@@2@$0A@@std@@@std@@QAEPAU?$_Tree_node@U?$pair@$$CBV?$basic_string@DU?$char_traits@D@std@@V?$allocator@D@2@@std@@V12@@std@@PAX@2@XZ$0 00414311 f i metadatagram.obj
 0001:000134d9       __catch$?_Construct@?$_Tree_comp_alloc@V?$_Tmap_traits@V?$basic_string@DU?$char_traits@D@std@@V?$allocator@D@2@@std@@V12@U?$less@V?$basic_string@DU?$char_traits@D@std@@V?$allocator@D@2@@std@@@2@V?$allocator@U?$pair@$$CBV?$basic_string@DU?$char_traits@D@std@@V?$allocator@D@2@@std@@V12@@std@@@2@$0A@@std@@@std@@QAEXXZ$0 004144d9 f i metadatagram.obj
 0001:00015764       $LN52                      00416764     parsermanager.obj
 0001:00015794       $LN50                      00416794     parsermanager.obj
 0001:00015da7       __catch$??$_Emplace_reallocate@ABUVirtualMarkerSet@PositionDatagram@@@?$vector@UVirtualMarkerSet@PositionDatagram@@V?$allocator@UVirtualMarkerSet@PositionDatagram@@@std@@@std@@QAEPAUVirtualMarkerSet@PositionDatagram@@QAU23@ABU23@@Z$0 00416da7 f i positiondatagram.obj
 0001:00017067       __catch$??$_Emplace_reallocate@ABUKinematics@QuaternionDatagram@@@?$vector@UKinematics@QuaternionDatagram@@V?$allocator@UKinematics@QuaternionDatagram@@@std@@@std@@QAEPAUKinematics@QuaternionDatagram@@QAU23@ABU23@@Z$0 00418067 f i quaterniondatagram.obj
 0001:000187b6       __catch$??$_Emplace_reallocate@ABUNullPoseDefinition@ScaleDatagram@@@?$vector@UNullPoseDefinition@ScaleDatagram@@V?$allocator@UNullPoseDefinition@ScaleDatagram@@@std@@@std@@QAEPAUNullPoseDefinition@ScaleDatagram@@QAU23@ABU23@@Z$0 004197b6 f i scaledatagram.obj
 0001:00018996       __catch$??$_Emplace_reallocate@ABUPointDefinition@ScaleDatagram@@@?$vector@UPointDefinition@ScaleDatagram@@V?$allocator@UPointDefinition@ScaleDatagram@@@std@@@std@@QAEPAUPointDefinition@ScaleDatagram@@QAU23@ABU23@@Z$0 00419996 f i scaledatagram.obj
 0001:00018a30       ??$_Reallocate_for@V<lambda_9366063389c5f42a00a5088cf24e69de>@@PBD@?$basic_string@DU?$char_traits@D@std@@V?$allocator@D@2@@std@@QAEAAV01@IV<lambda_9366063389c5f42a00a5088cf24e69de>@@PBD@Z 00419a30 f   scaledatagram.obj
 0001:000195a0       ??R<lambda_9366063389c5f42a00a5088cf24e69de>@@QBEXQADIQBD@Z 0041a5a0 f   scaledatagram.obj
 0001:0001a9c0       ??$_Reallocate_for@V<lambda_9366063389c5f42a00a5088cf24e69de>@@PBD@?$basic_string@DU?$char_traits@D@std@@V?$allocator@D@2@@std@@QAEAAV01@IV<lambda_9366063389c5f42a00a5088cf24e69de>@@PBD@Z 0041b9c0 f   streamer.obj
 0001:0001ab10       ??R<lambda_9366063389c5f42a00a5088cf24e69de>@@QBEXQADIQBD@Z 0041bb10 f   streamer.obj
 0001:0001b9b6       __catch$??$_Emplace_reallocate@ABUKinematics@TrackerKinematicsDatagram@@@?$vector@UKinematics@TrackerKinematicsDatagram@@V?$allocator@UKinematics@TrackerKinematicsDatagram@@@std@@@std@@QAEPAUKinematics@TrackerKinematicsDatagram@@QAU23@ABU23@@Z$0 0041c9b6 f i trackerkinematicsdatagram.obj
 0001:0001d7e0       ?pre_c_initialization@@YAHXZ 0041e7e0 f   MSVCRTD:exe_main.obj
 0001:0001d880       ?post_pgo_initialization@@YAHXZ 0041e880 f   MSVCRTD:exe_main.obj
 0001:0001d890       ?pre_cpp_initialization@@YAXXZ 0041e890 f   MSVCRTD:exe_main.obj
 0001:0001d8b0       ?__scrt_common_main@@YAHXZ 0041e8b0 f   MSVCRTD:exe_main.obj
 0001:0001d8c0       ?__scrt_common_main_seh@@YAHXZ 0041e8c0 f   MSVCRTD:exe_main.obj
 0001:0001db00       ?invoke_main@@YAHXZ        0041eb00 f   MSVCRTD:exe_main.obj
 0001:0001dc00       ?find_pe_section@@YAPAU_IMAGE_SECTION_HEADER@@QAEI@Z 0041ec00 f   MSVCRTD:utility.obj
 0001:0001dc90       ?is_potentially_valid_image_base@@YA_NQAX@Z 0041ec90 f   MSVCRTD:utility.obj
 0001:0001e780       ___get_entropy             0041f780 f   MSVCRTD:gs_support.obj
 0001:0001f210       __unwindfunclet$??0AngularSegmentKinematicsDatagram@@QAE@XZ$0 00420210 f   angularsegmentkinematicsdatagram.obj
 0001:0001f218       __unwindfunclet$??0AngularSegmentKinematicsDatagram@@QAE@XZ$1 00420218 f   angularsegmentkinematicsdatagram.obj
 0001:0001f223       __ehhandler$??0AngularSegmentKinematicsDatagram@@QAE@XZ 00420223 f   angularsegmentkinematicsdatagram.obj
 0001:0001f240       __unwindfunclet$??$?6U?$char_traits@D@std@@@std@@YAAAV?$basic_ostream@DU?$char_traits@D@std@@@0@AAV10@PBD@Z$2 00420240 f   angularsegmentkinematicsdatagram.obj
 0001:0001f248       __ehhandler$??$?6U?$char_traits@D@std@@@std@@YAAAV?$basic_ostream@DU?$char_traits@D@std@@@0@AAV10@PBD@Z 00420248 f   angularsegmentkinematicsdatagram.obj
 0001:0001f270       __ehhandler$??$_Emplace_reallocate@ABUKinematics@AngularSegmentKinematicsDatagram@@@?$vector@UKinematics@AngularSegmentKinematicsDatagram@@V?$allocator@UKinematics@AngularSegmentKinematicsDatagram@@@std@@@std@@QAEPAUKinematics@AngularSegmentKinematicsDatagram@@QAU23@ABU23@@Z 00420270 f   angularsegmentkinematicsdatagram.obj
 0001:0001f290       __ehhandler$??0?$vector@UKinematics@AngularSegmentKinematicsDatagram@@V?$allocator@UKinematics@AngularSegmentKinematicsDatagram@@@std@@@std@@QAE@XZ 00420290 f   angularsegmentkinematicsdatagram.obj
 0001:0001f2b0       __unwindfunclet$??0sentry@?$basic_ostream@DU?$char_traits@D@std@@@std@@QAE@AAV12@@Z$0 004202b0 f   angularsegmentkinematicsdatagram.obj
 0001:0001f2b8       __ehhandler$??0sentry@?$basic_ostream@DU?$char_traits@D@std@@@std@@QAE@AAV12@@Z 004202b8 f   angularsegmentkinematicsdatagram.obj
 0001:0001f2e0       __ehhandler$??1?$_Vector_alloc@U?$_Vec_base_types@UKinematics@AngularSegmentKinematicsDatagram@@V?$allocator@UKinematics@AngularSegmentKinematicsDatagram@@@std@@@std@@@std@@QAE@XZ 004202e0 f   angularsegmentkinematicsdatagram.obj
 0001:0001f300       __ehhandler$??1?$vector@UKinematics@AngularSegmentKinematicsDatagram@@V?$allocator@UKinematics@AngularSegmentKinematicsDatagram@@@std@@@std@@QAE@XZ 00420300 f   angularsegmentkinematicsdatagram.obj
 0001:0001f320       __ehhandler$??1_Sentry_base@?$basic_ostream@DU?$char_traits@D@std@@@std@@QAE@XZ 00420320 f   angularsegmentkinematicsdatagram.obj
 0001:0001f340       __ehhandler$??1sentry@?$basic_ostream@DU?$char_traits@D@std@@@std@@QAE@XZ 00420340 f   angularsegmentkinematicsdatagram.obj
 0001:0001f360       __ehhandler$?_Orphan_all@_Container_base12@std@@QAEXXZ 00420360 f   angularsegmentkinematicsdatagram.obj
 0001:0001f380       __unwindfunclet$?_Orphan_range@?$vector@UKinematics@AngularSegmentKinematicsDatagram@@V?$allocator@UKinematics@AngularSegmentKinematicsDatagram@@@std@@@std@@ABEXPAUKinematics@AngularSegmentKinematicsDatagram@@0@Z$0 00420380 f   angularsegmentkinematicsdatagram.obj
 0001:0001f389       __ehhandler$?_Orphan_range@?$vector@UKinematics@AngularSegmentKinematicsDatagram@@V?$allocator@UKinematics@AngularSegmentKinematicsDatagram@@@std@@@std@@ABEXPAUKinematics@AngularSegmentKinematicsDatagram@@0@Z 00420389 f   angularsegmentkinematicsdatagram.obj
 0001:0001f3b0       __unwindfunclet$??0CenterOfMassDatagram@@QAE@XZ$0 004203b0 f   centerofmassdatagram.obj
 0001:0001f3b8       __ehhandler$??0CenterOfMassDatagram@@QAE@XZ 004203b8 f   centerofmassdatagram.obj
 0001:0001f3e0       __unwindfunclet$??0Datagram@@QAE@XZ$0 004203e0 f   datagram.obj
 0001:0001f3eb       __unwindfunclet$??0Datagram@@QAE@XZ$1 004203eb f   datagram.obj
 0001:0001f3f6       __ehhandler$??0Datagram@@QAE@XZ 004203f6 f   datagram.obj
 0001:0001f411       __unwindfunclet$?deserialize@Datagram@@QAE_NABUXsByteArray@@@Z$0 00420411 f   datagram.obj
 0001:0001f419       __unwindfunclet$?deserialize@Datagram@@QAE_NABUXsByteArray@@@Z$1 00420419 f   datagram.obj
 0001:0001f421       __unwindfunclet$?deserialize@Datagram@@QAE_NABUXsByteArray@@@Z$2 00420421 f   datagram.obj
 0001:0001f429       __ehhandler$?deserialize@Datagram@@QAE_NABUXsByteArray@@@Z 00420429 f   datagram.obj
 0001:0001f44e       __unwindfunclet$?setType@Datagram@@QAEXW4StreamingProtocol@@@Z$0 0042044e f   datagram.obj
 0001:0001f459       __unwindfunclet$?setType@Datagram@@QAEXW4StreamingProtocol@@@Z$1 00420459 f   datagram.obj
 0001:0001f461       __ehhandler$?setType@Datagram@@QAEXW4StreamingProtocol@@@Z 00420461 f   datagram.obj
 0001:0001f489       __unwindfunclet$?messageType@Datagram@@QBEHXZ$0 00420489 f   datagram.obj
 0001:0001f491       __unwindfunclet$?messageType@Datagram@@QBEHXZ$1 00420491 f   datagram.obj
 0001:0001f499       __ehhandler$?messageType@Datagram@@QBEHXZ 00420499 f   datagram.obj
 0001:0001f4be       __unwindfunclet$?messageType@Datagram@@SAHABUXsByteArray@@@Z$0 004204be f   datagram.obj
 0001:0001f4c9       __unwindfunclet$?messageType@Datagram@@SAHABUXsByteArray@@@Z$1 004204c9 f   datagram.obj
 0001:0001f4d1       __ehhandler$?messageType@Datagram@@SAHABUXsByteArray@@@Z 004204d1 f   datagram.obj
 0001:0001f4f9       __unwindfunclet$?decode@Datagram@@QBE?AV?$basic_string@DU?$char_traits@D@std@@V?$allocator@D@2@@std@@W4StreamingProtocol@@@Z$0 004204f9 f   datagram.obj
 0001:0001f501       __unwindfunclet$?decode@Datagram@@QBE?AV?$basic_string@DU?$char_traits@D@std@@V?$allocator@D@2@@std@@W4StreamingProtocol@@@Z$1 00420501 f   datagram.obj
 0001:0001f509       __unwindfunclet$?decode@Datagram@@QBE?AV?$basic_string@DU?$char_traits@D@std@@V?$allocator@D@2@@std@@W4StreamingProtocol@@@Z$2 00420509 f   datagram.obj
 0001:0001f511       __ehhandler$?decode@Datagram@@QBE?AV?$basic_string@DU?$char_traits@D@std@@V?$allocator@D@2@@std@@W4StreamingProtocol@@@Z 00420511 f   datagram.obj
 0001:0001f52c       __unwindfunclet$?printHeader@Datagram@@QBEXXZ$0 0042052c f   datagram.obj
 0001:0001f534       __ehhandler$?printHeader@Datagram@@QBEXXZ 00420534 f   datagram.obj
 0001:0001f560       __unwindfunclet$??$?0ABV?$allocator@D@std@@X@?$_String_alloc@U?$_String_base_types@DV?$allocator@D@std@@@std@@@std@@QAE@ABV?$allocator@D@1@@Z$0 00420560 f   datagram.obj
 0001:0001f568       __ehhandler$??$?0ABV?$allocator@D@std@@X@?$_String_alloc@U?$_String_base_types@DV?$allocator@D@std@@@std@@@std@@QAE@ABV?$allocator@D@1@@Z 00420568 f   datagram.obj
 0001:0001f590       __ehhandler$??$?0U?$default_delete@V_Facet_base@std@@@std@@$0A@@?$unique_ptr@V_Facet_base@std@@U?$default_delete@V_Facet_base@std@@@2@@std@@QAE@PAV_Facet_base@1@@Z 00420590 f   datagram.obj
 0001:0001f5b0       __unwindfunclet$??$?0V?$allocator@D@std@@X@?$_String_alloc@U?$_String_base_types@DV?$allocator@D@std@@@std@@@std@@QAE@$$QAV?$allocator@D@1@@Z$0 004205b0 f   datagram.obj
 0001:0001f5b8       __ehhandler$??$?0V?$allocator@D@std@@X@?$_String_alloc@U?$_String_base_types@DV?$allocator@D@std@@@std@@@std@@QAE@$$QAV?$allocator@D@1@@Z 004205b8 f   datagram.obj
 0001:0001f5e0       __unwindfunclet$??$?5DU?$char_traits@D@std@@V?$allocator@D@1@@std@@YAAAV?$basic_istream@DU?$char_traits@D@std@@@0@$$QAV10@AAV?$basic_string@DU?$char_traits@D@std@@V?$allocator@D@2@@0@@Z$2 004205e0 f   datagram.obj
 0001:0001f5e8       __unwindfunclet$??$?5DU?$char_traits@D@std@@V?$allocator@D@1@@std@@YAAAV?$basic_istream@DU?$char_traits@D@std@@@0@$$QAV10@AAV?$basic_string@DU?$char_traits@D@std@@V?$allocator@D@2@@0@@Z$3 004205e8 f   datagram.obj
 0001:0001f5f0       __ehhandler$??$?5DU?$char_traits@D@std@@V?$allocator@D@1@@std@@YAAAV?$basic_istream@DU?$char_traits@D@std@@@0@$$QAV10@AAV?$basic_string@DU?$char_traits@D@std@@V?$allocator@D@2@@0@@Z 004205f0 f   datagram.obj
 0001:0001f610       __unwindfunclet$??$?6U?$char_traits@D@std@@@std@@YAAAV?$basic_ostream@DU?$char_traits@D@std@@@0@AAV10@D@Z$2 00420610 f   datagram.obj
 0001:0001f618       __ehhandler$??$?6U?$char_traits@D@std@@@std@@YAAAV?$basic_ostream@DU?$char_traits@D@std@@@0@AAV10@D@Z 00420618 f   datagram.obj
 0001:0001f640       __ehhandler$??$_Buynode@ABUpiecewise_construct_t@std@@V?$tuple@$$QAH@2@V?$tuple@$$V@2@@?$_Tree_comp_alloc@V?$_Tmap_traits@HV?$basic_string@DU?$char_traits@D@std@@V?$allocator@D@2@@std@@U?$less@H@2@V?$allocator@U?$pair@$$CBHV?$basic_string@DU?$char_traits@D@std@@V?$allocator@D@2@@std@@@std@@@2@$0A@@std@@@std@@QAEPAU?$_Tree_node@U?$pair@$$CBHV?$basic_string@DU?$char_traits@D@std@@V?$allocator@D@2@@std@@@std@@PAX@1@ABUpiecewise_construct_t@1@$$QAV?$tuple@$$QAH@1@$$QAV?$tuple@$$V@1@@Z 00420640 f   datagram.obj
 0001:0001f660       __ehhandler$??$_Freenode0@V?$allocator@U?$_Tree_node@U?$pair@$$CBHV?$basic_string@DU?$char_traits@D@std@@V?$allocator@D@2@@std@@@std@@PAX@std@@@std@@@?$_Tree_node@U?$pair@$$CBHV?$basic_string@DU?$char_traits@D@std@@V?$allocator@D@2@@std@@@std@@PAX@std@@SAXAAV?$allocator@U?$_Tree_node@U?$pair@$$CBHV?$basic_string@DU?$char_traits@D@std@@V?$allocator@D@2@@std@@@std@@PAX@std@@@1@PAU01@@Z 00420660 f   datagram.obj
 0001:0001f680       __unwindfunclet$??$_Insert_hint@AAU?$pair@$$CBHV?$basic_string@DU?$char_traits@D@std@@V?$allocator@D@2@@std@@@std@@PAU?$_Tree_node@U?$pair@$$CBHV?$basic_string@DU?$char_traits@D@std@@V?$allocator@D@2@@std@@@std@@PAX@2@@?$_Tree@V?$_Tmap_traits@HV?$basic_string@DU?$char_traits@D@std@@V?$allocator@D@2@@std@@U?$less@H@2@V?$allocator@U?$pair@$$CBHV?$basic_string@DU?$char_traits@D@std@@V?$allocator@D@2@@std@@@std@@@2@$0A@@std@@@std@@IAE?AV?$_Tree_iterator@V?$_Tree_val@U?$_Tree_simple_types@U?$pair@$$CBHV?$basic_string@DU?$char_traits@D@std@@V?$allocator@D@2@@std@@@std@@@std@@@std@@@1@V?$_Tree_const_iterator@V?$_Tree_val@U?$_Tree_simple_types@U?$pair@$$CBHV?$basic_string@DU?$char_traits@D@std@@V?$allocator@D@2@@std@@@std@@@std@@@std@@@1@AAU?$pair@$$CBHV?$basic_string@DU?$char_traits@D@std@@V?$allocator@D@2@@std@@@1@PAU?$_Tree_node@U?$pair@$$CBHV?$basic_string@DU?$char_traits@D@std@@V?$allocator@D@2@@std@@@std@@PAX@1@@Z$2 00420680 f   datagram.obj
 0001:0001f688       __unwindfunclet$??$_Insert_hint@AAU?$pair@$$CBHV?$basic_string@DU?$char_traits@D@std@@V?$allocator@D@2@@std@@@std@@PAU?$_Tree_node@U?$pair@$$CBHV?$basic_string@DU?$char_traits@D@std@@V?$allocator@D@2@@std@@@std@@PAX@2@@?$_Tree@V?$_Tmap_traits@HV?$basic_string@DU?$char_traits@D@std@@V?$allocator@D@2@@std@@U?$less@H@2@V?$allocator@U?$pair@$$CBHV?$basic_string@DU?$char_traits@D@std@@V?$allocator@D@2@@std@@@std@@@2@$0A@@std@@@std@@IAE?AV?$_Tree_iterator@V?$_Tree_val@U?$_Tree_simple_types@U?$pair@$$CBHV?$basic_string@DU?$char_traits@D@std@@V?$allocator@D@2@@std@@@std@@@std@@@std@@@1@V?$_Tree_const_iterator@V?$_Tree_val@U?$_Tree_simple_types@U?$pair@$$CBHV?$basic_string@DU?$char_traits@D@std@@V?$allocator@D@2@@std@@@std@@@std@@@std@@@1@AAU?$pair@$$CBHV?$basic_string@DU?$char_traits@D@std@@V?$allocator@D@2@@std@@@1@PAU?$_Tree_node@U?$pair@$$CBHV?$basic_string@DU?$char_traits@D@std@@V?$allocator@D@2@@std@@@std@@PAX@1@@Z$3 00420688 f   datagram.obj
 0001:0001f690       __unwindfunclet$??$_Insert_hint@AAU?$pair@$$CBHV?$basic_string@DU?$char_traits@D@std@@V?$allocator@D@2@@std@@@std@@PAU?$_Tree_node@U?$pair@$$CBHV?$basic_string@DU?$char_traits@D@std@@V?$allocator@D@2@@std@@@std@@PAX@2@@?$_Tree@V?$_Tmap_traits@HV?$basic_string@DU?$char_traits@D@std@@V?$allocator@D@2@@std@@U?$less@H@2@V?$allocator@U?$pair@$$CBHV?$basic_string@DU?$char_traits@D@std@@V?$allocator@D@2@@std@@@std@@@2@$0A@@std@@@std@@IAE?AV?$_Tree_iterator@V?$_Tree_val@U?$_Tree_simple_types@U?$pair@$$CBHV?$basic_string@DU?$char_traits@D@std@@V?$allocator@D@2@@std@@@std@@@std@@@std@@@1@V?$_Tree_const_iterator@V?$_Tree_val@U?$_Tree_simple_types@U?$pair@$$CBHV?$basic_string@DU?$char_traits@D@std@@V?$allocator@D@2@@std@@@std@@@std@@@std@@@1@AAU?$pair@$$CBHV?$basic_string@DU?$char_traits@D@std@@V?$allocator@D@2@@std@@@1@PAU?$_Tree_node@U?$pair@$$CBHV?$basic_string@DU?$char_traits@D@std@@V?$allocator@D@2@@std@@@std@@PAX@1@@Z$5 00420690 f   datagram.obj
 0001:0001f69b       __unwindfunclet$??$_Insert_hint@AAU?$pair@$$CBHV?$basic_string@DU?$char_traits@D@std@@V?$allocator@D@2@@std@@@std@@PAU?$_Tree_node@U?$pair@$$CBHV?$basic_string@DU?$char_traits@D@std@@V?$allocator@D@2@@std@@@std@@PAX@2@@?$_Tree@V?$_Tmap_traits@HV?$basic_string@DU?$char_traits@D@std@@V?$allocator@D@2@@std@@U?$less@H@2@V?$allocator@U?$pair@$$CBHV?$basic_string@DU?$char_traits@D@std@@V?$allocator@D@2@@std@@@std@@@2@$0A@@std@@@std@@IAE?AV?$_Tree_iterator@V?$_Tree_val@U?$_Tree_simple_types@U?$pair@$$CBHV?$basic_string@DU?$char_traits@D@std@@V?$allocator@D@2@@std@@@std@@@std@@@std@@@1@V?$_Tree_const_iterator@V?$_Tree_val@U?$_Tree_simple_types@U?$pair@$$CBHV?$basic_string@DU?$char_traits@D@std@@V?$allocator@D@2@@std@@@std@@@std@@@std@@@1@AAU?$pair@$$CBHV?$basic_string@DU?$char_traits@D@std@@V?$allocator@D@2@@std@@@1@PAU?$_Tree_node@U?$pair@$$CBHV?$basic_string@DU?$char_traits@D@std@@V?$allocator@D@2@@std@@@std@@PAX@1@@Z$6 0042069b f   datagram.obj
 0001:0001f6a6       __unwindfunclet$??$_Insert_hint@AAU?$pair@$$CBHV?$basic_string@DU?$char_traits@D@std@@V?$allocator@D@2@@std@@@std@@PAU?$_Tree_node@U?$pair@$$CBHV?$basic_string@DU?$char_traits@D@std@@V?$allocator@D@2@@std@@@std@@PAX@2@@?$_Tree@V?$_Tmap_traits@HV?$basic_string@DU?$char_traits@D@std@@V?$allocator@D@2@@std@@U?$less@H@2@V?$allocator@U?$pair@$$CBHV?$basic_string@DU?$char_traits@D@std@@V?$allocator@D@2@@std@@@std@@@2@$0A@@std@@@std@@IAE?AV?$_Tree_iterator@V?$_Tree_val@U?$_Tree_simple_types@U?$pair@$$CBHV?$basic_string@DU?$char_traits@D@std@@V?$allocator@D@2@@std@@@std@@@std@@@std@@@1@V?$_Tree_const_iterator@V?$_Tree_val@U?$_Tree_simple_types@U?$pair@$$CBHV?$basic_string@DU?$char_traits@D@std@@V?$allocator@D@2@@std@@@std@@@std@@@std@@@1@AAU?$pair@$$CBHV?$basic_string@DU?$char_traits@D@std@@V?$allocator@D@2@@std@@@1@PAU?$_Tree_node@U?$pair@$$CBHV?$basic_string@DU?$char_traits@D@std@@V?$allocator@D@2@@std@@@std@@PAX@1@@Z$7 004206a6 f   datagram.obj
 0001:0001f6c2       __unwindfunclet$??$_Insert_hint@AAU?$pair@$$CBHV?$basic_string@DU?$char_traits@D@std@@V?$allocator@D@2@@std@@@std@@PAU?$_Tree_node@U?$pair@$$CBHV?$basic_string@DU?$char_traits@D@std@@V?$allocator@D@2@@std@@@std@@PAX@2@@?$_Tree@V?$_Tmap_traits@HV?$basic_string@DU?$char_traits@D@std@@V?$allocator@D@2@@std@@U?$less@H@2@V?$allocator@U?$pair@$$CBHV?$basic_string@DU?$char_traits@D@std@@V?$allocator@D@2@@std@@@std@@@2@$0A@@std@@@std@@IAE?AV?$_Tree_iterator@V?$_Tree_val@U?$_Tree_simple_types@U?$pair@$$CBHV?$basic_string@DU?$char_traits@D@std@@V?$allocator@D@2@@std@@@std@@@std@@@std@@@1@V?$_Tree_const_iterator@V?$_Tree_val@U?$_Tree_simple_types@U?$pair@$$CBHV?$basic_string@DU?$char_traits@D@std@@V?$allocator@D@2@@std@@@std@@@std@@@std@@@1@AAU?$pair@$$CBHV?$basic_string@DU?$char_traits@D@std@@V?$allocator@D@2@@std@@@1@PAU?$_Tree_node@U?$pair@$$CBHV?$basic_string@DU?$char_traits@D@std@@V?$allocator@D@2@@std@@@std@@PAX@1@@Z$8 004206c2 f   datagram.obj
 0001:0001f6cd       __unwindfunclet$??$_Insert_hint@AAU?$pair@$$CBHV?$basic_string@DU?$char_traits@D@std@@V?$allocator@D@2@@std@@@std@@PAU?$_Tree_node@U?$pair@$$CBHV?$basic_string@DU?$char_traits@D@std@@V?$allocator@D@2@@std@@@std@@PAX@2@@?$_Tree@V?$_Tmap_traits@HV?$basic_string@DU?$char_traits@D@std@@V?$allocator@D@2@@std@@U?$less@H@2@V?$allocator@U?$pair@$$CBHV?$basic_string@DU?$char_traits@D@std@@V?$allocator@D@2@@std@@@std@@@2@$0A@@std@@@std@@IAE?AV?$_Tree_iterator@V?$_Tree_val@U?$_Tree_simple_types@U?$pair@$$CBHV?$basic_string@DU?$char_traits@D@std@@V?$allocator@D@2@@std@@@std@@@std@@@std@@@1@V?$_Tree_const_iterator@V?$_Tree_val@U?$_Tree_simple_types@U?$pair@$$CBHV?$basic_string@DU?$char_traits@D@std@@V?$allocator@D@2@@std@@@std@@@std@@@std@@@1@AAU?$pair@$$CBHV?$basic_string@DU?$char_traits@D@std@@V?$allocator@D@2@@std@@@1@PAU?$_Tree_node@U?$pair@$$CBHV?$basic_string@DU?$char_traits@D@std@@V?$allocator@D@2@@std@@@std@@PAX@1@@Z$9 004206cd f   datagram.obj
 0001:0001f6d8       __unwindfunclet$??$_Insert_hint@AAU?$pair@$$CBHV?$basic_string@DU?$char_traits@D@std@@V?$allocator@D@2@@std@@@std@@PAU?$_Tree_node@U?$pair@$$CBHV?$basic_string@DU?$char_traits@D@std@@V?$allocator@D@2@@std@@@std@@PAX@2@@?$_Tree@V?$_Tmap_traits@HV?$basic_string@DU?$char_traits@D@std@@V?$allocator@D@2@@std@@U?$less@H@2@V?$allocator@U?$pair@$$CBHV?$basic_string@DU?$char_traits@D@std@@V?$allocator@D@2@@std@@@std@@@2@$0A@@std@@@std@@IAE?AV?$_Tree_iterator@V?$_Tree_val@U?$_Tree_simple_types@U?$pair@$$CBHV?$basic_string@DU?$char_traits@D@std@@V?$allocator@D@2@@std@@@std@@@std@@@std@@@1@V?$_Tree_const_iterator@V?$_Tree_val@U?$_Tree_simple_types@U?$pair@$$CBHV?$basic_string@DU?$char_traits@D@std@@V?$allocator@D@2@@std@@@std@@@std@@@std@@@1@AAU?$pair@$$CBHV?$basic_string@DU?$char_traits@D@std@@V?$allocator@D@2@@std@@@1@PAU?$_Tree_node@U?$pair@$$CBHV?$basic_string@DU?$char_traits@D@std@@V?$allocator@D@2@@std@@@std@@PAX@1@@Z$10 004206d8 f   datagram.obj
 0001:0001f6f4       __ehhandler$??$_Insert_hint@AAU?$pair@$$CBHV?$basic_string@DU?$char_traits@D@std@@V?$allocator@D@2@@std@@@std@@PAU?$_Tree_node@U?$pair@$$CBHV?$basic_string@DU?$char_traits@D@std@@V?$allocator@D@2@@std@@@std@@PAX@2@@?$_Tree@V?$_Tmap_traits@HV?$basic_string@DU?$char_traits@D@std@@V?$allocator@D@2@@std@@U?$less@H@2@V?$allocator@U?$pair@$$CBHV?$basic_string@DU?$char_traits@D@std@@V?$allocator@D@2@@std@@@std@@@2@$0A@@std@@@std@@IAE?AV?$_Tree_iterator@V?$_Tree_val@U?$_Tree_simple_types@U?$pair@$$CBHV?$basic_string@DU?$char_traits@D@std@@V?$allocator@D@2@@std@@@std@@@std@@@std@@@1@V?$_Tree_const_iterator@V?$_Tree_val@U?$_Tree_simple_types@U?$pair@$$CBHV?$basic_string@DU?$char_traits@D@std@@V?$allocator@D@2@@std@@@std@@@std@@@std@@@1@AAU?$pair@$$CBHV?$basic_string@DU?$char_traits@D@std@@V?$allocator@D@2@@std@@@1@PAU?$_Tree_node@U?$pair@$$CBHV?$basic_string@DU?$char_traits@D@std@@V?$allocator@D@2@@std@@@std@@PAX@1@@Z 004206f4 f   datagram.obj
 0001:0001f720       __unwindfunclet$??$_Insert_nohint@AAU?$pair@$$CBHV?$basic_string@DU?$char_traits@D@std@@V?$allocator@D@2@@std@@@std@@PAU?$_Tree_node@U?$pair@$$CBHV?$basic_string@DU?$char_traits@D@std@@V?$allocator@D@2@@std@@@std@@PAX@2@@?$_Tree@V?$_Tmap_traits@HV?$basic_string@DU?$char_traits@D@std@@V?$allocator@D@2@@std@@U?$less@H@2@V?$allocator@U?$pair@$$CBHV?$basic_string@DU?$char_traits@D@std@@V?$allocator@D@2@@std@@@std@@@2@$0A@@std@@@std@@IAE?AU?$pair@V?$_Tree_iterator@V?$_Tree_val@U?$_Tree_simple_types@U?$pair@$$CBHV?$basic_string@DU?$char_traits@D@std@@V?$allocator@D@2@@std@@@std@@@std@@@std@@@std@@_N@1@_NAAU?$pair@$$CBHV?$basic_string@DU?$char_traits@D@std@@V?$allocator@D@2@@std@@@1@PAU?$_Tree_node@U?$pair@$$CBHV?$basic_string@DU?$char_traits@D@std@@V?$allocator@D@2@@std@@@std@@PAX@1@@Z$4 00420720 f   datagram.obj
 0001:0001f728       __unwindfunclet$??$_Insert_nohint@AAU?$pair@$$CBHV?$basic_string@DU?$char_traits@D@std@@V?$allocator@D@2@@std@@@std@@PAU?$_Tree_node@U?$pair@$$CBHV?$basic_string@DU?$char_traits@D@std@@V?$allocator@D@2@@std@@@std@@PAX@2@@?$_Tree@V?$_Tmap_traits@HV?$basic_string@DU?$char_traits@D@std@@V?$allocator@D@2@@std@@U?$less@H@2@V?$allocator@U?$pair@$$CBHV?$basic_string@DU?$char_traits@D@std@@V?$allocator@D@2@@std@@@std@@@2@$0A@@std@@@std@@IAE?AU?$pair@V?$_Tree_iterator@V?$_Tree_val@U?$_Tree_simple_types@U?$pair@$$CBHV?$basic_string@DU?$char_traits@D@std@@V?$allocator@D@2@@std@@@std@@@std@@@std@@@std@@_N@1@_NAAU?$pair@$$CBHV?$basic_string@DU?$char_traits@D@std@@V?$allocator@D@2@@std@@@1@PAU?$_Tree_node@U?$pair@$$CBHV?$basic_string@DU?$char_traits@D@std@@V?$allocator@D@2@@std@@@std@@PAX@1@@Z$5 00420728 f   datagram.obj
 0001:0001f733       __ehhandler$??$_Insert_nohint@AAU?$pair@$$CBHV?$basic_string@DU?$char_traits@D@std@@V?$allocator@D@2@@std@@@std@@PAU?$_Tree_node@U?$pair@$$CBHV?$basic_string@DU?$char_traits@D@std@@V?$allocator@D@2@@std@@@std@@PAX@2@@?$_Tree@V?$_Tmap_traits@HV?$basic_string@DU?$char_traits@D@std@@V?$allocator@D@2@@std@@U?$less@H@2@V?$allocator@U?$pair@$$CBHV?$basic_string@DU?$char_traits@D@std@@V?$allocator@D@2@@std@@@std@@@2@$0A@@std@@@std@@IAE?AU?$pair@V?$_Tree_iterator@V?$_Tree_val@U?$_Tree_simple_types@U?$pair@$$CBHV?$basic_string@DU?$char_traits@D@std@@V?$allocator@D@2@@std@@@std@@@std@@@std@@@std@@_N@1@_NAAU?$pair@$$CBHV?$basic_string@DU?$char_traits@D@std@@V?$allocator@D@2@@std@@@1@PAU?$_Tree_node@U?$pair@$$CBHV?$basic_string@DU?$char_traits@D@std@@V?$allocator@D@2@@std@@@std@@PAX@1@@Z 00420733 f   datagram.obj
 0001:0001f760       __unwindfunclet$??$_Insert_string@DU?$char_traits@D@std@@I@std@@YAAAV?$basic_ostream@DU?$char_traits@D@std@@@0@AAV10@QBDI@Z$2 00420760 f   datagram.obj
 0001:0001f768       __ehhandler$??$_Insert_string@DU?$char_traits@D@std@@I@std@@YAAAV?$basic_ostream@DU?$char_traits@D@std@@@0@AAV10@QBDI@Z 00420768 f   datagram.obj
 0001:0001f790       __unwindfunclet$??$_Try_emplace@H$$V@?$map@HV?$basic_string@DU?$char_traits@D@std@@V?$allocator@D@2@@std@@U?$less@H@2@V?$allocator@U?$pair@$$CBHV?$basic_string@DU?$char_traits@D@std@@V?$allocator@D@2@@std@@@std@@@2@@std@@QAE?AU?$pair@V?$_Tree_iterator@V?$_Tree_val@U?$_Tree_simple_types@U?$pair@$$CBHV?$basic_string@DU?$char_traits@D@std@@V?$allocator@D@2@@std@@@std@@@std@@@std@@@std@@_N@1@$$QAH@Z$0 00420790 f   datagram.obj
 0001:0001f798       __unwindfunclet$??$_Try_emplace@H$$V@?$map@HV?$basic_string@DU?$char_traits@D@std@@V?$allocator@D@2@@std@@U?$less@H@2@V?$allocator@U?$pair@$$CBHV?$basic_string@DU?$char_traits@D@std@@V?$allocator@D@2@@std@@@std@@@2@@std@@QAE?AU?$pair@V?$_Tree_iterator@V?$_Tree_val@U?$_Tree_simple_types@U?$pair@$$CBHV?$basic_string@DU?$char_traits@D@std@@V?$allocator@D@2@@std@@@std@@@std@@@std@@@std@@_N@1@$$QAH@Z$1 00420798 f   datagram.obj
 0001:0001f7b1       __ehhandler$??$_Try_emplace@H$$V@?$map@HV?$basic_string@DU?$char_traits@D@std@@V?$allocator@D@2@@std@@U?$less@H@2@V?$allocator@U?$pair@$$CBHV?$basic_string@DU?$char_traits@D@std@@V?$allocator@D@2@@std@@@std@@@2@@std@@QAE?AU?$pair@V?$_Tree_iterator@V?$_Tree_val@U?$_Tree_simple_types@U?$pair@$$CBHV?$basic_string@DU?$char_traits@D@std@@V?$allocator@D@2@@std@@@std@@@std@@@std@@@std@@_N@1@$$QAH@Z 004207b1 f   datagram.obj
 0001:0001f7d0       __unwindfunclet$??$emplace_hint@ABUpiecewise_construct_t@std@@V?$tuple@$$QAH@2@V?$tuple@$$V@2@@?$_Tree@V?$_Tmap_traits@HV?$basic_string@DU?$char_traits@D@std@@V?$allocator@D@2@@std@@U?$less@H@2@V?$allocator@U?$pair@$$CBHV?$basic_string@DU?$char_traits@D@std@@V?$allocator@D@2@@std@@@std@@@2@$0A@@std@@@std@@QAE?AV?$_Tree_iterator@V?$_Tree_val@U?$_Tree_simple_types@U?$pair@$$CBHV?$basic_string@DU?$char_traits@D@std@@V?$allocator@D@2@@std@@@std@@@std@@@std@@@1@V?$_Tree_const_iterator@V?$_Tree_val@U?$_Tree_simple_types@U?$pair@$$CBHV?$basic_string@DU?$char_traits@D@std@@V?$allocator@D@2@@std@@@std@@@std@@@std@@@1@ABUpiecewise_construct_t@1@$$QAV?$tuple@$$QAH@1@$$QAV?$tuple@$$V@1@@Z$0 004207d0 f   datagram.obj
 0001:0001f7d8       __ehhandler$??$emplace_hint@ABUpiecewise_construct_t@std@@V?$tuple@$$QAH@2@V?$tuple@$$V@2@@?$_Tree@V?$_Tmap_traits@HV?$basic_string@DU?$char_traits@D@std@@V?$allocator@D@2@@std@@U?$less@H@2@V?$allocator@U?$pair@$$CBHV?$basic_string@DU?$char_traits@D@std@@V?$allocator@D@2@@std@@@std@@@2@$0A@@std@@@std@@QAE?AV?$_Tree_iterator@V?$_Tree_val@U?$_Tree_simple_types@U?$pair@$$CBHV?$basic_string@DU?$char_traits@D@std@@V?$allocator@D@2@@std@@@std@@@std@@@std@@@1@V?$_Tree_const_iterator@V?$_Tree_val@U?$_Tree_simple_types@U?$pair@$$CBHV?$basic_string@DU?$char_traits@D@std@@V?$allocator@D@2@@std@@@std@@@std@@@std@@@1@ABUpiecewise_construct_t@1@$$QAV?$tuple@$$QAH@1@$$QAV?$tuple@$$V@1@@Z 004207d8 f   datagram.obj
 0001:0001f800       __ehhandler$??$forward_as_tuple@H@std@@YA?AV?$tuple@$$QAH@0@$$QAH@Z 00420800 f   datagram.obj
 0001:0001f820       __unwindfunclet$??$use_facet@V?$ctype@D@std@@@std@@YAABV?$ctype@D@0@ABVlocale@0@@Z$0 00420820 f   datagram.obj
 0001:0001f829       __unwindfunclet$??$use_facet@V?$ctype@D@std@@@std@@YAABV?$ctype@D@0@ABVlocale@0@@Z$1 00420829 f   datagram.obj
 0001:0001f831       __ehhandler$??$use_facet@V?$ctype@D@std@@@std@@YAABV?$ctype@D@0@ABVlocale@0@@Z 00420831 f   datagram.obj
 0001:0001f850       __unwindfunclet$??0?$_String_alloc@U?$_String_base_types@DV?$allocator@D@std@@@std@@@std@@QAE@XZ$0 00420850 f   datagram.obj
 0001:0001f858       __ehhandler$??0?$_String_alloc@U?$_String_base_types@DV?$allocator@D@std@@@std@@@std@@QAE@XZ 00420858 f   datagram.obj
 0001:0001f880       __ehhandler$??0?$basic_string@DU?$char_traits@D@std@@V?$allocator@D@2@@std@@QAE@$$QAV01@@Z 00420880 f   datagram.obj
 0001:0001f8a0       __unwindfunclet$??0?$basic_string@DU?$char_traits@D@std@@V?$allocator@D@2@@std@@QAE@ABV01@@Z$0 004208a0 f   datagram.obj
 0001:0001f8a8       __ehhandler$??0?$basic_string@DU?$char_traits@D@std@@V?$allocator@D@2@@std@@QAE@ABV01@@Z 004208a8 f   datagram.obj
 0001:0001f8d0       __unwindfunclet$??0?$basic_string@DU?$char_traits@D@std@@V?$allocator@D@2@@std@@QAE@ABV01@IIABV?$allocator@D@1@@Z$0 004208d0 f   datagram.obj
 0001:0001f8d8       __ehhandler$??0?$basic_string@DU?$char_traits@D@std@@V?$allocator@D@2@@std@@QAE@ABV01@IIABV?$allocator@D@1@@Z 004208d8 f   datagram.obj
 0001:0001f900       __unwindfunclet$??0?$basic_string@DU?$char_traits@D@std@@V?$allocator@D@2@@std@@QAE@QBD@Z$0 00420900 f   datagram.obj
 0001:0001f908       __ehhandler$??0?$basic_string@DU?$char_traits@D@std@@V?$allocator@D@2@@std@@QAE@QBD@Z 00420908 f   datagram.obj
 0001:0001f930       __unwindfunclet$??0?$basic_string@DU?$char_traits@D@std@@V?$allocator@D@2@@std@@QAE@QBDI@Z$0 00420930 f   datagram.obj
 0001:0001f938       __ehhandler$??0?$basic_string@DU?$char_traits@D@std@@V?$allocator@D@2@@std@@QAE@QBDI@Z 00420938 f   datagram.obj
 0001:0001f960       __ehhandler$??0?$basic_string@DU?$char_traits@D@std@@V?$allocator@D@2@@std@@QAE@XZ 00420960 f   datagram.obj
 0001:0001f980       __unwindfunclet$??0?$basic_stringbuf@DU?$char_traits@D@std@@V?$allocator@D@2@@std@@QAE@H@Z$0 00420980 f   datagram.obj
 0001:0001f989       __ehhandler$??0?$basic_stringbuf@DU?$char_traits@D@std@@V?$allocator@D@2@@std@@QAE@H@Z 00420989 f   datagram.obj
 0001:0001f9b0       __unwindfunclet$??0?$basic_stringstream@DU?$char_traits@D@std@@V?$allocator@D@2@@std@@QAE@H@Z$0 004209b0 f   datagram.obj
 0001:0001f9cd       __unwindfunclet$??0?$basic_stringstream@DU?$char_traits@D@std@@V?$allocator@D@2@@std@@QAE@H@Z$1 004209cd f   datagram.obj
 0001:0001f9d9       __ehhandler$??0?$basic_stringstream@DU?$char_traits@D@std@@V?$allocator@D@2@@std@@QAE@H@Z 004209d9 f   datagram.obj
 0001:0001fa00       __unwindfunclet$??0sentry@?$basic_istream@DU?$char_traits@D@std@@@std@@QAE@AAV12@_N@Z$0 00420a00 f   datagram.obj
 0001:0001fa08       __ehhandler$??0sentry@?$basic_istream@DU?$char_traits@D@std@@@std@@QAE@AAV12@_N@Z 00420a08 f   datagram.obj
 0001:0001fa30       __ehhandler$??1?$_String_alloc@U?$_String_base_types@DV?$allocator@D@std@@@std@@@std@@QAE@XZ 00420a30 f   datagram.obj
